 jampgamex86

 Timestamp is 468e5973 (Fri Jul 06 17:02:11 2007)

 Preferred load address is 20000000

 Start         Length     Name                   Class
 0001:00000000 00119a90H .text                   CODE
 0002:00000000 00000138H .idata$5                DATA
 0002:00000138 00000004H .CRT$XCA                DATA
 0002:0000013c 00000004H .CRT$XCZ                DATA
 0002:00000140 00000004H .CRT$XIA                DATA
 0002:00000144 00000014H .CRT$XIC                DATA
 0002:00000158 00000004H .CRT$XIZ                DATA
 0002:0000015c 00000004H .CRT$XPA                DATA
 0002:00000160 00000004H .CRT$XPX                DATA
 0002:00000164 00000004H .CRT$XPXA               DATA
 0002:00000168 00000004H .CRT$XPZ                DATA
 0002:0000016c 00000004H .CRT$XTA                DATA
 0002:00000170 00000004H .CRT$XTZ                DATA
 0002:00000180 00023140H .rdata                  DATA
 0002:000232c0 0000000cH .rdata$sxdata           DATA
 0002:000232cc 00000004H .rtc$IAA                DATA
 0002:000232d0 00000004H .rtc$IZZ                DATA
 0002:000232d4 00000004H .rtc$TAA                DATA
 0002:000232d8 00000004H .rtc$TZZ                DATA
 0002:000232e0 000003ccH .xdata$x                DATA
 0002:000236ac 00000028H .idata$2                DATA
 0002:000236d4 00000014H .idata$3                DATA
 0002:000236e8 00000138H .idata$4                DATA
 0002:00023820 0000055eH .idata$6                DATA
 0002:00023d80 0000005cH .edata                  DATA
 0003:00000000 0000c988H .data                   DATA
 0003:0000c9a0 009368e4H .bss                    DATA

  Address         Publics by Value              Rva+Base       Lib:Object

 0000:00000000       __except_list              00000000     <absolute>
 0000:00000003       ___safe_se_handler_count   00000003     <absolute>
 0000:00000000       ___ImageBase               20000000     <linker-defined>
 0001:00000000       _CheckFall_By_Vectors      20001000 f   ai_aotc.obj
 0001:00000270       _Set_Enemy_Path            20001270 f   ai_aotc.obj
 0001:00000340       _AIMod_Jump                20001340 f   ai_aotc.obj
 0001:00000830       _AOTC_BotFallbackNavigation 20001830 f   ai_aotc.obj
 0001:00000e20       _FastBotAI                 20001e20 f   ai_aotc.obj
 0001:00003680       _visible                   20004680 f   ai_aotc.obj
 0001:00003720       _AOTC_StandardBotAI        20004720 f   ai_aotc.obj
 0001:00006bc0       _HYBRID_StandardBotAI      20007bc0 f   ai_hybrid.obj
 0001:00007e70       _BotMindTricked            20008e70 f   ai_main.obj
 0001:00007ef0       _BotAI_GetClientState      20008ef0 f   ai_main.obj
 0001:00007f30       _AngleDifference           20008f30 f   ai_main.obj
 0001:00007fa0       _BotChangeViewAngles       20008fa0 f   ai_main.obj
 0001:00008240       _BotInputToUserCommand     20009240 f   ai_main.obj
 0001:000084f0       _BotUpdateInput            200094f0 f   ai_main.obj
 0001:00008750       _RemoveColorEscapeSequences 20009750 f   ai_main.obj
 0001:000087b0       _BotScheduleBotThink       200097b0 f   ai_main.obj
 0001:00008880       _PlayersInGame             20009880 f   ai_main.obj
 0001:00008920       _BotAISetupClient          20009920 f   ai_main.obj
 0001:00008ac0       _BotAIShutdownClient       20009ac0 f   ai_main.obj
 0001:00008b20       _BotResetState             20009b20 f   ai_main.obj
 0001:00008c60       _BotAILoadMap              20009c60 f   ai_main.obj
 0001:00008ca0       _OrgVisible                20009ca0 f   ai_main.obj
 0001:00008cf0       _WPOrgVisible              20009cf0 f   ai_main.obj
 0001:00008dc0       _OrgVisibleBox             20009dc0 f   ai_main.obj
 0001:00008e30       _CheckForFunc              20009e30 f   ai_main.obj
 0001:00008ec0       _BotPVSCheck               20009ec0 f   ai_main.obj
 0001:00008f50       _GetNearestVisibleWP       20009f50 f   ai_main.obj
 0001:00009090       _PassWayCheck              2000a090 f   ai_main.obj
 0001:00009120       _TotalTrailDistance        2000a120 f   ai_main.obj
 0001:000091b0       _CheckForShorterRoutes     2000a1b0 f   ai_main.obj
 0001:00009330       _WPConstantRoutine         2000a330 f   ai_main.obj
 0001:00009500       _BotCTFGuardDuty           2000a500 f   ai_main.obj
 0001:00009530       _MoveTowardIdealAngles     2000a530 f   ai_main.obj
 0001:00009560       _BotTrace_Strafe           2000a560 f   ai_main.obj
 0001:000098a0       _BotTrace_Duck             2000a8a0 f   ai_main.obj
 0001:00009a40       _PassStandardEnemyChecks   2000aa40 f   ai_main.obj
 0001:00009c90       _BotCanHear                2000ac90 f   ai_main.obj
 0001:00009dd0       _UpdateEventTracker        2000add0 f   ai_main.obj
 0001:00009f50       _InFieldOfVision           2000af50 f   ai_main.obj
 0001:0000a040       _PassLovedOneCheck         2000b040 f   ai_main.obj
 0001:0000a170       _ScanForEnemies            2000b170 f   ai_main.obj
 0001:0000a470       _WaitingForNow             2000b470 f   ai_main.obj
 0001:0000a5f0       _BotGetWeaponRange         2000b5f0 f   ai_main.obj
 0001:0000a6a0       _BotIsAChickenWuss         2000b6a0 f   ai_main.obj
 0001:0000a830       _GetNearestBadThing        2000b830 f   ai_main.obj
 0001:0000ac10       _BotGetEnemyFlag           2000bc10 f   ai_main.obj
 0001:0000acc0       _BotGetFlagBack            2000bcc0 f   ai_main.obj
 0001:0000ae10       _BotGuardFlagCarrier       2000be10 f   ai_main.obj
 0001:0000af60       _BotGetFlagHome            2000bf60 f   ai_main.obj
 0001:0000af60       _BotDefendFlag             2000bf60 f   ai_main.obj
 0001:0000b010       _GetNewFlagPoint           2000c010 f   ai_main.obj
 0001:0000b1e0       _EntityVisibleBox          2000c1e0 f   ai_main.obj
 0001:0000b250       _Siege_TargetClosestObjective 2000c250 f   ai_main.obj
 0001:0000b530       _Siege_DefendFromAttackers 2000c530 f   ai_main.obj
 0001:0000b670       _Siege_CountDefenders      2000c670 f   ai_main.obj
 0001:0000b7c0       _Siege_CountTeammates      2000c7c0 f   ai_main.obj
 0001:0000b8c0       _JMTakesPriority           2000c8c0 f   ai_main.obj
 0001:0000b9c0       _BotHasAssociated          2000c9c0 f   ai_main.obj
 0001:0000ba70       _GetBestIdleGoal           2000ca70 f   ai_main.obj
 0001:0000bbb0       _CommanderBotCTFAI         2000cbb0 f   ai_main.obj
 0001:0000bf40       _CommanderBotSiegeAI       2000cf40 f   ai_main.obj
 0001:0000c060       _BotDoTeamplayAI           2000d060 f   ai_main.obj
 0001:0000c090       _CommanderBotTeamplayAI    2000d090 f   ai_main.obj
 0001:0000c2a0       _CommanderBotAI            2000d2a0 f   ai_main.obj
 0001:0000c2d0       _MeleeCombatHandling       2000d2d0 f   ai_main.obj
 0001:0000c580       _SaberCombatHandling       2000d580 f   ai_main.obj
 0001:0000ccd0       _BotWeaponCanLead          2000dcd0 f   ai_main.obj
 0001:0000cd20       _BotAimLeading             2000dd20 f   ai_main.obj
 0001:0000cee0       _BotAimOffsetGoalAngles    2000dee0 f   ai_main.obj
 0001:0000d220       _ShouldSecondaryFire       2000e220 f   ai_main.obj
 0001:0000d3c0       _CombatBotAI               2000e3c0 f   ai_main.obj
 0001:0000d6a0       _BotFallbackNavigation     2000e6a0 f   ai_main.obj
 0001:0000d7e0       _BotTryAnotherWeapon       2000e7e0 f   ai_main.obj
 0001:0000d870       _BotWeaponSelectable       2000e870 f   ai_main.obj
 0001:0000d8b0       _BotSelectIdealWeapon      2000e8b0 f   ai_main.obj
 0001:0000daa0       _BotSelectChoiceWeapon     2000eaa0 f   ai_main.obj
 0001:0000db30       _GetLoveLevel              2000eb30 f   ai_main.obj
 0001:0000dc10       _BotLovedOneDied           2000ec10 f   ai_main.obj
 0001:0000ddb0       _BotDeathNotify            2000edb0 f   ai_main.obj
 0001:0000de80       _StrafeTracing             2000ee80 f   ai_main.obj
 0001:0000e020       _PrimFiring                2000f020 f   ai_main.obj
 0001:0000e050       _KeepPrimFromFiring        2000f050 f   ai_main.obj
 0001:0000e090       _AltFiring                 2000f090 f   ai_main.obj
 0001:0000e0c0       _KeepAltFromFiring         2000f0c0 f   ai_main.obj
 0001:0000e100       _CheckForFriendInLOF       2000f100 f   ai_main.obj
 0001:0000e240       _BotScanForLeader          2000f240 f   ai_main.obj
 0001:0000e2e0       _BotReplyGreetings         2000f2e0 f   ai_main.obj
 0001:0000e360       _CTFFlagMovement           2000f360 f   ai_main.obj
 0001:0000e5f0       _BotCheckDetPacks          2000f5f0 f   ai_main.obj
 0001:0000e790       _BotUseInventoryItem       2000f790 f   ai_main.obj
 0001:0000e870       _BotSurfaceNear            2000f870 f   ai_main.obj
 0001:0000e910       _BotWeaponBlockable        2000f910 f   ai_main.obj
 0001:0000e950       _Bot_SetForcedMovement     2000f950 f   ai_main.obj
 0001:0000e9c0       _BotAISetup                2000f9c0 f   ai_main.obj
 0001:0000eb30       _BotAIShutdown             2000fb30 f   ai_main.obj
 0001:0000eb80       _WPTouchRoutine            2000fb80 f   ai_main.obj
 0001:0000edc0       _BotTrace_Jump             2000fdc0 f   ai_main.obj
 0001:0000efc0       _BotDamageNotification     2000ffc0 f   ai_main.obj
 0001:0000f210       _CTFTakesPriority          20010210 f   ai_main.obj
 0001:0000f5a0       _SiegeTakesPriority        200105a0 f   ai_main.obj
 0001:0000f800       _GetIdealDestination       20010800 f   ai_main.obj
 0001:0000ff30       _StandardBotAI             20010f30 f   ai_main.obj
 0001:00012ea0       _BotAI                     20013ea0 f   ai_main.obj
 0001:00013110       _BotAIStartFrame           20014110 f   ai_main.obj
 0001:000132c0       _ForceJumpNeeded           200142c0 f   ai_tab.obj
 0001:000133e0       _GetNearestWP              200143e0 f   ai_tab.obj
 0001:00013520       _FindOpenList              20014520 f   ai_tab.obj
 0001:00013550       _FindCloseList             20014550 f   ai_tab.obj
 0001:00013580       _RemoveFirstOpenList       20014580 f   ai_tab.obj
 0001:00013820       _AddCloseList              20014820 f   ai_tab.obj
 0001:000138b0       _ClearRoute                200148b0 f   ai_tab.obj
 0001:000138d0       _AddtoRoute                200148d0 f   ai_tab.obj
 0001:00013950       _FindOnRoute               20014950 f   ai_tab.obj
 0001:000139b0       _CopyRoute                 200149b0 f   ai_tab.obj
 0001:000139d0       _TAB_BotOrder              200149d0 f   ai_tab.obj
 0001:00013b20       _TAB_BotKneelBeforeZod     20014b20 f   ai_tab.obj
 0001:00013d40       _TAB_BotBeStill            20014d40 f   ai_tab.obj
 0001:00013dc0       _TAB_TraceJumpCrouchFall   20014dc0 f   ai_tab.obj
 0001:00014160       _FindMovementQuad          20015160 f   ai_tab.obj
 0001:000142b0       _TAB_AdjustMoveDirection   200152b0 f   ai_tab.obj
 0001:000144c0       _TAB_MovementCommand       200154c0 f   ai_tab.obj
 0001:00014540       _TAB_AdjustQuad            20015540 f   ai_tab.obj
 0001:00014570       _HaveHeavyWeapon           20015570 f   ai_tab.obj
 0001:00014590       _IsHeavyWeapon             20015590 f   ai_tab.obj
 0001:000145f0       _CalculateJump             200155f0 f   ai_tab.obj
 0001:000146b0       _WPVisibleUpdate           200156b0 f   ai_tab.obj
 0001:00014700       _ResetWPTimers             20015700 f   ai_tab.obj
 0001:000147e0       _TAB_GetNearestVisibleWP   200157e0 f   ai_tab.obj
 0001:00014990       _TAB_AdjustforStrafe       20015990 f   ai_tab.obj
 0001:00014a50       _FindWeaponforRange        20015a50 f   ai_tab.obj
 0001:00014b00       _TargetDistance            20015b00 f   ai_tab.obj
 0001:00014d20       _TAB_MoveforAttackQuad     20015d20 f   ai_tab.obj
 0001:00014ed0       _TAB_BotTrackAttack        20015ed0 f   ai_tab.obj
 0001:00015070       _DontBlockAllies           20016070 f   ai_tab.obj
 0001:00015180       _TAB_BotBehave_VisualScan  20016180 f   ai_tab.obj
 0001:000151c0       _FindHeavyWeaponClass      200161c0 f   ai_tab.obj
 0001:00015270       _NumberofSiegeSpecificClass 20016270 f   ai_tab.obj
 0001:000152f0       _NumberofSiegeBasicClass   200162f0 f   ai_tab.obj
 0001:00015390       _SelectBestSiegeClass      20016390 f   ai_tab.obj
 0001:00015430       _DetermineCTFGoal          20016430 f   ai_tab.obj
 0001:000155e0       _ClosestItemforAmmo        200165e0 f   ai_tab.obj
 0001:00015810       _ClosestItemforWeapon      20016810 f   ai_tab.obj
 0001:00015990       _FavoriteWeapon            20016990 f   ai_tab.obj
 0001:00015b30       _ObjectiveStillActive      20016b30 f   ai_tab.obj
 0001:00015b90       _FindValidObjective        20016b90 f   ai_tab.obj
 0001:00015c10       _DetermineObjectiveType    20016c10 f   ai_tab.obj
 0001:00016150       _CapObjectiveIsCarried     20017150 f   ai_tab.obj
 0001:000161f0       _CapObjectiveCarrier       200171f0 f   ai_tab.obj
 0001:000162b0       _CarryingCapObjective      200172b0 f   ai_tab.obj
 0001:00016300       _FindGoalPointEnt          20017300 f   ai_tab.obj
 0001:00016360       _FindFlag                  20017360 f   ai_tab.obj
 0001:000163a0       _FindOrigin                200173a0 f   ai_tab.obj
 0001:000164b0       _FindAngles                200174b0 f   ai_tab.obj
 0001:00016510       _BotWeapon_Detpack         20017510 f   ai_tab.obj
 0001:00016640       _TAB_BotAimLeading         20017640 f   ai_tab.obj
 0001:000167a0       _TAB_ForcePowersThink      200177a0 f   ai_tab.obj
 0001:000168c0       _TryMoveAroundObsticle     200178c0 f   ai_tab.obj
 0001:00016b20       _TAB_BotSaberDuelChallenged 20017b20 f   ai_tab.obj
 0001:00016b90       _OJP_PassStandardEnemyChecks 20017b90 f   ai_tab.obj
 0001:00016d60       _AddOpenList               20017d60 f   ai_tab.obj
 0001:000170f0       _FindIdealPathtoWP         200180f0 f   ai_tab.obj
 0001:00017430       _TAB_TraceMove             20018430 f   ai_tab.obj
 0001:000177d0       _TAB_BotBehave_AttackBasic 200187d0 f   ai_tab.obj
 0001:00017b40       _TAB_EnemyVisualUpdate     20018b40 f   ai_tab.obj
 0001:00017cf0       _TAB_ScanforEnemies        20018cf0 f   ai_tab.obj
 0001:00018030       _SwitchSiegeIdealClass     20019030 f   ai_tab.obj
 0001:00018100       _ShouldSwitchSiegeClasses  20019100 f   ai_tab.obj
 0001:00018230       _TAB_WantWeapon            20019230 f   ai_tab.obj
 0001:000182c0       _TAB_WantAmmo              200192c0 f   ai_tab.obj
 0001:00018390       _TAB_HigherBotAI           20019390 f   ai_tab.obj
 0001:000184e0       _TAB_BotBehave_DefendBasic 200194e0 f   ai_tab.obj
 0001:000185d0       _AttackLocalBreakable      200195d0 f   ai_tab.obj
 0001:000187f0       _UseForceonLocal           200197f0 f   ai_tab.obj
 0001:00019060       _TAB_BotMove               2001a060 f   ai_tab.obj
 0001:00019790       _TAB_WPTouch               2001a790 f   ai_tab.obj
 0001:000198c0       _TAB_BotMoveto             2001a8c0 f   ai_tab.obj
 0001:00019c30       _TAB_BotBehave_AttackMove  2001ac30 f   ai_tab.obj
 0001:00019df0       _TAB_BotBehave_Attack      2001adf0 f   ai_tab.obj
 0001:00019ea0       _TAB_BotDefend             2001aea0 f   ai_tab.obj
 0001:0001a060       _objectiveType_Touch       2001b060 f   ai_tab.obj
 0001:0001a140       _objectiveType_Attack      2001b140 f   ai_tab.obj
 0001:0001a4e0       _TAB_BotGrabNearByItems    2001b4e0 f   ai_tab.obj
 0001:0001a620       _objectiveType_Capture     2001b620 f   ai_tab.obj
 0001:0001a7b0       _objectiveType_DefendCapture 2001b7b0 f   ai_tab.obj
 0001:0001a890       _objectiveType_Vehicle     2001b890 f   ai_tab.obj
 0001:0001a9f0       _TAB_BotResupply           2001b9f0 f   ai_tab.obj
 0001:0001aca0       _TAB_BotSearchAndDestroy   2001bca0 f   ai_tab.obj
 0001:0001ae30       _TAB_BotObjective          2001be30 f   ai_tab.obj
 0001:0001af80       _TAB_BotJediMaster         2001bf80 f   ai_tab.obj
 0001:0001b080       _TAB_BotSaberDuel          2001c080 f   ai_tab.obj
 0001:0001b280       _TAB_StandardBotAI         2001c280 f   ai_tab.obj
 0001:0001b920       _B_TempAlloc               2001c920 f   ai_util.obj
 0001:0001b930       _B_TempFree                2001c930 f   ai_util.obj
 0001:0001b940       _B_Alloc                   2001c940 f   ai_util.obj
 0001:0001b950       _B_InitAlloc               2001c950 f   ai_util.obj
 0001:0001b970       _GetValueGroup             2001c970 f   ai_util.obj
 0001:0001ba60       _GetPairedValue            2001ca60 f   ai_util.obj
 0001:0001bbb0       _BotDoChat                 2001cbb0 f   ai_util.obj
 0001:0001be80       _ParseEmotionalAttachments 2001ce80 f   ai_util.obj
 0001:0001bfc0       _ReadChatGroups            2001cfc0 f   ai_util.obj
 0001:0001c060       _BotUtilizePersonality     2001d060 f   ai_util.obj
 0001:0001c680       _FindBotType               2001d680 f   ai_util.obj
 0001:0001c6b0       _FindClosestHumanPlayer    2001d6b0 f   ai_util.obj
 0001:0001c760       _GetFlagStr                2001d760 f   ai_wpnav.obj
 0001:0001c9c0       _G_TestLine                2001d9c0 f   ai_wpnav.obj
 0001:0001ca10       _BotWaypointRender         2001da10 f   ai_wpnav.obj
 0001:0001cd50       _TransferWPData            2001dd50 f   ai_wpnav.obj
 0001:0001ce50       _CreateNewWP               2001de50 f   ai_wpnav.obj
 0001:0001cf80       _CreateNewWP_FromObject    2001df80 f   ai_wpnav.obj
 0001:0001d140       _RemoveWP                  2001e140 f   ai_wpnav.obj
 0001:0001d180       _RemoveWP_InTrail          2001e180 f   ai_wpnav.obj
 0001:0001d260       _CreateNewWP_InTrail       2001e260 f   ai_wpnav.obj
 0001:0001d400       _CreateNewWP_InsertUnder   2001e400 f   ai_wpnav.obj
 0001:0001d5a0       _TeleportToWP              2001e5a0 f   ai_wpnav.obj
 0001:0001d650       _WPFlagsModify             2001e650 f   ai_wpnav.obj
 0001:0001d690       _NodeHere                  2001e690 f   ai_wpnav.obj
 0001:0001d730       _CanGetToVectorTravel      2001e730 f   ai_wpnav.obj
 0001:0001db70       _ConnectTrail              2001eb70 f   ai_wpnav.obj
 0001:0001e960       _OpposingEnds              2001f960 f   ai_wpnav.obj
 0001:0001e9b0       _DoorBlockingSection       2001f9b0 f   ai_wpnav.obj
 0001:0001eaa0       _RepairPaths               2001faa0 f   ai_wpnav.obj
 0001:0001ec30       _CalculatePaths            2001fc30 f   ai_wpnav.obj
 0001:0001ee40       _CalculateSiegeGoals       2001fe40 f   ai_wpnav.obj
 0001:0001efb0       _GetNearestVisibleWPToItem 2001ffb0 f   ai_wpnav.obj
 0001:0001f100       _CalculateWeightGoals      20020100 f   ai_wpnav.obj
 0001:0001f360       _CalculateJumpRoutes       20020360 f   ai_wpnav.obj
 0001:0001f4c0       _LoadPathData              200204c0 f   ai_wpnav.obj
 0001:0001f8f0       _FlagObjects               200208f0 f   ai_wpnav.obj
 0001:0001fc30       _SavePathData              20020c30 f   ai_wpnav.obj
 0001:0001ff90       _G_NearestNodeToPoint      20020f90 f   ai_wpnav.obj
 0001:00020060       _G_NodeClearForNext        20021060 f   ai_wpnav.obj
 0001:00020090       _G_NodeClearFlags          20021090 f   ai_wpnav.obj
 0001:000200b0       _G_NodeMatchingXY          200210b0 f   ai_wpnav.obj
 0001:00020110       _G_NodeMatchingXY_BA       20021110 f   ai_wpnav.obj
 0001:000201a0       _G_RecursiveConnection     200211a0 f   ai_wpnav.obj
 0001:00020380       _G_BackwardAttachment      20021380 f   ai_wpnav.obj
 0001:000205b0       _G_RMGPathing              200215b0 f   ai_wpnav.obj
 0001:00020980       _BeginAutoPathRoutine      20021980 f   ai_wpnav.obj
 0001:00020b50       _LoadPath_ThisLevel        20021b50 f   ai_wpnav.obj
 0001:00020c80       _GetClosestSpawn           20021c80 f   ai_wpnav.obj
 0001:00020da0       _GetNextSpawnInIndex       20021da0 f   ai_wpnav.obj
 0001:00020e90       _UpdateEditorMode          20021e90 f   ai_wpnav.obj
 0001:00020eb0       _AcceptBotCommand          20021eb0 f   ai_wpnav.obj
 0001:00021e10       _G_SetAnimalVehicleFunctions 20022e10 f   AnimalNPC.obj
 0001:00021e60       _AOTCTC_Holocron_Add       20022e60 f   aotctc_holocron.obj
 0001:00021f00       _AOTCTC_Holocron_Loadpositions 20022f00 f   aotctc_holocron.obj
 0001:000220e0       _AOTCTC_Holocron_Savepositions 200230e0 f   aotctc_holocron.obj
 0001:00022230       _AOTCTC_Create_Holocron    20023230 f   aotctc_holocron.obj
 0001:000222b0       _AOTCTC_Create_Holocrons   200232b0 f   aotctc_holocron.obj
 0001:00022350       _BG_AttachToRancor         20023350 f   bg_g2_utils.obj
 0001:00022570       _BG_AttachToSandCreature   20023570 f   bg_g2_utils.obj
 0001:000226e0       _BG_GetRootSurfNameWithVariant 200236e0 f   bg_g2_utils.obj
 0001:000227e0       _BG_FileExists             200237e0 f   bg_misc.obj
 0001:00022820       _BG_ParseField             20023820 f   bg_misc.obj
 0001:000229b0       _BG_LegalizedForcePowers   200239b0 f   bg_misc.obj
 0001:00022eb0       _vectoyaw                  20023eb0 f   bg_misc.obj
 0001:00022f40       _BG_HasYsalamiri           20023f40 f   bg_misc.obj
 0001:00022f80       _BG_CanUseFPNow            20023f80 f   bg_misc.obj
 0001:00023070       _BG_FindItemForPowerup     20024070 f   bg_misc.obj
 0001:000230c0       _BG_FindItemForHoldable    200240c0 f   bg_misc.obj
 0001:00023110       _BG_FindItemForWeapon      20024110 f   bg_misc.obj
 0001:00023150       _BG_FindItemForAmmo        20024150 f   bg_misc.obj
 0001:00023190       _BG_FindItem               20024190 f   bg_misc.obj
 0001:000231d0       _BG_GetItemIndexByTag      200241d0 f   bg_misc.obj
 0001:00023210       _BG_IsItemSelectable       20024210 f   bg_misc.obj
 0001:00023230       _BG_CycleInven             20024230 f   bg_misc.obj
 0001:000232f0       _BG_CanItemBeGrabbed       200242f0 f   bg_misc.obj
 0001:00023650       _BG_EvaluateTrajectory     20024650 f   bg_misc.obj
 0001:00023860       _BG_EvaluateTrajectoryDelta 20024860 f   bg_misc.obj
 0001:00023a40       _BG_AddPredictableEventToPlayerstate 20024a40 f   bg_misc.obj
 0001:00023a80       _BG_TouchJumpPad           20024a80 f   bg_misc.obj
 0001:00023b00       _BG_EmplacedView           20024b00 f   bg_misc.obj
 0001:00023bf0       _BG_IsValidCharacterModel  20024bf0 f   bg_misc.obj
 0001:00023c60       _BG_ValidateSkinForTeam    20024c60 f   bg_misc.obj
 0001:00023e90       _BG_PlayerStateToEntityState 20024e90 f   bg_misc.obj
 0001:00024260       _BG_PlayerStateToEntityStateExtraPolate 20025260 f   bg_misc.obj
 0001:00024640       _BG_ModelCache             20025640 f   bg_misc.obj
 0001:00024690       _BG_Alloc                  20025690 f   bg_misc.obj
 0001:000246e0       _BG_TempAlloc              200256e0 f   bg_misc.obj
 0001:00024720       _BG_TempFree               20025720 f   bg_misc.obj
 0001:00024760       _BG_IsWhiteSpace           20025760 f   bg_misc.obj
 0001:00024780       _BG_PlayerTouchesItem      20025780 f   bg_misc.obj
 0001:00024830       _BG_CrouchAnim             20025830 f   bg_panimate.obj
 0001:00024950       _BG_InSaberStandAnim       20025950 f   bg_panimate.obj
 0001:00024980       _BG_InReboundJump          20025980 f   bg_panimate.obj
 0001:000249a0       _BG_InReboundHold          200259a0 f   bg_panimate.obj
 0001:000249c0       _BG_InBackFlip             200259c0 f   bg_panimate.obj
 0001:000249e0       _BG_SaberInAttackPure      200259e0 f   bg_panimate.obj
 0001:00024a00       _BG_SaberInAttack          20025a00 f   bg_panimate.obj
 0001:00024a20       _BG_SaberInKata            20025a20 f   bg_panimate.obj
 0001:00024a40       _BG_InKataAnim             20025a40 f   bg_panimate.obj
 0001:00024a60       _PM_LockedAnim             20025a60 f   bg_panimate.obj
 0001:00024ab0       _BG_SaberInSpecial         20025ab0 f   bg_panimate.obj
 0001:00024ad0       _BG_KickMove               20025ad0 f   bg_panimate.obj
 0001:00024af0       _BG_SaberInIdle            20025af0 f   bg_panimate.obj
 0001:00024b10       _BG_InExtraDefenseSaberMove 20025b10 f   bg_panimate.obj
 0001:00024b60       _BG_FlippingAnim           20025b60 f   bg_panimate.obj
 0001:00024c30       _BG_SpinningSaberAnim      20025c30 f   bg_panimate.obj
 0001:00024e90       _BG_SaberInSpecialAttack   20025e90 f   bg_panimate.obj
 0001:00024ff0       _BG_KickingAnim            20025ff0 f   bg_panimate.obj
 0001:00025050       _BG_InGrappleMove          20026050 f   bg_panimate.obj
 0001:000250a0       _BG_BrokenParryForAttack   200260a0 f   bg_panimate.obj
 0001:00025110       _BG_BrokenParryForParry    20026110 f   bg_panimate.obj
 0001:00025220       _BG_KnockawayForParry      20026220 f   bg_panimate.obj
 0001:00025270       _PM_InRollIgnoreTimer      20026270 f   bg_panimate.obj
 0001:000252f0       _BG_InRoll                 200262f0 f   bg_panimate.obj
 0001:00025380       _BG_InDeathAnim            20026380 f   bg_panimate.obj
 0001:000253c0       _BG_InKnockDownOnly        200263c0 f   bg_panimate.obj
 0001:000253e0       _BG_InSaberLockOld         200263e0 f   bg_panimate.obj
 0001:00025420       _BG_InSaberLock            20026420 f   bg_panimate.obj
 0001:000254e0       _PM_InCartwheel            200264e0 f   bg_panimate.obj
 0001:00025510       _PM_InAirKickingAnim       20026510 f   bg_panimate.obj
 0001:00025530       _BG_StabDownAnim           20026530 f   bg_panimate.obj
 0001:00025550       _PM_SaberBounceForAttack   20026550 f   bg_panimate.obj
 0001:000255c0       _PM_SaberDeflectionForQuad 200265c0 f   bg_panimate.obj
 0001:00025630       _PM_SaberInDeflect         20026630 f   bg_panimate.obj
 0001:00025650       _PM_SaberInParry           20026650 f   bg_panimate.obj
 0001:00025670       _PM_SaberInKnockaway       20026670 f   bg_panimate.obj
 0001:00025690       _PM_SaberInReflect         20026690 f   bg_panimate.obj
 0001:000256b0       _PM_SaberInStart           200266b0 f   bg_panimate.obj
 0001:000256d0       _BG_SaberInReturn          200266d0 f   bg_panimate.obj
 0001:000256d0       _PM_SaberInReturn          200266d0 f   bg_panimate.obj
 0001:000256f0       _PM_InSaberAnim            200266f0 f   bg_panimate.obj
 0001:00025710       _PM_InKnockDown            20026710 f   bg_panimate.obj
 0001:00025770       _PM_PainAnim               20026770 f   bg_panimate.obj
 0001:00025790       _PM_JumpingAnim            20026790 f   bg_panimate.obj
 0001:000257b0       _PM_LandingAnim            200267b0 f   bg_panimate.obj
 0001:00025800       _PM_SpinningAnim           20026800 f   bg_panimate.obj
 0001:00025810       _PM_InOnGroundAnim         20026810 f   bg_panimate.obj
 0001:00025850       _PM_InRollComplete         20026850 f   bg_panimate.obj
 0001:00025880       _PM_CanRollFromSoulCal     20026880 f   bg_panimate.obj
 0001:000258b0       _BG_SuperBreakLoseAnim     200268b0 f   bg_panimate.obj
 0001:00025940       _BG_SuperBreakWinAnim      20026940 f   bg_panimate.obj
 0001:000259d0       _BG_SaberLockBreakAnim     200269d0 f   bg_panimate.obj
 0001:00025a90       _BG_FullBodyTauntAnim      20026a90 f   bg_panimate.obj
 0001:00025ad0       _BG_AnimLength             20026ad0 f   bg_panimate.obj
 0001:00025b20       _PM_AnimLength             20026b20 f   bg_panimate.obj
 0001:00025b90       _PM_SaberInTransition      20026b90 f   bg_panimate.obj
 0001:00025bb0       _BG_SaberInTransitionAny   20026bb0 f   bg_panimate.obj
 0001:00025be0       _BG_InitAnimsets           20026be0 f   bg_panimate.obj
 0001:00025c00       _BG_AnimsetAlloc           20026c00 f   bg_panimate.obj
 0001:00025c30       _BG_ParseAnimationFile     20026c30 f   bg_panimate.obj
 0001:00025fa0       _PM_ContinueLegsAnim       20026fa0 f   bg_panimate.obj
 0001:00025fd0       _BG_StartTorsoAnim         20026fd0 f   bg_panimate.obj
 0001:00026010       _PM_StartTorsoAnim         20027010 f   bg_panimate.obj
 0001:00026050       _BG_SetLegsAnimTimer       20027050 f   bg_panimate.obj
 0001:00026120       _BG_SetTorsoAnimTimer      20027120 f   bg_panimate.obj
 0001:000261f0       _BG_SaberStartTransAnim    200271f0 f   bg_panimate.obj
 0001:000262f0       _BG_SetAnimFinal           200272f0 f   bg_panimate.obj
 0001:000265b0       _BG_HasAnimation           200275b0 f   bg_panimate.obj
 0001:00026600       _BG_PickAnim               20027600 f   bg_panimate.obj
 0001:00026670       _BG_SetAnim                20027670 f   bg_panimate.obj
 0001:000267a0       _PM_SetAnim                200277a0 f   bg_panimate.obj
 0001:000267d0       _BG_InSpecialJump          200277d0 f   bg_panimate.obj
 0001:000268d0       _BG_InKnockDownOnGround    200278d0 f   bg_panimate.obj
 0001:00026960       _PM_ForceLegsAnim          20027960 f   bg_panimate.obj
 0001:00026a10       _PM_BGEntForNum            20027a10 f   bg_pmove.obj
 0001:00026a40       _BG_SabersOff              20027a40 f   bg_pmove.obj
 0001:00026a70       _BG_KnockDownable          20027a70 f   bg_pmove.obj
 0001:00026aa0       _PM_GetSaberStance         20027aa0 f   bg_pmove.obj
 0001:00026b90       _PM_pitch_roll_for_slope   20027b90 f   bg_pmove.obj
 0001:00026ec0       _PM_SetSpecialMoveValues   20027ec0 f   bg_pmove.obj
 0001:00027370       _BG_VehicleTurnRateForSpeed 20028370 f   bg_pmove.obj
 0001:00027530       _PM_AddEvent               20028530 f   bg_pmove.obj
 0001:00027550       _PM_AddEventWithParm       20028550 f   bg_pmove.obj
 0001:00027570       _PM_AddTouchEnt            20028570 f   bg_pmove.obj
 0001:000275c0       _PM_ClipVelocity           200285c0 f   bg_pmove.obj
 0001:00027c70       _PM_ForceJumpingUp         20028c70 f   bg_pmove.obj
 0001:00027dc0       _PM_SetPMViewAngle         20028dc0 f   bg_pmove.obj
 0001:00027e30       _PM_AdjustAngleForWallRun  20028e30 f   bg_pmove.obj
 0001:00028220       _PM_AdjustAngleForWallRunUp 20029220 f   bg_pmove.obj
 0001:00028630       _PM_AdjustAngleForWallJump 20029630 f   bg_pmove.obj
 0001:00028a70       _PM_SetForceJumpZStart     20029a70 f   bg_pmove.obj
 0001:00028ab0       _PM_GrabWallForJump        20029ab0 f   bg_pmove.obj
 0001:0002cda0       _PM_CheckDualForwardJumpDuck 2002dda0 f   bg_pmove.obj
 0001:0002ce30       _PM_CheckFixMins           2002de30 f   bg_pmove.obj
 0001:0002d450       _PM_Use                    2002e450 f   bg_pmove.obj
 0001:0002d4b0       _PM_WalkingAnim            2002e4b0 f   bg_pmove.obj
 0001:0002d510       _PM_RunningAnim            2002e510 f   bg_pmove.obj
 0001:0002d560       _PM_SwimmingAnim           2002e560 f   bg_pmove.obj
 0001:0002d580       _PM_RollingAnim            2002e580 f   bg_pmove.obj
 0001:0002d5a0       _PM_FootSlopeTrace         2002e5a0 f   bg_pmove.obj
 0001:0002d7c0       _BG_InSlopeAnim            2002e7c0 f   bg_pmove.obj
 0001:0002d7e0       _PM_AdjustStandAnimForSlope 2002e7e0 f   bg_pmove.obj
 0001:0002dcc0       _PM_LegsSlopeBackTransition 2002ecc0 f   bg_pmove.obj
 0001:0002ecb0       _BG_ClearRocketLock        2002fcb0 f   bg_pmove.obj
 0001:0002ece0       _PM_BeginWeaponChange      2002fce0 f   bg_pmove.obj
 0001:0002ed90       _PM_FinishWeaponChange     2002fd90 f   bg_pmove.obj
 0001:0002ee10       _BG_VehTraceFromCamPos     2002fe10 f   bg_pmove.obj
 0001:0002eff0       _PM_RocketLock             2002fff0 f   bg_pmove.obj
 0001:0002f900       _PM_VehicleWeaponAnimate   20030900 f   bg_pmove.obj
 0001:00031310       _BG_UnrestrainedPitchRoll  20032310 f   bg_pmove.obj
 0001:00031350       _PM_UpdateViewAngles       20032350 f   bg_pmove.obj
 0001:00031440       _PM_AdjustAttackStates     20032440 f   bg_pmove.obj
 0001:00031710       _BG_CmdForRoll             20032710 f   bg_pmove.obj
 0001:00031920       _BG_AdjustClientSpeed      20032920 f   bg_pmove.obj
 0001:00031c80       _BG_InRollAnim             20032c80 f   bg_pmove.obj
 0001:00031ca0       _BG_InKnockDown            20032ca0 f   bg_pmove.obj
 0001:00031cf0       _BG_InRollES               20032cf0 f   bg_pmove.obj
 0001:00031d10       _BG_IK_MoveArm             20032d10 f   bg_pmove.obj
 0001:000321d0       _BG_ClassHasBadBones       200331d0 f   bg_pmove.obj
 0001:00032210       _BG_BoneOrientationsForClass 20033210 f   bg_pmove.obj
 0001:00032360       _BG_UpdateLookAngles       20033360 f   bg_pmove.obj
 0001:00032fa0       _BG_InRoll2                20033fa0 f   bg_pmove.obj
 0001:00033030       _BG_G2PlayerAngles         20034030 f   bg_pmove.obj
 0001:00033d20       _BG_G2ATSTAngles           20034d20 f   bg_pmove.obj
 0001:00034080       _PM_VehicleViewAngles      20035080 f   bg_pmove.obj
 0001:00034280       _PM_WeaponOkOnVehicle      20035280 f   bg_pmove.obj
 0001:000342a0       _PM_GetOkWeaponForVehicle  200352a0 f   bg_pmove.obj
 0001:000342e0       _PM_VehForcedTurning       200352e0 f   bg_pmove.obj
 0001:00034480       _PM_VehFaceHyperspacePoint 20035480 f   bg_pmove.obj
 0001:00034740       _BG_VehicleAdjustBBoxForOrientation 20035740 f   bg_pmove.obj
 0001:00034c70       _PM_MoveForKata            20035c70 f   bg_pmove.obj
 0001:00034dc0       _PM_HoverTrace             20035dc0 f   bg_pmove.obj
 0001:000352a0       _PmoveSingle               200362a0 f   bg_pmove.obj
 0001:000367b0       _Pmove                     200377b0 f   bg_pmove.obj
 0001:00036860       _PM_irand_timesync         20037860 f   bg_saber.obj
 0001:000368b0       _BG_ForcePowerDrain        200378b0 f   bg_saber.obj
 0001:000369a0       _BG_EnoughForcePowerForMove 200379a0 f   bg_saber.obj
 0001:000369d0       _PM_SaberMoveQuadrantForMovement 200379d0 f   bg_saber.obj
 0001:00036a30       _PM_SaberInBounce          20037a30 f   bg_saber.obj
 0001:00036a60       _PM_SaberAttackChainAngle  20037a60 f   bg_saber.obj
 0001:00036aa0       _PM_SaberKataDone          20037aa0 f   bg_saber.obj
 0001:00036bf0       _PM_SaberLockWinAnim       20037bf0 f   bg_saber.obj
 0001:00036d60       _PM_SaberLockLoseAnim      20037d60 f   bg_saber.obj
 0001:00036e50       _PM_SaberLockResultAnim    20037e50 f   bg_saber.obj
 0001:00036f30       _PM_SaberLockBreak         20037f30 f   bg_saber.obj
 0001:00037260       _BG_CheckIncrementLockAnim 20038260 f   bg_saber.obj
 0001:00037310       _PM_SaberLocked            20038310 f   bg_saber.obj
 0001:00037670       _PM_SaberInBrokenParry     20038670 f   bg_saber.obj
 0001:000376a0       _PM_BrokenParryForParry    200386a0 f   bg_saber.obj
 0001:000377a0       _PM_CanBackstab            200387a0 f   bg_saber.obj
 0001:000378d0       _PM_JMCanBackstab          200388d0 f   bg_saber.obj
 0001:000379e0       _PM_CanLunge               200389e0 f   bg_saber.obj
 0001:00037af0       _PM_JMCanLunge             20038af0 f   bg_saber.obj
 0001:00037c00       _PM_GroundDistance         20038c00 f   bg_saber.obj
 0001:00037cc0       _PM_WalkableGroundDistance 20038cc0 f   bg_saber.obj
 0001:00037d90       _PM_KickMoveForConditions  20038d90 f   bg_saber.obj
 0001:00037dd0       _PM_SaberPowerCheck        20038dd0 f   bg_saber.obj
 0001:00037e20       _PM_SaberDroidWeapon       20038e20 f   bg_saber.obj
 0001:00037fe0       _BG_MySaber                20038fe0 f   bg_saber.obj
 0001:00038030       _PM_SaberAnimTransitionAnim 20039030 f   bg_saber.obj
 0001:000381b0       _PM_CheckStabDown          200391b0 f   bg_saber.obj
 0001:000383a0       _PM_SaberFlipOverAttackMove 200393a0 f   bg_saber.obj
 0001:00038510       _PM_SaberBackflipAttackMove 20039510 f   bg_saber.obj
 0001:000385f0       _PM_SaberLungeAttackMove   200395f0 f   bg_saber.obj
 0001:00038760       _PM_SaberJumpAttackMove2   20039760 f   bg_saber.obj
 0001:00038840       _PM_SaberJumpAttackMove    20039840 f   bg_saber.obj
 0001:00038a60       _PM_SaberAttackForMovement 20039a60 f   bg_saber.obj
 0001:00039ad0       _PM_CanDoKata              2003aad0 f   bg_saber.obj
 0001:00039c00       _PM_CheckAltKickAttack     2003ac00 f   bg_saber.obj
 0001:00039cc0       _PM_CanDoRollStab          2003acc0 f   bg_saber.obj
 0001:00039d40       _PM_SetSaberMove           2003ad40 f   bg_saber.obj
 0001:0003a4a0       _PM_WeaponLightsaber       2003b4a0 f   bg_saber.obj
 0001:0003b590       _BG_ParseLiteral           2003c590 f   bg_saberLoad.obj
 0001:0003b5f0       _TranslateSaberColor       2003c5f0 f   bg_saberLoad.obj
 0001:0003b6b0       _TranslateSaberStyle       2003c6b0 f   bg_saberLoad.obj
 0001:0003b770       _WP_SaberBladeUseSecondBladeStyle 2003c770 f   bg_saberLoad.obj
 0001:0003b7a0       _WP_SaberBladeDoTransitionDamage 2003c7a0 f   bg_saberLoad.obj
 0001:0003b7f0       _WP_UseFirstValidSaberStyle 2003c7f0 f   bg_saberLoad.obj
 0001:0003b920       _WP_SaberStyleValidForSaber 2003c920 f   bg_saberLoad.obj
 0001:0003ba40       _WP_SaberCanTurnOffSomeBlades 2003ca40 f   bg_saberLoad.obj
 0001:0003ba80       _WP_SaberSetDefaults       2003ca80 f   bg_saberLoad.obj
 0001:0003bdc0       _WP_SaberParseParms        2003cdc0 f   bg_saberLoad.obj
 0001:0003e3d0       _WP_SaberParseParm         2003f3d0 f   bg_saberLoad.obj
 0001:0003e510       _WP_SaberValidForPlayerInMP 2003f510 f   bg_saberLoad.obj
 0001:0003e570       _WP_SaberLoadParms         2003f570 f   bg_saberLoad.obj
 0001:0003e6c0       _BG_SI_Deactivate          2003f6c0 f   bg_saberLoad.obj
 0001:0003e700       _WP_RemoveSaber            2003f700 f   bg_saberLoad.obj
 0001:0003e770       _WP_SetSaber               2003f770 f   bg_saberLoad.obj
 0001:0003e830       _BG_SiegeStripTabs         2003f830 f   bg_saga.obj
 0001:0003e870       _BG_SiegeGetValueGroup     2003f870 f   bg_saga.obj
 0001:0003ebc0       _BG_SiegeGetPairedValue    2003fbc0 f   bg_saga.obj
 0001:0003ee40       _BG_SiegeTranslateForcePowers 2003fe40 f   bg_saga.obj
 0001:0003f030       _BG_SiegeTranslateGenericTable 20040030 f   bg_saga.obj
 0001:0003f130       _BG_SiegeParseClassFile    20040130 f   bg_saga.obj
 0001:0003f9e0       _BG_SiegeLoadClasses       200409e0 f   bg_saga.obj
 0001:0003fb00       _BG_SiegeFindClassByName   20040b00 f   bg_saga.obj
 0001:0003fb50       _BG_SiegeParseTeamFile     20040b50 f   bg_saga.obj
 0001:0003fd50       _BG_SiegeLoadTeams         20040d50 f   bg_saga.obj
 0001:0003fe50       _BG_SiegeFindThemeForTeam  20040e50 f   bg_saga.obj
 0001:0003fe80       _BG_PrecacheSabersForSiegeTeam 20040e80 f   bg_saga.obj
 0001:0003ff60       _BG_SiegeCheckClassLegality 20040f60 f   bg_saga.obj
 0001:0003fff0       _BG_SiegeFindTeamForTheme  20040ff0 f   bg_saga.obj
 0001:00040040       _BG_SiegeSetTeamTheme      20041040 f   bg_saga.obj
 0001:00040070       _BG_SiegeFindClassIndexByName 20041070 f   bg_saga.obj
 0001:000400c0       _BG_GetClassOnBaseClass    200410c0 f   bg_saga.obj
 0001:00040140       _PM_VehicleImpact          20041140 f   bg_slidemove.obj
 0001:00040f30       _PM_GroundSlideOkay        20041f30 f   bg_slidemove.obj
 0001:00040fb0       _PM_ClientImpact           20041fb0 f   bg_slidemove.obj
 0001:00041060       _PM_SlideMove              20042060 f   bg_slidemove.obj
 0001:00041840       _PM_StepSlideMove          20042840 f   bg_slidemove.obj
 0001:000420b0       _VEH_LoadVehWeapon         200430b0 f   bg_vehicleLoad.obj
 0001:00042270       _VEH_VehWeaponIndexForName 20043270 f   bg_vehicleLoad.obj
 0001:00042310       _BG_SetSharedVehicleFunctions 20043310 f   bg_vehicleLoad.obj
 0001:00042370       _BG_VehicleSetDefaults     20043370 f   bg_vehicleLoad.obj
 0001:000423e0       _BG_VehicleClampData       200433e0 f   bg_vehicleLoad.obj
 0001:00042700       _BG_VehWeaponLoadParms     20043700 f   bg_vehicleLoad.obj
 0001:000428a0       _BG_VehicleUnloadParms     200438a0 f   bg_vehicleLoad.obj
 0001:000428c0       _BG_VehicleLoadParms       200438c0 f   bg_vehicleLoad.obj
 0001:00042bf0       _AttachRidersGeneric       20043bf0 f   bg_vehicleLoad.obj
 0001:00042ca0       _VEH_LoadVehicle           20043ca0 f   bg_vehicleLoad.obj
 0001:00043450       _VEH_VehicleIndexForName   20044450 f   bg_vehicleLoad.obj
 0001:000434f0       _BG_VehicleGetIndex        200444f0 f   bg_vehicleLoad.obj
 0001:00043500       _BG_GetVehicleModelName    20044500 f   bg_vehicleLoad.obj
 0001:00043590       _BG_GetNextValueGroup      20044590 f   bg_weaponsdat.obj
 0001:00043640       _BG_LoadWeaponsData        20044640 f   bg_weaponsdat.obj
 0001:000439b0       _BG_FighterUpdate          200449b0 f   FighterNPC.obj
 0001:00043c00       _FighterIsInSpace          20044c00 f   FighterNPC.obj
 0001:00043c30       _FighterOverValidLandingSurface 20044c30 f   FighterNPC.obj
 0001:00043c60       _FighterIsLanded           20044c60 f   FighterNPC.obj
 0001:00043ca0       _FighterIsLanding          20044ca0 f   FighterNPC.obj
 0001:00043d10       _FighterIsLaunching        20044d10 f   FighterNPC.obj
 0001:00043d80       _FighterSuspended          20044d80 f   FighterNPC.obj
 0001:00044dd0       _FighterYawAdjust          20045dd0 f   FighterNPC.obj
 0001:00044ed0       _FighterPitchAdjust        20045ed0 f   FighterNPC.obj
 0001:000459c0       _G_SetFighterVehicleFunctions 200469c0 f   FighterNPC.obj
 0001:00045a10       _P_DamageFeedback          20046a10 f   g_active.obj
 0001:00045be0       _P_WorldEffects            20046be0 f   g_active.obj
 0001:00045d90       _DoImpact                  20046d90 f   g_active.obj
 0001:000461f0       _Client_CheckImpactBBrush  200471f0 f   g_active.obj
 0001:00046290       _G_SetClientSound          20047290 f   g_active.obj
 0001:00046340       _ClientImpacts             20047340 f   g_active.obj
 0001:000463f0       _G_TouchTriggers           200473f0 f   g_active.obj
 0001:00046600       _G_MoverTouchPushTriggers  20047600 f   g_active.obj
 0001:000468c0       _SpectatorThink            200478c0 f   g_active.obj
 0001:00046a30       _ClientInactivityTimer     20047a30 f   g_active.obj
 0001:00046b40       _ClientTimerActions        20047b40 f   g_active.obj
 0001:00046bc0       _ClientIntermissionThink   20047bc0 f   g_active.obj
 0001:00046c00       _G_CheapWeaponFire         20047c00 f   g_active.obj
 0001:00046d20       _ClientEvents              20047d20 f   g_active.obj
 0001:00046f90       _SendPendingPredictableEvents 20047f90 f   g_active.obj
 0001:00047280       _G_UpdateClientBroadcasts  20048280 f   g_active.obj
 0001:000472b0       _G_AddPushVecToUcmd        200482b0 f   g_active.obj
 0001:000474a0       _G_StandingAnim            200484a0 f   g_active.obj
 0001:000474e0       _G_ActionButtonPressed     200484e0 f   g_active.obj
 0001:00047520       _G_CheckClientIdle         20048520 f   g_active.obj
 0001:000479a0       _NPC_Accelerate            200489a0 f   g_active.obj
 0001:00047b90       _G_CheckMovingLoopingSounds 20048b90 f   g_active.obj
 0001:00047d30       _G_HeldByMonster           20048d30 f   g_active.obj
 0001:00047ea0       _G_SetTauntAnim            20048ea0 f   g_active.obj
 0001:00048430       _G_CheckClientTimeouts     20049430 f   g_active.obj
 0001:00048480       _ClientThink               20049480 f   g_active.obj
 0001:00048510       _SpectatorClientEndFrame   20049510 f   g_active.obj
 0001:00048610       _ClientEndFrame            20049610 f   g_active.obj
 0001:000487d0       _ClientThink_real          200497d0 f   g_active.obj
 0001:0004b560       _G_RunClient               2004c560 f   g_active.obj
 0001:0004b5a0       _Touch_Autosave            2004c5a0 f   g_autosave.obj
 0001:0004b5e0       _SpawnPointRender          2004c5e0 f   g_autosave.obj
 0001:0004b670       _AutosaveRender            2004c670 f   g_autosave.obj
 0001:0004b740       _Create_Autosave           2004c740 f   g_autosave.obj
 0001:0004b810       _Load_Autosaves            2004c810 f   g_autosave.obj
 0001:0004b960       _Save_Autosaves            2004c960 f   g_autosave.obj
 0001:0004bba0       _Delete_Autosaves          2004cba0 f   g_autosave.obj
 0001:0004bcf0       _trap_Cvar_VariableValue   2004ccf0 f   g_bot.obj
 0001:0004bd30       _G_ParseInfos              2004cd30 f   g_bot.obj
 0001:0004bfc0       _G_GetMapTypeBits          2004cfc0 f   g_bot.obj
 0001:0004c0c0       _G_DoesMapSupportGametype  2004d0c0 f   g_bot.obj
 0001:0004c160       _G_RefreshNextMap          2004d160 f   g_bot.obj
 0001:0004c290       _G_LoadArenas              2004d290 f   g_bot.obj
 0001:0004c4c0       _G_GetArenaInfoByMap       2004d4c0 f   g_bot.obj
 0001:0004c510       _G_AddRandomBot            2004d510 f   g_bot.obj
 0001:0004c820       _G_RemoveRandomBot         2004d820 f   g_bot.obj
 0001:0004c8f0       _G_CountHumanPlayers       2004d8f0 f   g_bot.obj
 0001:0004c970       _G_CountBotPlayers         2004d970 f   g_bot.obj
 0001:0004ca30       _G_CheckMinimumPlayers     2004da30 f   g_bot.obj
 0001:0004cdd0       _G_CheckBotSpawn           2004ddd0 f   g_bot.obj
 0001:0004ce60       _G_RemoveQueuedBotBegin    2004de60 f   g_bot.obj
 0001:0004ce90       _G_BotConnect              2004de90 f   g_bot.obj
 0001:0004cf90       _Svcmd_BotList_f           2004df90 f   g_bot.obj
 0001:0004d350       _G_GetBotInfoByName        2004e350 f   g_bot.obj
 0001:0004d3a0       _G_InitBots                2004e3a0 f   g_bot.obj
 0001:0004da40       _Svcmd_AddBot_f            2004ea40 f   g_bot.obj
 0001:0004dbc0       _misc_model_breakable_die  2004ebc0 f   g_breakable.obj
 0001:0004e090       _misc_model_throw_at_target4 2004f090 f   g_breakable.obj
 0001:0004e290       _misc_model_use            2004f290 f   g_breakable.obj
 0001:0004e360       _misc_model_breakable_pain 2004f360 f   g_breakable.obj
 0001:0004e3a0       _misc_model_breakable_init 2004f3a0 f   g_breakable.obj
 0001:0004e490       _misc_model_breakable_gravity_init 2004f490 f   g_breakable.obj
 0001:0004e730       _SP_misc_model_breakable   2004f730 f   g_breakable.obj
 0001:0004ec50       _GCam_FollowUpdate         2004fc50 f   g_camera.obj
 0001:0004efe0       _GCam_Move                 2004ffe0 f   g_camera.obj
 0001:0004f0a0       _GCam_Follow               200500a0 f   g_camera.obj
 0001:0004f140       _GCam_Enable               20050140 f   g_camera.obj
 0001:0004f1b0       _GCam_Pan                  200501b0 f   g_camera.obj
 0001:0004f3a0       _EnablePlayerCameraPos     200503a0 f   g_camera.obj
 0001:0004f5c0       _DisablePlayerCameraPos    200505c0 f   g_camera.obj
 0001:0004f6c0       _UpdatePlayerCameraOrigin  200506c0 f   g_camera.obj
 0001:0004f730       _UpdatePlayerCameraAngle   20050730 f   g_camera.obj
 0001:0004f7a0       _GCam_Update               200507a0 f   g_camera.obj
 0001:0004fab0       _GCam_Disable              20050ab0 f   g_camera.obj
 0001:0004fb00       _UpdatePlayerCameraPos     20050b00 f   g_camera.obj
 0001:0004fbc0       _SP_info_player_duel1      20050bc0 f   g_client.obj
 0001:0004fbc0       _SP_info_player_duel       20050bc0 f   g_client.obj
 0001:0004fbc0       _SP_info_player_duel2      20050bc0 f   g_client.obj
 0001:0004fc20       _SP_info_player_deathmatch 20050c20 f   g_client.obj
 0001:0004fc90       _SP_info_player_start      20050c90 f   g_client.obj
 0001:0004fcb0       _SP_info_player_start_blue 20050cb0 f   g_client.obj
 0001:0004fcb0       _SP_info_player_start_red  20050cb0 f   g_client.obj
 0001:0004fcc0       _SiegePointUse             20050cc0 f   g_client.obj
 0001:0004fce0       _SP_info_player_siegeteam1 20050ce0 f   g_client.obj
 0001:0004fce0       _SP_info_player_siegeteam2 20050ce0 f   g_client.obj
 0001:0004fd40       _ThrowSaberToAttacker      20050d40 f   g_client.obj
 0001:00050000       _JMSaberThink              20051000 f   g_client.obj
 0001:00050170       _JMSaberTouch              20051170 f   g_client.obj
 0001:00050410       _SP_info_jedimaster_start  20051410 f   g_client.obj
 0001:00050520       _SpotWouldTelefrag         20051520 f   g_client.obj
 0001:000505d0       _SpotWouldTelefrag2        200515d0 f   g_client.obj
 0001:000506a0       _SelectRandomDeathmatchSpawnPoint 200516a0 f   g_client.obj
 0001:00050730       _SelectRandomFurthestSpawnPoint 20051730 f   g_client.obj
 0001:00050c20       _SelectDuelSpawnPoint      20051c20 f   g_client.obj
 0001:00050f60       _SelectSpawnPoint          20051f60 f   g_client.obj
 0001:00050f70       _SelectInitialSpawnPoint   20051f70 f   g_client.obj
 0001:00051020       _BodySink                  20052020 f   g_client.obj
 0001:000513f0       _SetClientViewAngle        200523f0 f   g_client.obj
 0001:000514b0       _MaintainBodyQueue         200524b0 f   g_client.obj
 0001:00051540       _TeamCount                 20052540 f   g_client.obj
 0001:000515b0       _TeamLeader                200525b0 f   g_client.obj
 0001:00051600       _PickTeam                  20052600 f   g_client.obj
 0001:00051740       _G_SaberModelSetup         20052740 f   g_client.obj
 0001:000518e0       _SetupGameGhoul2Model      200528e0 f   g_client.obj
 0001:00052360       _ClientUserinfoChanged     20053360 f   g_client.obj
 0001:00052e70       _ClientConnect             20053e70 f   g_client.obj
 0001:000531e0       _AllForceDisabled          200541e0 f   g_client.obj
 0001:00053210       _G_BreakArm                20054210 f   g_client.obj
 0001:00053320       _G_UpdateClientAnims       20054320 f   g_client.obj
 0001:00053760       _ClientDisconnect          20054760 f   g_client.obj
 0001:00053aa0       _FindYoungestPlayeronTeam  20054aa0 f   g_client.obj
 0001:00053b60       _CheckTeamBotBalance       20054b60 f   g_client.obj
 0001:00053c60       _CheckTeamBalance          20054c60 f   g_client.obj
 0001:00053e10       _G_StandardHumanoid        20054e10 f   g_client.obj
 0001:00053ef0       _OJP_AllPlayersHaveClientPlugin 20054ef0 f   g_client.obj
 0001:00053f30       _ClientSpawn               20054f30 f   g_client.obj
 0001:00055690       _respawn                   20056690 f   g_client.obj
 0001:00055840       _ClientBegin               20056840 f   g_client.obj
 0001:00055e10       _DeathmatchScoreboardMessage 20056e10 f   g_cmds.obj
 0001:00056010       _Cmd_Score_f               20057010 f   g_cmds.obj
 0001:00056020       _CheatsOk                  20057020 f   g_cmds.obj
 0001:000560c0       _ConcatArgs                200570c0 f   g_cmds.obj
 0001:00056180       _SanitizeString            20057180 f   g_cmds.obj
 0001:000561d0       _ClientNumberFromString    200571d0 f   g_cmds.obj
 0001:00056370       _Cmd_Give_f                20057370 f   g_cmds.obj
 0001:00056820       _Cmd_God_f                 20057820 f   g_cmds.obj
 0001:00056880       _Cmd_Notarget_f            20057880 f   g_cmds.obj
 0001:000568e0       _Cmd_Noclip_f              200578e0 f   g_cmds.obj
 0001:00056960       _Cmd_LevelShot_f           20057960 f   g_cmds.obj
 0001:000569d0       _Cmd_TeamTask_f            200579d0 f   g_cmds.obj
 0001:00056a70       _G_CheckTKAutoKickBan      20057a70 f   g_cmds.obj
 0001:00056bd0       _Cmd_Kill_f                20057bd0 f   g_cmds.obj
 0001:00056e10       _BroadcastTeamChange       20057e10 f   g_cmds.obj
 0001:00056f30       _G_PowerDuelCheckFail      20057f30 f   g_cmds.obj
 0001:00056fa0       _SetTeam                   20057fa0 f   g_cmds.obj
 0001:000574c0       _Cmd_Team_f                200584c0 f   g_cmds.obj
 0001:000576a0       _Cmd_DuelTeam_f            200586a0 f   g_cmds.obj
 0001:00057920       _G_TeamForSiegeClass       20058920 f   g_cmds.obj
 0001:000579a0       _Cmd_SiegeClass_f          200589a0 f   g_cmds.obj
 0001:00057bd0       _Cmd_ForceChanged_f        20058bd0 f   g_cmds.obj
 0001:00057cb0       _G_SetSaber                20058cb0 f   g_cmds.obj
 0001:00057eb0       _Cmd_FollowCycle_f         20058eb0 f   g_cmds.obj
 0001:000580b0       _BotOrderParser            200590b0 f   g_cmds.obj
 0001:00058360       _G_Say                     20059360 f   g_cmds.obj
 0001:00058860       _Cmd_GameCommand_f         20059860 f   g_cmds.obj
 0001:00058900       _Cmd_Where_f               20059900 f   g_cmds.obj
 0001:00058990       _G_ClientNumberFromName    20059990 f   g_cmds.obj
 0001:00058a40       _SanitizeString2           20059a40 f   g_cmds.obj
 0001:00058aa0       _G_ClientNumberFromStrippedName 20059aa0 f   g_cmds.obj
 0001:00058b40       _Cmd_CallTeamVote_f        20059b40 f   g_cmds.obj
 0001:000591f0       _Cmd_TeamVote_f            2005a1f0 f   g_cmds.obj
 0001:00059390       _Cmd_SetViewpos_f          2005a390 f   g_cmds.obj
 0001:000594b0       _G_LeaveVehicle            2005a4b0 f   g_cmds.obj
 0001:00059580       _G_ItemUsable              2005a580 f   g_cmds.obj
 0001:00059950       _Cmd_ToggleSaber_f         2005a950 f   g_cmds.obj
 0001:00059b20       _Cmd_SaberAttackCycle_f    2005ab20 f   g_cmds.obj
 0001:00059f80       _G_OtherPlayersDueling     2005af80 f   g_cmds.obj
 0001:00059fc0       _Cmd_EngageDuel_f          2005afc0 f   g_cmds.obj
 0001:0005a540       _TryGrapple                2005b540 f   g_cmds.obj
 0001:0005a620       _StopFollowing             2005b620 f   g_cmds.obj
 0001:0005a760       _Cmd_Follow_f              2005b760 f   g_cmds.obj
 0001:0005a870       _Cmd_CallVote_f            2005b870 f   g_cmds.obj
 0001:0005b200       _Cmd_Vote_f                2005c200 f   g_cmds.obj
 0001:0005b3c0       _ClientCommand             2005c3c0 f   g_cmds.obj
 0001:0005c230       _ObjectDie                 2005d230 f   g_combat.obj
 0001:0005c260       _G_HeavyMelee              2005d260 f   g_combat.obj
 0001:0005c2a0       _G_GetHitLocation          2005d2a0 f   g_combat.obj
 0001:0005c720       _AddScore                  2005d720 f   g_combat.obj
 0001:0005c780       _TossClientWeapon          2005d780 f   g_combat.obj
 0001:0005c970       _TossClientItems           2005d970 f   g_combat.obj
 0001:0005cc70       _BodyRid                   2005dc70 f   g_combat.obj
 0001:0005cc90       _body_die                  2005dc90 f   g_combat.obj
 0001:0005cdf0       _G_InKnockDown             2005ddf0 f   g_combat.obj
 0001:0005d5d0       _G_GetJediMaster           2005e5d0 f   g_combat.obj
 0001:0005d620       _G_AlertTeam               2005e620 f   g_combat.obj
 0001:0005d820       _DeathFX                   2005e820 f   g_combat.obj
 0001:0005dd20       _G_CheckVictoryScript      2005ed20 f   g_combat.obj
 0001:0005de40       _G_AddPowerDuelScore       2005ee40 f   g_combat.obj
 0001:0005deb0       _G_AddPowerDuelLoserScore  2005eeb0 f   g_combat.obj
 0001:0005df20       _G_BroadcastObit           2005ef20 f   g_combat.obj
 0001:0005e040       _CheckArmor                2005f040 f   g_combat.obj
 0001:0005e210       _G_Throw                   2005f210 f   g_utils.obj
 0001:0005e210       _G_ApplyKnockback          2005f210 f   g_combat.obj
 0001:0005e3b0       _G_GetDismemberLoc         2005f3b0 f   g_combat.obj
 0001:0005e670       _G_GetDismemberBolt        2005f670 f   g_combat.obj
 0001:0005e980       _LimbThink                 2005f980 f   g_combat.obj
 0001:0005ea60       _G_Dismember               2005fa60 f   g_combat.obj
 0001:0005f150       _G_GetHitQuad              20060150 f   g_combat.obj
 0001:0005f2d0       _G_GetHitLocFromSurfName   200602d0 f   g_combat.obj
 0001:000601e0       _G_CheckForDismemberment   200611e0 f   g_combat.obj
 0001:00060420       _G_CheckForblowingup       20061420 f   g_combat.obj
 0001:000605e0       _G_LocationBasedDamageModifier 200615e0 f   g_combat.obj
 0001:00060790       _G_ThereIsAMaster          20061790 f   g_combat.obj
 0001:000607d0       _G_Knockdown               200617d0 f   g_combat.obj
 0001:00060900       _G_ApplyVehicleOtherKiller 20061900 f   g_combat.obj
 0001:00060bc0       _G_Damage                  20061bc0 f   g_combat.obj
 0001:000626e0       _G_DamageFromKiller        200636e0 f   g_combat.obj
 0001:00062810       _CanDamage                 20063810 f   g_combat.obj
 0001:00062a50       _G_RadiusDamage            20063a50 f   g_combat.obj
 0001:00062cf0       _player_die                20063cf0 f   g_combat.obj
 0001:000644f0       _EnumModules@12            200654f0 f   g_crash.obj
 0001:00064510       _ExceptionName             20065510 f   g_crash.obj
 0001:00064730       _win32_backtrace           20065730 f   g_crash.obj
 0001:00064900       _win32_exception_handler@4 20065900 f   g_crash.obj
 0001:00064a50       _win32_initialize_handler  20065a50 f   g_crash.obj
 0001:00064b60       _EnableStackTrace          20065b60 f   g_crash.obj
 0001:00064b70       _DisableStackTrace         20065b70 f   g_crash.obj
 0001:00064bc0       _LoadDMSSongData           20065bc0 f   g_dynmusic.obj
 0001:00064dc0       _LoadLengthforSong         20065dc0 f   g_dynmusic.obj
 0001:00064ef0       _LoadDMSSongLengths        20065ef0 f   g_dynmusic.obj
 0001:00064ff0       _LoadDynamicMusicGroup     20065ff0 f   g_dynmusic.obj
 0001:00065170       _TransitionBetweenState    20066170 f   g_dynmusic.obj
 0001:000652c0       _SetDMSState               200662c0 f   g_dynmusic.obj
 0001:000652f0       _LoadDynamicMusic          200662f0 f   g_dynmusic.obj
 0001:00065390       _G_DynamicMusicUpdate      20066390 f   g_dynmusic.obj
 0001:00065820       _G_RunExPhys               20066820 f   g_exphysics.obj
 0001:00065f70       _Q3_TaskIDClear            20066f70 f   g_ICARUScb.obj
 0001:00065f80       _G_DebugPrint              20066f80 f   g_ICARUScb.obj
 0001:00066110       _Icarus_SoundTime          20067110 f   g_ICARUScb.obj
 0001:000661e0       _Q3_PlaySound              200671e0 f   g_ICARUScb.obj
 0001:00066390       _Q3_Play                   20067390 f   g_ICARUScb.obj
 0001:00066460       _anglerCallback            20067460 f   g_ICARUScb.obj
 0001:00066510       _Blocked_Mover             20067510 f   g_ICARUScb.obj
 0001:00066580       _Q3_Lerp2Angles            20067580 f   g_ICARUScb.obj
 0001:000666e0       _Q3_GetTag                 200676e0 f   g_ICARUScb.obj
 0001:00066740       _Q3_Use                    20067740 f   g_ICARUScb.obj
 0001:000667a0       _Q3_Kill                   200677a0 f   g_ICARUScb.obj
 0001:00066970       _Q3_Remove                 20067970 f   g_ICARUScb.obj
 0001:00066a10       _MoveOwner                 20067a10 f   g_ICARUScb.obj
 0001:000678f0       _Q3_SetInvisible           200688f0 f   g_ICARUScb.obj
 0001:00067bd0       _Q3_SetLoopSound           20068bd0 f   g_ICARUScb.obj
 0001:00067c50       _Q3_SetICARUSFreeze        20068c50 f   g_ICARUScb.obj
 0001:00067cb0       _Q3_SetViewEntity          20068cb0 f   g_ICARUScb.obj
 0001:00067cd0       _InitSpawnScriptValues     20068cd0 f   g_ICARUScb.obj
 0001:00067d40       _G_SetWeapon               20068d40 f   g_ICARUScb.obj
 0001:00068520       _Q3_SetParm                20069520 f   g_ICARUScb.obj
 0001:00068b10       _SolidifyOwner             20069b10 f   g_ICARUScb.obj
 0001:00069300       _ICam_Enable               2006a300 f   g_ICARUScb.obj
 0001:00069330       _ICam_Disable              2006a330 f   g_ICARUScb.obj
 0001:00069380       _ICam_Move                 2006a380 f   g_ICARUScb.obj
 0001:000693d0       _ICam_Pan                  2006a3d0 f   g_ICARUScb.obj
 0001:00069440       _ICam_Zoom                 2006a440 f   g_ICARUScb.obj
 0001:00069470       _ICam_Fade                 2006a470 f   g_ICARUScb.obj
 0001:000694e0       _ICam_Follow               2006a4e0 f   g_ICARUScb.obj
 0001:00069640       _ProcessTag                2006a640 f   g_ICARUScb.obj
 0001:00069770       _ParseTags                 2006a770 f   g_ICARUScb.obj
 0001:000697b0       _ICam_Shake                2006a7b0 f   g_ICARUScb.obj
 0001:000697e0       _UpdatePlayerScriptTarget  2006a7e0 f   g_ICARUScb.obj
 0001:000698a0       _RemoveComma               2006a8a0 f   g_ICARUScb.obj
 0001:000698d0       _Q3_SetBroadcast           2006a8d0 f   g_ICARUScb.obj
 0001:00069900       _G_GetLocationForEnt       2006a900 f   g_ICARUScb.obj
 0001:000699f0       _Q3_SetForcePower          2006a9f0 f   g_ICARUScb.obj
 0001:00069a70       _ToggleNPCWinterGear       2006aa70 f   g_ICARUScb.obj
 0001:00069b20       _GetDeclaredVariableFromName 2006ab20 f   g_ICARUScb.obj
 0001:00069b90       _GetFloatDeclaredVariable  2006ab90 f   g_ICARUScb.obj
 0001:00069be0       _GetVectorDeclaredVariable 2006abe0 f   g_ICARUScb.obj
 0001:00069c50       _SetVar                    2006ac50 f   g_ICARUScb.obj
 0001:00069d00       _moverCallback             2006ad00 f   g_ICARUScb.obj
 0001:00069d80       _moveAndRotateCallback     2006ad80 f   g_ICARUScb.obj
 0001:00069da0       _Q3_Lerp2Start             2006ada0 f   g_ICARUScb.obj
 0001:00069e80       _Q3_Lerp2End               2006ae80 f   g_ICARUScb.obj
 0001:00069f60       _Q3_Lerp2Pos               2006af60 f   g_ICARUScb.obj
 0001:0006a1d0       _Q3_GetFloat               2006b1d0 f   g_ICARUScb.obj
 0001:0006a790       _Q3_GetVector              2006b790 f   g_ICARUScb.obj
 0001:0006a8d0       _Q3_GetString              2006b8d0 f   g_ICARUScb.obj
 0001:0006aec0       _Q3_Lerp2Origin            2006bec0 f   g_ICARUScb.obj
 0001:0006b140       _Q3_Set                    2006c140 f   g_ICARUScb.obj
 0001:0006e030       _adjustRespawnTime         2006f030 f   g_items.obj
 0001:0006e0e0       _ShieldThink               2006f0e0 f   g_items.obj
 0001:0006e170       _ShieldDie                 2006f170 f   g_items.obj
 0001:0006e1c0       _ShieldPain                2006f1c0 f   g_items.obj
 0001:0006e200       _ShieldGoSolid             2006f200 f   g_items.obj
 0001:0006e320       _ShieldGoNotSolid          2006f320 f   g_items.obj
 0001:0006e380       _ShieldTouch               2006f380 f   g_items.obj
 0001:0006e3f0       _CreateShield              2006f3f0 f   g_items.obj
 0001:0006e7b0       _PlaceShield               2006f7b0 f   g_items.obj
 0001:0006ea70       _ItemUse_Binoculars        2006fa70 f   g_items.obj
 0001:0006eaf0       _ItemUse_Shield            2006faf0 f   g_items.obj
 0001:0006eb00       _pas_fire                  2006fb00 f   g_items.obj
 0001:0006eed0       _pas_adjust_enemy          2006fed0 f   g_items.obj
 0001:0006f040       _turret_die                20070040 f   g_items.obj
 0001:0006f130       _ItemUse_Seeker            20070130 f   g_items.obj
 0001:0006f260       _ItemUse_MedPack_Big       20070260 f   g_items.obj
 0001:0006f280       _ItemUse_MedPack           20070280 f   g_items.obj
 0001:0006f2a0       _Jetpack_Off               200702a0 f   g_items.obj
 0001:0006f2c0       _Jetpack_On                200702c0 f   g_items.obj
 0001:0006f320       _ItemUse_Jetpack           20070320 f   g_items.obj
 0001:0006f3a0       _ItemUse_UseCloak          200703a0 f   g_items.obj
 0001:0006f420       _SpecialItemThink          20070420 f   g_items.obj
 0001:0006f4b0       _EWebDisattach             200704b0 f   g_items.obj
 0001:0006f520       _EWebDie                   20070520 f   g_items.obj
 0001:0006f620       _EWebPain                  20070620 f   g_items.obj
 0001:0006f660       _EWeb_SetBoneAngles        20070660 f   g_items.obj
 0001:0006f760       _EWebFire                  20070760 f   g_items.obj
 0001:0006f8c0       _EWebPositionUser          200708c0 f   g_items.obj
 0001:0006fb90       _EWebUpdateBoneAngles      20070b90 f   g_items.obj
 0001:0006fcb0       _EWebThink                 20070cb0 f   g_items.obj
 0001:0006fe70       _EWeb_Create               20070e70 f   g_items.obj
 0001:000702a0       _ItemUse_UseEWeb           200712a0 f   g_items.obj
 0001:00070350       _Pickup_Powerup            20071350 f   g_items.obj
 0001:00070570       _Pickup_Holdable           20071570 f   g_items.obj
 0001:00070600       _Add_Ammo3                 20071600 f   g_items.obj
 0001:00070730       _Add_Ammo                  20071730 f   g_items.obj
 0001:00070820       _Pickup_Ammo               20071820 f   g_items.obj
 0001:00070aa0       _Pickup_Weapon             20071aa0 f   g_items.obj
 0001:00070be0       _Pickup_Health             20071be0 f   g_items.obj
 0001:00070c80       _Pickup_Armor              20071c80 f   g_items.obj
 0001:00070d00       _RespawnItem               20071d00 f   g_items.obj
 0001:00070df0       _CheckItemCanBePickedUpByNPC 20071df0 f   g_items.obj
 0001:00070e70       _Touch_Item                20071e70 f   g_items.obj
 0001:00071430       _LaunchItem                20072430 f   g_items.obj
 0001:00071620       _Drop_Item                 20072620 f   g_items.obj
 0001:000716d0       _Use_Item                  200726d0 f   g_items.obj
 0001:000716e0       _FinishSpawningItem        200726e0 f   g_items.obj
 0001:00071a10       _G_CheckTeamItems          20072a10 f   g_items.obj
 0001:00071ab0       _RegisterItem              20072ab0 f   g_items.obj
 0001:00071af0       _SaveRegisteredItems       20072af0 f   g_items.obj
 0001:00071b40       _G_AmmoDisabled            20072b40 f   g_items.obj
 0001:00071c00       _G_SpawnItem               20072c00 f   g_items.obj
 0001:00071d50       _G_BounceItem              20072d50 f   g_items.obj
 0001:00071f20       _G_RunItem                 20072f20 f   g_items.obj
 0001:00072050       _sentryExpire              20073050 f   g_items.obj
 0001:00072070       _pas_think                 20073070 f   g_items.obj
 0001:000725b0       _SP_PAS                    200735b0 f   g_items.obj
 0001:00072690       _ItemUse_Sentry            20073690 f   g_items.obj
 0001:000728e0       _G_SpecialSpawnItem        200738e0 f   g_items.obj
 0001:00072a00       _G_PrecacheDispensers      20073a00 f   g_items.obj
 0001:00072a70       _ItemUse_UseDisp           20073a70 f   g_items.obj
 0001:00072be0       _EWebPrecache              20073be0 f   g_items.obj
 0001:00072c40       _ClearRegisteredItems      20073c40 f   g_items.obj
 0001:00072d60       _G_LogWeaponInit           20073d60 f   g_log.obj
 0001:00072e20       _G_LogWeaponPickup         20073e20 f   g_log.obj
 0001:00072e50       _G_LogWeaponFire           20073e50 f   g_log.obj
 0001:00072eb0       _G_LogWeaponDamage         20073eb0 f   g_log.obj
 0001:00072ee0       _G_LogWeaponKill           20073ee0 f   g_log.obj
 0001:00072f10       _G_LogWeaponFrag           20073f10 f   g_log.obj
 0001:00072f50       _G_LogWeaponDeath          20073f50 f   g_log.obj
 0001:00072f80       _G_LogWeaponPowerup        20073f80 f   g_log.obj
 0001:00072fb0       _G_LogWeaponItem           20073fb0 f   g_log.obj
 0001:00072fe0       _G_LogWeaponOutput         20073fe0 f   g_log.obj
 0001:00074ed0       _G_ClearClientLog          20075ed0 f   g_log.obj
 0001:000751d0       _G_Printf                  200761d0 f   g_main.obj
 0001:00075200       _G_Error                   20076200 f   g_main.obj
 0001:00075230       _G_FindTeams               20076230 f   g_main.obj
 0001:00075380       _G_RegisterCvars           20076380 f   g_main.obj
 0001:00075410       _G_UpdateCvars             20076410 f   g_main.obj
 0001:00075480       _Com_Error                 20076480 f   g_main.obj
 0001:000754c0       _Com_Printf                200764c0 f   g_main.obj
 0001:00075500       _AddTournamentPlayer       20076500 f   g_main.obj
 0001:000755d0       _RemoveTournamentLoser     200765d0 f   g_main.obj
 0001:00075620       _G_PowerDuelCount          20076620 f   g_main.obj
 0001:00075730       _AddPowerDuelPlayers       20076730 f   g_main.obj
 0001:00075890       _RemoveDuelDrawLoser       20076890 f   g_main.obj
 0001:00075930       _AdjustTournamentScores    20076930 f   g_main.obj
 0001:00075af0       _SortRanks                 20076af0 f   g_main.obj
 0001:00075be0       _G_CanResetDuelists        20076be0 f   g_main.obj
 0001:00075c40       _G_ResetDuelists           20076c40 f   g_main.obj
 0001:00075cc0       _CalculateRanks            20076cc0 f   g_main.obj
 0001:00076090       _SendScoreboardMessageToAllClients 20077090 f   g_main.obj
 0001:000760f0       _MoveClientToIntermission  200770f0 f   g_main.obj
 0001:00076220       _FindIntermissionPoint     20077220 f   g_main.obj
 0001:00076370       _DuelLimitHit              20077370 f   g_main.obj
 0001:000763c0       _DuelResetWinsLosses       200773c0 f   g_main.obj
 0001:00076400       _ExitLevel                 20077400 f   g_main.obj
 0001:00076530       _G_LogPrintf               20077530 f   g_main.obj
 0001:00076630       _LogExit                   20077630 f   g_main.obj
 0001:00076710       _ScoreIsTied               20077710 f   g_main.obj
 0001:00076770       _G_RemoveDuelist           20077770 f   g_main.obj
 0001:000767d0       _CheckTeamLeader           200777d0 f   g_main.obj
 0001:000768a0       _CheckCvars                200778a0 f   g_main.obj
 0001:00076950       _ICARUS_SoundCheck         20077950 f   g_main.obj
 0001:00076980       _G_RunThink                20077980 f   g_main.obj
 0001:00076ac0       _NAV_CheckCalcPaths        20077ac0 f   g_main.obj
 0001:00076b70       _BG_GetTime                20077b70 f   g_main.obj
 0001:00076b80       _G_GetStringEdString       20077b80 f   g_main.obj
 0001:00076bb0       _G_InitGame                20077bb0 f   g_main.obj
 0001:00077080       _G_ShutdownGame            20078080 f   g_main.obj
 0001:000771e0       _RemovePowerDuelLosers     200781e0 f   g_main.obj
 0001:00077360       _BeginIntermission         20078360 f   g_main.obj
 0001:00077430       _CheckIntermissionExit     20078430 f   g_main.obj
 0001:00077a00       _CheckExitRules            20078a00 f   g_main.obj
 0001:00077eb0       _CheckTournament           20078eb0 f   g_main.obj
 0001:000783e0       _CheckVote                 200793e0 f   g_main.obj
 0001:000785f0       _CheckTeamVote             200795f0 f   g_main.obj
 0001:00078730       _G_RunFrame                20079730 f   g_main.obj
 0001:000791d0       _vmMain                    2007a1d0 f   g_main.obj
 0001:000796d0       _G_Alloc                   2007a6d0 f   g_mem.obj
 0001:00079740       _G_InitMemory              2007a740 f   g_mem.obj
 0001:00079750       _Svcmd_GameMem_f           2007a750 f   g_mem.obj
 0001:00079770       _SP_info_null              2007a770 f   g_misc.obj
 0001:00079930       _misc_dlight_use           2007a930 f   g_misc.obj
 0001:00079960       _SP_light                  2007a960 f   g_misc.obj
 0001:00079a10       _TeleportPlayer            2007aa10 f   g_misc.obj
 0001:00079b90       _misc_use                  2007ab90 f   g_misc.obj
 0001:00079bb0       _SP_misc_exploding_crate   2007abb0 f   g_misc.obj
 0001:00079cc0       _GasBurst                  2007acc0 f   g_misc.obj
 0001:00079d50       _gas_random_jet            2007ad50 f   g_misc.obj
 0001:00079de0       _SP_misc_gas_tank          2007ade0 f   g_misc.obj
 0001:00079f50       _SP_misc_weather_zone      2007af50 f   g_misc.obj
 0001:00079f50       _SP_misc_model             2007af50 f   g_misc.obj
 0001:00079f50       _SP_misc_skyportal_orient  2007af50 f   g_misc.obj
 0001:00079f50       _SP_misc_model_static      2007af50 f   g_misc.obj
 0001:00079f50       _SP_misc_G2model           2007af50 f   g_misc.obj
 0001:00079f60       _locateCamera              2007af60 f   g_misc.obj
 0001:0007a070       _SP_misc_portal_surface    2007b070 f   g_misc.obj
 0001:0007a0f0       _SP_misc_portal_camera     2007b0f0 f   g_misc.obj
 0001:0007a160       _SP_misc_bsp               2007b160 f   g_misc.obj
 0001:0007a340       _SP_terrain                2007b340 f   g_misc.obj
 0001:0007a7c0       _G_PortalifyEntities       2007b7c0 f   g_misc.obj
 0001:0007a8a0       _SP_misc_skyportal         2007b8a0 f   g_misc.obj
 0001:0007a9a0       _HolocronPopOut            2007b9a0 f   g_misc.obj
 0001:0007aa60       _HolocronTouch             2007ba60 f   g_misc.obj
 0001:0007acf0       _HolocronThink             2007bcf0 f   g_misc.obj
 0001:0007b0b0       _SP_misc_holocron          2007c0b0 f   g_misc.obj
 0001:0007b2d0       _Use_Shooter               2007c2d0 f   g_misc.obj
 0001:0007b4c0       _InitShooter               2007c4c0 f   g_misc.obj
 0001:0007b560       _SP_shooter_blaster        2007c560 f   g_misc.obj
 0001:0007b570       _check_recharge            2007c570 f   g_misc.obj
 0001:0007b630       _shield_power_converter_use 2007c630 f   g_misc.obj
 0001:0007b820       _HasValidWeaponThatUsesAmmo 2007c820 f   g_misc.obj
 0001:0007b960       _ammo_generic_power_converter_use 2007c960 f   g_misc.obj
 0001:0007bb50       _SP_misc_ammo_floor_unit   2007cb50 f   g_misc.obj
 0001:0007bde0       _SP_misc_shield_floor_unit 2007cde0 f   g_misc.obj
 0001:0007c090       _SP_misc_model_shield_power_converter 2007d090 f   g_misc.obj
 0001:0007c1e0       _ammo_power_converter_use  2007d1e0 f   g_misc.obj
 0001:0007c330       _SP_misc_model_ammo_power_converter 2007d330 f   g_misc.obj
 0001:0007c470       _health_power_converter_use 2007d470 f   g_misc.obj
 0001:0007c530       _SP_misc_model_health_power_converter 2007d530 f   g_misc.obj
 0001:0007c680       _fx_runner_think           2007d680 f   g_misc.obj
 0001:0007c7c0       _fx_runner_use             2007d7c0 f   g_misc.obj
 0001:0007c920       _fx_runner_link            2007d920 f   g_misc.obj
 0001:0007ca70       _SP_fx_runner              2007da70 f   g_misc.obj
 0001:0007cbf0       _SP_CreateSpaceDust        2007dbf0 f   g_misc.obj
 0001:0007cc20       _SP_CreateSnow             2007dc20 f   g_misc.obj
 0001:0007cc50       _SP_CreateRain             2007dc50 f   g_misc.obj
 0001:0007cc80       _Use_Target_Screenshake    2007dc80 f   g_misc.obj
 0001:0007ccc0       _SP_target_screenshake     2007dcc0 f   g_misc.obj
 0001:0007cd20       _Use_Target_Escapetrig     2007dd20 f   g_misc.obj
 0001:0007cdf0       _SP_target_escapetrig      2007ddf0 f   g_misc.obj
 0001:0007ce40       _maglock_die               2007de40 f   g_misc.obj
 0001:0007ce90       _maglock_link              2007de90 f   g_misc.obj
 0001:0007d0a0       _faller_touch              2007e0a0 f   g_misc.obj
 0001:0007d150       _faller_think              2007e150 f   g_misc.obj
 0001:0007d230       _misc_faller_create        2007e230 f   g_misc.obj
 0001:0007d3b0       _misc_faller_think         2007e3b0 f   g_misc.obj
 0001:0007d3f0       _SP_misc_faller            2007e3f0 f   g_misc.obj
 0001:0007d4b0       _FirstFreeTagOwner         2007e4b0 f   g_misc.obj
 0001:0007d4f0       _FirstFreeRefTag           2007e4f0 f   g_misc.obj
 0001:0007d540       _TAG_Init                  2007e540 f   g_misc.obj
 0001:0007d5b0       _TAG_FindOwner             2007e5b0 f   g_misc.obj
 0001:0007d600       _TAG_Find                  2007e600 f   g_misc.obj
 0001:0007d6e0       _TAG_Add                   2007e6e0 f   g_misc.obj
 0001:0007d800       _TAG_GetOrigin             2007e800 f   g_misc.obj
 0001:0007d850       _TAG_GetOrigin2            2007e850 f   g_misc.obj
 0001:0007d890       _TAG_GetAngles             2007e890 f   g_misc.obj
 0001:0007d8d0       _TAG_GetRadius             2007e8d0 f   g_misc.obj
 0001:0007d8f0       _ref_link                  2007e8f0 f   g_misc.obj
 0001:0007d9a0       _SP_reference_tag          2007e9a0 f   g_misc.obj
 0001:0007d9d0       _G_ClientForShooter        2007e9d0 f   g_misc.obj
 0001:0007da40       _misc_weapon_shooter_fire  2007ea40 f   g_misc.obj
 0001:0007dae0       _misc_weapon_shooter_use   2007eae0 f   g_misc.obj
 0001:0007db10       _misc_weapon_shooter_aim   2007eb10 f   g_misc.obj
 0001:0007dc10       _SP_misc_weapon_shooter    2007ec10 f   g_misc.obj
 0001:0007dd60       _SP_misc_trip_mine         2007ed60 f   g_misc.obj
 0001:0007ddf0       _GunRackAddItem            2007edf0 f   g_misc.obj
 0001:0007e180       _SP_misc_model_gun_rack    2007f180 f   g_misc.obj
 0001:0007e340       _spawn_rack_goods          2007f340 f   g_misc.obj
 0001:0007e730       _SP_misc_model_ammo_rack   2007f730 f   g_misc.obj
 0001:0007e840       _camera_die                2007f840 f   g_misc.obj
 0001:0007e910       _camera_use                2007f910 f   g_misc.obj
 0001:0007ea70       _camera_aim                2007fa70 f   g_misc.obj
 0001:0007edd0       _SP_misc_camera            2007fdd0 f   g_misc.obj
 0001:0007ef40       _SP_misc_spotlight         2007ff40 f   g_misc.obj
 0001:0007f010       _panel_touch               20080010 f   g_misc.obj
 0001:0007f0c0       _SP_misc_security_panel    200800c0 f   g_misc.obj
 0001:0007f170       _Precashe_Key              20080170 f   g_misc.obj
 0001:0007f190       _INV_GoodieKeyGive         20080190 f   g_misc.obj
 0001:0007f1a0       _INV_SecurityKeyGive       200801a0 f   g_misc.obj
 0001:0007f1d0       _bomb_planted_use          200801d0 f   g_misc.obj
 0001:0007f270       _SP_misc_model_bomb_planted 20080270 f   g_misc.obj
 0001:0007f3d0       _beacon_think              200803d0 f   g_misc.obj
 0001:0007f440       _SP_misc_maglock           20080440 f   g_misc.obj
 0001:0007f490       _beacon_use                20080490 f   g_misc.obj
 0001:0007f540       _SP_misc_model_beacon      20080540 f   g_misc.obj
 0001:0007f720       _G_ReflectMissile          20080720 f   g_missile.obj
 0001:0007f970       _G_DeflectMissile          20080970 f   g_missile.obj
 0001:0007fae0       _G_BounceMissile           20080ae0 f   g_missile.obj
 0001:0007fd30       _G_ExplodeMissile          20080d30 f   g_missile.obj
 0001:0007fe60       _G_RunStuckMissile         20080e60 f   g_missile.obj
 0001:0007fee0       _CreateMissile             20080ee0 f   g_missile.obj
 0001:0007ffc0       _G_MissileBounceEffect     20080fc0 f   g_missile.obj
 0001:00080070       _G_MissileImpact           20081070 f   g_missile.obj
 0001:00080ba0       _G_RunMissile              20081ba0 f   g_missile.obj
 0001:00081050       _G_PlayDoorLoopSound       20082050 f   g_mover.obj
 0001:00081090       _G_PlayDoorSound           20082090 f   g_mover.obj
 0001:000810d0       _G_TestEntityPosition      200820d0 f   g_mover.obj
 0001:00081180       _G_RotatePoint             20082180 f   g_mover.obj
 0001:00081200       _G_TryPushingEntity        20082200 f   g_mover.obj
 0001:00081650       _G_MoverPush               20082650 f   g_mover.obj
 0001:00081bb0       _G_MoverTeam               20082bb0 f   g_mover.obj
 0001:00081dc0       _G_RunMover                20082dc0 f   g_mover.obj
 0001:00081e00       _CalcTeamDoorCenter        20082e00 f   g_mover.obj
 0001:00081f00       _SetMoverState             20082f00 f   g_mover.obj
 0001:00082090       _MatchTeam                 20083090 f   g_mover.obj
 0001:000820c0       _ReturnToPos1              200830c0 f   g_mover.obj
 0001:00082230       _Reached_BinaryMover       20083230 f   g_mover.obj
 0001:00082430       _Use_BinaryMover_Go        20083430 f   g_mover.obj
 0001:00082890       _UnLockDoors               20083890 f   g_mover.obj
 0001:000828d0       _LockDoors                 200838d0 f   g_mover.obj
 0001:00082900       _Use_BinaryMover           20083900 f   g_mover.obj
 0001:000829a0       _InitMoverTrData           200839a0 f   g_mover.obj
 0001:00082a90       _InitMover                 20083a90 f   g_mover.obj
 0001:00082c30       _Blocked_Door              20083c30 f   g_mover.obj
 0001:00082df0       _Touch_DoorTrigger         20083df0 f   g_mover.obj
 0001:00082f00       _Think_SpawnNewDoorTrigger 20083f00 f   g_mover.obj
 0001:000830b0       _Think_MatchTeam           200840b0 f   g_mover.obj
 0001:000830e0       _G_EntIsDoor               200840e0 f   g_mover.obj
 0001:00083120       _G_FindDoorTrigger         20084120 f   g_mover.obj
 0001:00083220       _G_EntIsUnlockedDoor       20084220 f   g_mover.obj
 0001:00083390       _SP_func_door              20084390 f   g_mover.obj
 0001:00083670       _Touch_Plat                20084670 f   g_mover.obj
 0001:000836b0       _Touch_PlatCenterTrigger   200846b0 f   g_mover.obj
 0001:000836f0       _SpawnPlatTrigger          200846f0 f   g_mover.obj
 0001:00083860       _SP_func_plat              20084860 f   g_mover.obj
 0001:000839a0       _Touch_Button              200849a0 f   g_mover.obj
 0001:000839d0       _SP_func_button            200849d0 f   g_mover.obj
 0001:00083b60       _Think_BeginMoving         20084b60 f   g_mover.obj
 0001:00083c00       _Reached_Train             20084c00 f   g_mover.obj
 0001:00083e90       _Think_SetupTrainTargets   20084e90 f   g_mover.obj
 0001:00083f60       _SP_path_corner            20084f60 f   g_mover.obj
 0001:00083f90       _SP_func_train             20084f90 f   g_mover.obj
 0001:00084050       _func_static_use           20085050 f   g_mover.obj
 0001:00084090       _func_rotating_use         20085090 f   g_mover.obj
 0001:00084120       _SP_func_bobbing           20085120 f   g_mover.obj
 0001:00084220       _SP_func_pendulum          20085220 f   g_mover.obj
 0001:00084350       _CacheChunkEffects         20085350 f   g_mover.obj
 0001:00084420       _G_MiscModelExplosion      20085420 f   g_mover.obj
 0001:000844c0       _G_Chunks                  200854c0 f   g_mover.obj
 0001:00084570       _funcBBrushDieGo           20085570 f   g_mover.obj
 0001:000848c0       _funcBBrushDie             200858c0 f   g_mover.obj
 0001:00084930       _funcBBrushUse             20085930 f   g_mover.obj
 0001:00084990       _funcBBrushPain            20085990 f   g_mover.obj
 0001:00084d60       _SP_func_breakable         20085d60 f   g_mover.obj
 0001:00084fc0       _G_EntIsBreakable          20085fc0 f   g_mover.obj
 0001:00085040       _GlassDie                  20086040 f   g_mover.obj
 0001:00085130       _GlassUse                  20086130 f   g_mover.obj
 0001:00085270       _SP_func_glass             20086270 f   g_mover.obj
 0001:00085340       _func_wait_return_solid    20086340 f   g_mover.obj
 0001:00085410       _func_usable_think         20086410 f   g_mover.obj
 0001:00085440       _G_EntIsRemovableUsable    20086440 f   g_mover.obj
 0001:00085490       _func_usable_use           20086490 f   g_mover.obj
 0001:000855d0       _func_usable_pain          200865d0 f   g_mover.obj
 0001:000855f0       _func_usable_die           200865f0 f   g_mover.obj
 0001:00085620       _SP_func_usable            20086620 f   g_mover.obj
 0001:00085770       _use_wall                  20086770 f   g_mover.obj
 0001:000857f0       _SP_func_wall              200867f0 f   g_mover.obj
 0001:000858b0       _SP_func_static            200868b0 f   g_mover.obj
 0001:000859f0       _SP_func_rotating          200869f0 f   g_mover.obj
 0001:00085cb0       _FlyingCreature            20086cb0 f   g_nav.obj
 0001:00085cd0       _NPC_Blocked               20086cd0 f   g_nav.obj
 0001:00085d90       _NPC_SetMoveGoal           20086d90 f   g_nav.obj
 0001:00085f90       _NAV_HitNavGoal            20086f90 f   g_nav.obj
 0001:00086130       _NAV_ClearPathToPoint      20087130 f   g_nav.obj
 0001:000863b0       _NAV_FindClosestWaypointForEnt 200873b0 f   g_nav.obj
 0001:000863d0       _NAV_FindClosestWaypointForPoint2 200873d0 f   g_nav.obj
 0001:00086460       _NAV_CheckAhead            20087460 f   g_nav.obj
 0001:000866e0       _NAV_Bypass                200876e0 f   g_nav.obj
 0001:00086a30       _NAV_StackedCanyon         20087a30 f   g_nav.obj
 0001:00086c70       _NAV_ResolveEntityCollision 20087c70 f   g_nav.obj
 0001:00086db0       _NAV_TestForBlocked        20087db0 f   g_nav.obj
 0001:00086e30       _NAV_AvoidCollision        20087e30 f   g_nav.obj
 0001:00086f80       _NAV_TestBestNode          20087f80 f   g_nav.obj
 0001:00087240       _NAV_GetNearestNode        20088240 f   g_nav.obj
 0001:00087260       _NAV_MoveToGoal            20088260 f   g_nav.obj
 0001:000874c0       _waypoint_testDirection    200884c0 f   g_nav.obj
 0001:000875d0       _waypoint_getRadius        200885d0 f   g_nav.obj
 0001:00087630       _SP_waypoint_navgoal       20088630 f   g_nav.obj
 0001:00087710       _SP_waypoint_navgoal_8     20088710 f   g_nav.obj
 0001:000877d0       _SP_waypoint_navgoal_4     200887d0 f   g_nav.obj
 0001:00087890       _SP_waypoint_navgoal_2     20088890 f   g_nav.obj
 0001:00087950       _SP_waypoint_navgoal_1     20088950 f   g_nav.obj
 0001:00087a10       _NAV_StoreWaypoint         20088a10 f   g_nav.obj
 0001:00087b10       _NAV_GetStoredWaypoint     20088b10 f   g_nav.obj
 0001:00087b70       _NAV_CalculatePaths        20088b70 f   g_nav.obj
 0001:00087c60       _NAV_FindPlayerWaypoint    20088c60 f   g_nav.obj
 0001:00087c90       _SP_waypoint               20088c90 f   g_nav.obj
 0001:00087db0       _SP_waypoint_small         20088db0 f   g_nav.obj
 0001:00087ec0       _NAV_CheckNodeFailedForEnt 20088ec0 f   g_navnew.obj
 0001:00087ef0       _NPC_SetBlocked            20088ef0 f   g_navnew.obj
 0001:00087f60       _NAVNEW_ClearPathBetweenPoints 20088f60 f   g_navnew.obj
 0001:00087fc0       _NAVNEW_PushBlocker        20088fc0 f   g_navnew.obj
 0001:00088360       _NAVNEW_DanceWithBlocker   20089360 f   g_navnew.obj
 0001:00088450       _NAVNEW_SidestepBlocker    20089450 f   g_navnew.obj
 0001:00088910       _NAVNEW_Bypass             20089910 f   g_navnew.obj
 0001:000889d0       _NAVNEW_ResolveEntityCollision 200899d0 f   g_navnew.obj
 0001:00088b10       _NAVNEW_AvoidCollision     20089b10 f   g_navnew.obj
 0001:00088cb0       _NAVNEW_TestNodeConnectionBlocked 20089cb0 f   g_navnew.obj
 0001:00088df0       _NAVNEW_MoveToGoal         20089df0 f   g_navnew.obj
 0001:000892e0       _NAV_MoveDirSafe           2008a2e0 f   g_navnew.obj
 0001:00089450       _G_BounceObject            2008a450 f   g_object.obj
 0001:00089660       _G_StopObjectMoving        2008a660 f   g_object.obj
 0001:000896b0       _G_RunObject               2008a6b0 f   g_object.obj
 0001:00089eb0       _G_LoadRoff                2008aeb0 f   g_roff.obj
 0001:0008a040       _G_Roff                    2008b040 f   g_roff.obj
 0001:0008a3d0       _G_SiegeRegisterWeaponsAndHoldables 2008b3d0 f   g_saga.obj
 0001:0008a480       _InitSiegeMode             2008b480 f   g_saga.obj
 0001:0008ada0       _G_SiegeSetObjectiveComplete 2008bda0 f   g_saga.obj
 0001:0008ae30       _G_SiegeGetCompletionStatus 2008be30 f   g_saga.obj
 0001:0008ae90       _UseSiegeTarget            2008be90 f   g_saga.obj
 0001:0008af30       _BroadcastObjectiveCompletion 2008bf30 f   g_saga.obj
 0001:0008afc0       _AddSiegeWinningTeamPoints 2008bfc0 f   g_saga.obj
 0001:0008b030       _SiegeClearSwitchData      2008c030 f   g_saga.obj
 0001:0008b050       _SiegeTeamSwitch           2008c050 f   g_saga.obj
 0001:0008b0d0       _SiegeRoundComplete        2008c0d0 f   g_saga.obj
 0001:0008b2b0       _G_ValidateSiegeClassForTeam 2008c2b0 f   g_saga.obj
 0001:0008b3b0       _SetTeamQuick              2008c3b0 f   g_saga.obj
 0001:0008b4d0       _SiegeRespawn              2008c4d0 f   g_saga.obj
 0001:0008b530       _SiegeBeginRound           2008c530 f   g_saga.obj
 0001:0008b640       _SiegeCheckTimers          2008c640 f   g_saga.obj
 0001:0008b970       _SiegeObjectiveCompleted   2008c970 f   g_saga.obj
 0001:0008ba70       _siegeTriggerUse           2008ca70 f   g_saga.obj
 0001:0008bc20       _SP_info_siege_objective   2008cc20 f   g_saga.obj
 0001:0008bd20       _SiegeIconUse              2008cd20 f   g_saga.obj
 0001:0008bd50       _SP_info_siege_radaricon   2008cd50 f   g_saga.obj
 0001:0008be10       _decompTriggerUse          2008ce10 f   g_saga.obj
 0001:0008bfc0       _SP_info_siege_decomplete  2008cfc0 f   g_saga.obj
 0001:0008c040       _siegeEndUse               2008d040 f   g_saga.obj
 0001:0008c050       _SP_target_siege_end       2008d050 f   g_saga.obj
 0001:0008c080       _SiegeItemRemoveOwner      2008d080 f   g_saga.obj
 0001:0008c180       _SiegeItemThink            2008d180 f   g_saga.obj
 0001:0008c530       _SiegeItemTouch            2008d530 f   g_saga.obj
 0001:0008c690       _SiegeItemPain             2008d690 f   g_saga.obj
 0001:0008c6a0       _SiegeItemDie              2008d6a0 f   g_saga.obj
 0001:0008c720       _SiegeItemUse              2008d720 f   g_saga.obj
 0001:0008c930       _SP_misc_siege_item        2008d930 f   g_saga.obj
 0001:0008cd90       _G_SiegeClientExData       2008dd90 f   g_saga.obj
 0001:0008cf00       _SiegeDoTeamAssign         2008df00 f   g_saga.obj
 0001:0008d090       _G_WriteClientSessionData  2008e090 f   g_session.obj
 0001:0008d210       _G_ReadSessionData         2008e210 f   g_session.obj
 0001:0008d360       _G_InitSessionData         2008e360 f   g_session.obj
 0001:0008d520       _G_InitWorldSession        2008e520 f   g_session.obj
 0001:0008d570       _G_WriteSessionData        2008e570 f   g_session.obj
 0001:0008d5d0       _G_SpawnString             2008e5d0 f   g_spawn.obj
 0001:0008d640       _G_SpawnFloat              2008e640 f   g_spawn.obj
 0001:0008d670       _G_SpawnInt                2008e670 f   g_spawn.obj
 0001:0008d6a0       _G_SpawnVector             2008e6a0 f   g_spawn.obj
 0001:0008d6e0       _SP_gametype_item          2008e6e0 f   g_spawn.obj
 0001:0008d7f0       _G_CallSpawn               2008e7f0 f   g_spawn.obj
 0001:0008d8f0       _G_NewString               2008e8f0 f   g_spawn.obj
 0001:0008d960       _G_SpawnGEntityFromSpawnVars 2008e960 f   g_spawn.obj
 0001:0008db20       _G_AddSpawnVarToken        2008eb20 f   g_spawn.obj
 0001:0008db90       _AddSpawnField             2008eb90 f   g_spawn.obj
 0001:0008e170       _G_ParseSpawnVars          2008f170 f   g_spawn.obj
 0001:0008e2a0       _SP_worldspawn             2008f2a0 f   g_spawn.obj
 0001:0008e730       _G_PrecacheSoundsets       2008f730 f   g_spawn.obj
 0001:0008e790       _G_SpawnEntitiesFromString 2008f790 f   g_spawn.obj
 0001:0008e860       _strap_G2API_GetBoltMatrix 2008f860 f   g_strap.obj
 0001:0008e870       _strap_G2API_GetBoltMatrix_NoRecNoRot 2008f870 f   g_strap.obj
 0001:0008e880       _strap_G2API_SetBoneAngles 2008f880 f   g_strap.obj
 0001:0008e890       _strap_G2API_SetBoneAnim   2008f890 f   g_strap.obj
 0001:0008e8e0       _strap_G2API_GetBoneAnim   2008f8e0 f   g_strap.obj
 0001:0008e8f0       _strap_G2API_AnimateG2Models 2008f8f0 f   g_strap.obj
 0001:0008e900       _strap_G2API_SetBoneIKState 2008f900 f   g_strap.obj
 0001:0008e910       _strap_G2API_IKMove        2008f910 f   g_strap.obj
 0001:0008ea80       _G_FilterPacket            2008fa80 f   g_svcmds.obj
 0001:0008eb30       _AddIP                     2008fb30 f   g_svcmds.obj
 0001:0008eba0       _Svcmd_AddIP_f             2008fba0 f   g_svcmds.obj
 0001:0008ebf0       _Svcmd_RemoveIP_f          2008fbf0 f   g_svcmds.obj
 0001:0008ecb0       _Svcmd_ListIPs_f           2008fcb0 f   g_svcmds.obj
 0001:0008ed40       _G_SaveBanIP               2008fd40 f   g_svcmds.obj
 0001:0008ee50       _G_LoadIPBans              2008fe50 f   g_svcmds.obj
 0001:0008ef50       _Svcmd_EntityList_f        2008ff50 f   g_svcmds.obj
 0001:0008f0e0       _ClientForString           200900e0 f   g_svcmds.obj
 0001:0008f1b0       _Svcmd_ForceTeam_f         200901b0 f   g_svcmds.obj
 0001:0008f230       _ConsoleCommand            20090230 f   g_svcmds.obj
 0001:0008f4a0       _dllEntry                  200904a0 f   g_syscalls.obj
 0001:0008f4b0       _trap_Printf               200904b0 f   g_syscalls.obj
 0001:0008f4d0       _trap_Error                200904d0 f   g_syscalls.obj
 0001:0008f4f0       _trap_Cvar_Register        200904f0 f   g_syscalls.obj
 0001:0008f510       _trap_Cvar_Update          20090510 f   g_syscalls.obj
 0001:0008f530       _trap_Cvar_Set             20090530 f   g_syscalls.obj
 0001:0008f550       _trap_Cvar_VariableIntegerValue 20090550 f   g_syscalls.obj
 0001:0008f570       _trap_Cvar_VariableStringBuffer 20090570 f   g_syscalls.obj
 0001:0008f590       _trap_Argc                 20090590 f   g_syscalls.obj
 0001:0008f5a0       _trap_Argv                 200905a0 f   g_syscalls.obj
 0001:0008f5c0       _trap_FS_FOpenFile         200905c0 f   g_syscalls.obj
 0001:0008f5e0       _trap_FS_Read              200905e0 f   g_syscalls.obj
 0001:0008f600       _trap_FS_Write             20090600 f   g_syscalls.obj
 0001:0008f620       _trap_FS_FCloseFile        20090620 f   g_syscalls.obj
 0001:0008f640       _trap_SendConsoleCommand   20090640 f   g_syscalls.obj
 0001:0008f660       _trap_LocateGameData       20090660 f   g_syscalls.obj
 0001:0008f690       _trap_DropClient           20090690 f   g_syscalls.obj
 0001:0008f6b0       _trap_SendServerCommand    200906b0 f   g_syscalls.obj
 0001:0008f710       _trap_SetConfigstring      20090710 f   g_syscalls.obj
 0001:0008f730       _trap_GetConfigstring      20090730 f   g_syscalls.obj
 0001:0008f750       _trap_GetUserinfo          20090750 f   g_syscalls.obj
 0001:0008f770       _trap_SetUserinfo          20090770 f   g_syscalls.obj
 0001:0008f790       _trap_GetServerinfo        20090790 f   g_syscalls.obj
 0001:0008f7b0       _trap_SetServerCull        200907b0 f   g_syscalls.obj
 0001:0008f7d0       _trap_SetBrushModel        200907d0 f   g_syscalls.obj
 0001:0008f7f0       _trap_Trace                200907f0 f   g_syscalls.obj
 0001:0008f830       _trap_G2Trace              20090830 f   g_syscalls.obj
 0001:0008f870       _trap_PointContents        20090870 f   g_syscalls.obj
 0001:0008f890       _trap_InPVS                20090890 f   g_syscalls.obj
 0001:0008f8b0       _trap_AdjustAreaPortalState 200908b0 f   g_syscalls.obj
 0001:0008f8d0       _trap_LinkEntity           200908d0 f   g_syscalls.obj
 0001:0008f8f0       _trap_UnlinkEntity         200908f0 f   g_syscalls.obj
 0001:0008f910       _trap_EntitiesInBox        20090910 f   g_syscalls.obj
 0001:0008f930       _trap_EntityContact        20090930 f   g_syscalls.obj
 0001:0008f950       _trap_BotAllocateClient    20090950 f   g_syscalls.obj
 0001:0008f960       _trap_GetUsercmd           20090960 f   g_syscalls.obj
 0001:0008f980       _trap_GetEntityToken       20090980 f   g_syscalls.obj
 0001:0008f9a0       _trap_SiegePersSet         200909a0 f   g_syscalls.obj
 0001:0008f9c0       _trap_SiegePersGet         200909c0 f   g_syscalls.obj
 0001:0008f9e0       _trap_FS_GetFileList       200909e0 f   g_syscalls.obj
 0001:0008fa00       _trap_SnapVector           20090a00 f   g_syscalls.obj
 0001:0008fa20       _trap_SP_GetStringTextString 20090a20 f   g_syscalls.obj
 0001:0008fa40       _trap_ROFF_Clean           20090a40 f   g_syscalls.obj
 0001:0008fa50       _trap_ROFF_Play            20090a50 f   g_syscalls.obj
 0001:0008fa70       _trap_TrueMalloc           20090a70 f   g_syscalls.obj
 0001:0008fa90       _trap_TrueFree             20090a90 f   g_syscalls.obj
 0001:0008fab0       _trap_ICARUS_RunScript     20090ab0 f   g_syscalls.obj
 0001:0008fad0       _trap_ICARUS_Init          20090ad0 f   g_syscalls.obj
 0001:0008fae0       _trap_ICARUS_ValidEnt      20090ae0 f   g_syscalls.obj
 0001:0008fb00       _trap_ICARUS_IsInitialized 20090b00 f   g_syscalls.obj
 0001:0008fb20       _trap_ICARUS_MaintainTaskManager 20090b20 f   g_syscalls.obj
 0001:0008fb40       _trap_ICARUS_IsRunning     20090b40 f   g_syscalls.obj
 0001:0008fb60       _trap_ICARUS_TaskIDPending 20090b60 f   g_syscalls.obj
 0001:0008fb80       _trap_ICARUS_InitEnt       20090b80 f   g_syscalls.obj
 0001:0008fba0       _trap_ICARUS_FreeEnt       20090ba0 f   g_syscalls.obj
 0001:0008fbc0       _trap_ICARUS_Shutdown      20090bc0 f   g_syscalls.obj
 0001:0008fbd0       _trap_ICARUS_TaskIDSet     20090bd0 f   g_syscalls.obj
 0001:0008fbf0       _trap_ICARUS_TaskIDComplete 20090bf0 f   g_syscalls.obj
 0001:0008fc10       _trap_Nav_Load             20090c10 f   g_syscalls.obj
 0001:0008fc30       _trap_Nav_Save             20090c30 f   g_syscalls.obj
 0001:0008fc50       _trap_Nav_AddRawPoint      20090c50 f   g_syscalls.obj
 0001:0008fc70       _trap_Nav_CalculatePaths   20090c70 f   g_syscalls.obj
 0001:0008fc90       _trap_Nav_HardConnect      20090c90 f   g_syscalls.obj
 0001:0008fcb0       _trap_Nav_ShowPath         20090cb0 f   g_syscalls.obj
 0001:0008fcd0       _trap_Nav_GetNearestNode   20090cd0 f   g_syscalls.obj
 0001:0008fd00       _trap_Nav_GetBestNode      20090d00 f   g_syscalls.obj
 0001:0008fd20       _trap_Nav_GetNodePosition  20090d20 f   g_syscalls.obj
 0001:0008fd40       _trap_Nav_GetNodeNumEdges  20090d40 f   g_syscalls.obj
 0001:0008fd60       _trap_Nav_GetNodeEdge      20090d60 f   g_syscalls.obj
 0001:0008fd80       _trap_Nav_GetPathCost      20090d80 f   g_syscalls.obj
 0001:0008fda0       _trap_Nav_CheckFailedNodes 20090da0 f   g_syscalls.obj
 0001:0008fdc0       _trap_Nav_AddFailedNode    20090dc0 f   g_syscalls.obj
 0001:0008fde0       _trap_Nav_NodesAreNeighbors 20090de0 f   g_syscalls.obj
 0001:0008fe00       _trap_Nav_ClearAllFailedEdges 20090e00 f   g_syscalls.obj
 0001:0008fe10       _trap_Nav_AddFailedEdge    20090e10 f   g_syscalls.obj
 0001:0008fe30       _trap_Nav_CheckAllFailedEdges 20090e30 f   g_syscalls.obj
 0001:0008fe40       _trap_Nav_GetBestNodeAltRoute2 20090e40 f   g_syscalls.obj
 0001:0008fe60       _trap_Nav_GetBestPathBetweenEnts 20090e60 f   g_syscalls.obj
 0001:0008fe80       _trap_Nav_CheckBlockedEdges 20090e80 f   g_syscalls.obj
 0001:0008fe90       _trap_Nav_ClearCheckedNodes 20090e90 f   g_syscalls.obj
 0001:0008fea0       _trap_Nav_SetPathsCalculated 20090ea0 f   g_syscalls.obj
 0001:0008fec0       _trap_SV_RegisterSharedMemory 20090ec0 f   g_syscalls.obj
 0001:0008fee0       _trap_BotLibSetup          20090ee0 f   g_syscalls.obj
 0001:0008fef0       _trap_BotLibShutdown       20090ef0 f   g_syscalls.obj
 0001:0008ff00       _trap_BotGetServerCommand  20090f00 f   g_syscalls.obj
 0001:0008ff20       _trap_BotUserCommand       20090f20 f   g_syscalls.obj
 0001:0008ff40       _trap_EA_Say               20090f40 f   g_syscalls.obj
 0001:0008ff60       _trap_EA_SayTeam           20090f60 f   g_syscalls.obj
 0001:0008ff80       _trap_EA_Command           20090f80 f   g_syscalls.obj
 0001:0008ffa0       _trap_EA_Attack            20090fa0 f   g_syscalls.obj
 0001:0008ffc0       _trap_EA_Alt_Attack        20090fc0 f   g_syscalls.obj
 0001:0008ffe0       _trap_EA_ForcePower        20090fe0 f   g_syscalls.obj
 0001:00090000       _trap_EA_Use               20091000 f   g_syscalls.obj
 0001:00090020       _trap_EA_Crouch            20091020 f   g_syscalls.obj
 0001:00090040       _trap_EA_MoveForward       20091040 f   g_syscalls.obj
 0001:00090060       _trap_EA_MoveBack          20091060 f   g_syscalls.obj
 0001:00090080       _trap_EA_MoveLeft          20091080 f   g_syscalls.obj
 0001:000900a0       _trap_EA_MoveRight         200910a0 f   g_syscalls.obj
 0001:000900c0       _trap_EA_SelectWeapon      200910c0 f   g_syscalls.obj
 0001:000900e0       _trap_EA_Jump              200910e0 f   g_syscalls.obj
 0001:00090100       _trap_EA_Move              20091100 f   g_syscalls.obj
 0001:00090130       _trap_EA_View              20091130 f   g_syscalls.obj
 0001:00090150       _trap_EA_GetInput          20091150 f   g_syscalls.obj
 0001:00090180       _trap_EA_ResetInput        20091180 f   g_syscalls.obj
 0001:000901a0       _trap_BotResetGoalState    200911a0 f   g_syscalls.obj
 0001:000901c0       _trap_BotResetAvoidGoals   200911c0 f   g_syscalls.obj
 0001:000901e0       _trap_BotAllocGoalState    200911e0 f   g_syscalls.obj
 0001:00090200       _trap_BotFreeGoalState     20091200 f   g_syscalls.obj
 0001:00090220       _trap_BotResetMoveState    20091220 f   g_syscalls.obj
 0001:00090240       _trap_BotResetAvoidReach   20091240 f   g_syscalls.obj
 0001:00090260       _trap_BotAllocMoveState    20091260 f   g_syscalls.obj
 0001:00090270       _trap_BotFreeMoveState     20091270 f   g_syscalls.obj
 0001:00090290       _trap_BotAllocWeaponState  20091290 f   g_syscalls.obj
 0001:000902a0       _trap_BotFreeWeaponState   200912a0 f   g_syscalls.obj
 0001:000902c0       _trap_BotResetWeaponState  200912c0 f   g_syscalls.obj
 0001:000902e0       _trap_R_RegisterSkin       200912e0 f   g_syscalls.obj
 0001:00090300       _trap_G2_HaveWeGhoul2Models 20091300 f   g_syscalls.obj
 0001:00090320       _trap_G2API_GetBoltMatrix  20091320 f   g_syscalls.obj
 0001:00090360       _trap_G2API_GetBoltMatrix_NoRecNoRot 20091360 f   g_syscalls.obj
 0001:000903a0       _trap_G2API_InitGhoul2Model 200913a0 f   g_syscalls.obj
 0001:000903e0       _trap_G2API_SetSkin        200913e0 f   g_syscalls.obj
 0001:00090410       _trap_G2API_AddBolt        20091410 f   g_syscalls.obj
 0001:00090430       _trap_G2API_SetBoltInfo    20091430 f   g_syscalls.obj
 0001:00090450       _trap_G2API_SetBoneAngles  20091450 f   g_syscalls.obj
 0001:000904a0       _trap_G2API_SetBoneAnim    200914a0 f   g_syscalls.obj
 0001:00090500       _trap_G2API_GetBoneAnim    20091500 f   g_syscalls.obj
 0001:00090550       _trap_G2API_GetGLAName     20091550 f   g_syscalls.obj
 0001:00090570       _trap_G2API_CopySpecificGhoul2Model 20091570 f   g_syscalls.obj
 0001:000905a0       _trap_G2API_DuplicateGhoul2Instance 200915a0 f   g_syscalls.obj
 0001:000905c0       _trap_G2API_RemoveGhoul2Model 200915c0 f   g_syscalls.obj
 0001:000905e0       _trap_G2API_RemoveGhoul2Models 200915e0 f   g_syscalls.obj
 0001:00090600       _trap_G2API_CleanGhoul2Models 20091600 f   g_syscalls.obj
 0001:00090620       _trap_G2API_CollisionDetect 20091620 f   g_syscalls.obj
 0001:00090680       _trap_G2API_CollisionDetectCache 20091680 f   g_syscalls.obj
 0001:000906e0       _trap_G2API_GetSurfaceName 200916e0 f   g_syscalls.obj
 0001:00090710       _trap_G2API_SetSurfaceOnOff 20091710 f   g_syscalls.obj
 0001:00090730       _trap_G2API_GetSurfaceRenderStatus 20091730 f   g_syscalls.obj
 0001:00090750       _trap_G2API_AnimateG2Models 20091750 f   g_syscalls.obj
 0001:00090770       _trap_G2API_SetBoneIKState 20091770 f   g_syscalls.obj
 0001:000907a0       _trap_G2API_IKMove         200917a0 f   g_syscalls.obj
 0001:000907c0       _trap_G2API_AttachInstanceToEntNum 200917c0 f   g_syscalls.obj
 0001:000907e0       _trap_G2API_CleanEntAttachments 200917e0 f   g_syscalls.obj
 0001:000907f0       _trap_G2API_OverrideServer 200917f0 f   g_syscalls.obj
 0001:00090810       _trap_SetActiveSubBSP      20091810 f   g_syscalls.obj
 0001:00090830       _trap_CM_RegisterTerrain   20091830 f   g_syscalls.obj
 0001:00090850       _trap_RMG_Init             20091850 f   g_syscalls.obj
 0001:00090870       _trap_Bot_UpdateWaypoints  20091870 f   g_syscalls.obj
 0001:00090890       _trap_Bot_CalculatePaths   20091890 f   g_syscalls.obj
 0001:000908b0       _Use_Target_Give           200918b0 f   g_target.obj
 0001:00090940       _SP_target_give            20091940 f   g_target.obj
 0001:00090950       _Use_target_remove_powerups 20091950 f   g_target.obj
 0001:000909b0       _SP_target_remove_powerups 200919b0 f   g_target.obj
 0001:000909c0       _Think_Target_Delay        200919c0 f   g_target.obj
 0001:000909e0       _Use_Target_Delay          200919e0 f   g_target.obj
 0001:00090a60       _SP_target_delay           20091a60 f   g_target.obj
 0001:00090ac0       _Use_Target_Score          20091ac0 f   g_target.obj
 0001:00090ae0       _SP_target_score           20091ae0 f   g_target.obj
 0001:00090b10       _Use_Target_Print          20091b10 f   g_target.obj
 0001:00090cf0       _SP_target_print           20091cf0 f   g_target.obj
 0001:00090d00       _Use_Target_Speaker        20091d00 f   g_target.obj
 0001:00090da0       _SP_target_speaker         20091da0 f   g_target.obj
 0001:00090f20       _target_laser_think        20091f20 f   g_target.obj
 0001:000910a0       _target_laser_use          200920a0 f   g_target.obj
 0001:000910f0       _target_laser_start        200920f0 f   g_target.obj
 0001:000911c0       _SP_target_laser           200921c0 f   g_target.obj
 0001:000911e0       _target_teleporter_use     200921e0 f   g_target.obj
 0001:00091240       _SP_target_teleporter      20092240 f   g_target.obj
 0001:00091280       _target_relay_use          20092280 f   g_target.obj
 0001:00091360       _SP_target_relay           20092360 f   g_target.obj
 0001:00091390       _target_kill_use           20092390 f   g_target.obj
 0001:000913c0       _SP_target_kill            200923c0 f   g_target.obj
 0001:000913d0       _SP_target_position        200923d0 f   g_target.obj
 0001:000913d0       _SP_info_notnull           200923d0 f   g_misc.obj
 0001:000913d0       _SP_info_camp              200923d0 f   g_misc.obj
 0001:000914b0       _SP_target_location        200924b0 f   g_target.obj
 0001:000914e0       _target_counter_use        200924e0 f   g_target.obj
 0001:000915b0       _SP_target_counter         200925b0 f   g_target.obj
 0001:000915f0       _target_random_use         200925f0 f   g_target.obj
 0001:00091710       _SP_target_random          20092710 f   g_target.obj
 0001:00091720       _scriptrunner_run          20092720 f   g_target.obj
 0001:00091910       _target_scriptrunner_use   20092910 f   g_target.obj
 0001:00091970       _SP_target_scriptrunner    20092970 f   g_target.obj
 0001:00091a00       _G_SetActiveState          20092a00 f   g_target.obj
 0001:00091a60       _target_activate_use       20092a60 f   g_target.obj
 0001:00091a80       _target_deactivate_use     20092a80 f   g_target.obj
 0001:00091aa0       _SP_target_activate        20092aa0 f   g_target.obj
 0001:00091ac0       _SP_target_deactivate      20092ac0 f   g_target.obj
 0001:00091ae0       _target_level_change_use   20092ae0 f   g_target.obj
 0001:00091ba0       _SP_target_level_change    20092ba0 f   g_target.obj
 0001:00091cb0       _target_play_music_use     20092cb0 f   g_target.obj
 0001:00091cd0       _SP_target_play_music      20092cd0 f   g_target.obj
 0001:00091d30       _Use_Secret                20092d30 f   g_target.obj
 0001:00091e00       _SP_target_secret          20092e00 f   g_target.obj
 0001:00091e30       _CheckforGoodSpawnPoint    20092e30 f   g_target.obj
 0001:00091f20       _Use_Autosave              20092f20 f   g_target.obj
 0001:00092190       _SP_target_autosave        20093190 f   g_target.obj
 0001:000921b0       _TeamName                  200931b0 f   g_team.obj
 0001:000921e0       _PrintCTFMessage           200931e0 f   g_team.obj
 0001:00092240       _AddTeamScore              20093240 f   g_team.obj
 0001:00092310       _OnSameTeam                20093310 f   g_team.obj
 0001:000923f0       _Team_SetFlagStatus        200933f0 f   g_team.obj
 0001:00092480       _Team_CheckDroppedItem     20093480 f   g_team.obj
 0001:00092550       _Team_FragBonuses          20093550 f   g_team.obj
 0001:00092a50       _Team_CheckHurtCarrier     20093a50 f   g_team.obj
 0001:00092ae0       _Team_ResetFlag            20093ae0 f   g_team.obj
 0001:00092b80       _Team_TakeFlagSound        20093b80 f   g_team.obj
 0001:00092c20       _Team_CaptureFlagSound     20093c20 f   g_team.obj
 0001:00092c60       _Team_ReturnFlag           20093c60 f   g_team.obj
 0001:00092cf0       _Team_FreeEntity           20093cf0 f   g_team.obj
 0001:00092e30       _Team_DroppedFlagThink     20093e30 f   g_team.obj
 0001:00092eb0       _Team_TouchOurFlag         20093eb0 f   g_team.obj
 0001:000931d0       _Team_TouchEnemyFlag       200941d0 f   g_team.obj
 0001:00093290       _Pickup_Team               20094290 f   g_team.obj
 0001:00093320       _Team_GetLocation          20094320 f   g_team.obj
 0001:000933e0       _Team_GetLocationMsg       200943e0 f   g_team.obj
 0001:00093470       _SelectRandomTeamSpawnPoint 20094470 f   g_team.obj
 0001:00093600       _SelectCTFSpawnPoint       20094600 f   g_team.obj
 0001:00093670       _PointWouldTelefrag        20094670 f   g_team.obj
 0001:00093720       _SPSpawnpointCheck         20094720 f   g_team.obj
 0001:00093850       _SelectSPSpawnPoint        20094850 f   g_team.obj
 0001:00093960       _SelectSiegeSpawnPoint     20094960 f   g_team.obj
 0001:000939e0       _TeamplayInfoMessage       200949e0 f   g_team.obj
 0001:00093c20       _CheckTeamStatus           20094c20 f   g_team.obj
 0001:00093d10       _SP_team_CTF_blueplayer    20094d10 f   g_team.obj
 0001:00093d10       _touch_NULL                20094d10 f   g_weapon.obj
 0001:00093d10       _SP_team_CTF_bluespawn     20094d10 f   g_team.obj
 0001:00093d10       _SP_team_CTF_redspawn      20094d10 f   g_team.obj
 0001:00093d10       _SP_item_botroam           20094d10 f   g_spawn.obj
 0001:00093d10       _misc_model_breakable_touch 20094d10 f   g_breakable.obj
 0001:00093d10       _AnimateVehicle            20094d10 f   SpeederNPC.obj
 0001:00093d10       _G_DrawEdge                20094d10 f   g_nav.obj
 0001:00093d10       _SP_team_CTF_redplayer     20094d10 f   g_team.obj
 0001:00093d10       _NPC_PrecacheAnimationCFG  20094d10 f   NPC_stats.obj
 0001:00093d10       _BG_ClearAnimsets          20094d10 f   bg_panimate.obj
 0001:00093d10       _SP_info_player_intermission_red 20094d10 f   g_client.obj
 0001:00093d10       _G_Cube                    20094d10 f   g_nav.obj
 0001:00093d10       _funcBBrushTouch           20094d10 f   g_mover.obj
 0001:00093d10       _G_CleanAllFakeClients     20094d10 f   g_utils.obj
 0001:00093d10       _SP_info_player_intermission_blue 20094d10 f   g_client.obj
 0001:00093d10       _SP_misc_teleporter_dest   20094d10 f   g_misc.obj
 0001:00093d10       _B_CleanupAlloc            20094d10 f   ai_util.obj
 0001:00093d10       _LimbTouch                 20094d10 f   g_combat.obj
 0001:00093d10       _SP_info_player_intermission 20094d10 f   g_client.obj
 0001:00093d10       _SentryTouch               20094d10 f   g_items.obj
 0001:00093d10       _RegisterAssets            20094d10 f   g_vehicles.obj
 0001:00093d10       _RT_FireDecide             20094d10 f   NPC_AI_RocketTrooper.obj
 0001:00093d10       _GlassPain                 20094d10 f   g_mover.obj
 0001:00093d10       _SaberGotHit               20094d10 f   w_saber.obj
 0001:00093d10       _G_DrawNode                20094d10 f   g_nav.obj
 0001:00093d20       _OJP_PointSpread           20094d20 f   g_team.obj
 0001:00093d40       _Team_InitGame             20094d40 f   g_team.obj
 0001:00093e10       _TIMER_Clear               20094e10 f   g_timer.obj
 0001:00093e50       _TIMER_Clear2              20094e50 f   g_timer.obj
 0001:00093eb0       _TIMER_GetNew              20094eb0 f   g_timer.obj
 0001:00093f10       _TIMER_GetExisting         20094f10 f   g_timer.obj
 0001:00093f50       _TIMER_Set                 20094f50 f   g_timer.obj
 0001:00093f80       _TIMER_Get                 20094f80 f   g_timer.obj
 0001:00093fa0       _TIMER_Done                20094fa0 f   g_timer.obj
 0001:00093fd0       _TIMER_RemoveHelper        20094fd0 f   g_timer.obj
 0001:00094030       _TIMER_Done2               20095030 f   g_timer.obj
 0001:00094080       _TIMER_Exists              20095080 f   g_timer.obj
 0001:000940a0       _TIMER_Remove              200950a0 f   g_timer.obj
 0001:000940d0       _TIMER_Start               200950d0 f   g_timer.obj
 0001:00094130       _InitTrigger               20095130 f   g_trigger.obj
 0001:000941c0       _G_NameInTriggerClassList  200951c0 f   g_trigger.obj
 0001:00094250       _trigger_cleared_fire      20095250 f   g_trigger.obj
 0001:000942d0       _Do_Strike                 200952d0 f   g_trigger.obj
 0001:00094450       _Think_Strike              20095450 f   g_trigger.obj
 0001:000944a0       _Use_Strike                200954a0 f   g_trigger.obj
 0001:000944d0       _SP_trigger_lightningstrike 200954d0 f   g_trigger.obj
 0001:000945b0       _trigger_always_think      200955b0 f   g_trigger.obj
 0001:000945d0       _SP_trigger_always         200955d0 f   g_trigger.obj
 0001:000945f0       _trigger_push_touch        200955f0 f   g_trigger.obj
 0001:00094850       _AimAtTarget               20095850 f   g_trigger.obj
 0001:00094a70       _SP_trigger_push           20095a70 f   g_trigger.obj
 0001:00094ae0       _Use_target_push           20095ae0 f   g_trigger.obj
 0001:00094b60       _SP_target_push            20095b60 f   g_trigger.obj
 0001:00094c40       _trigger_teleporter_touch  20095c40 f   g_trigger.obj
 0001:00094cb0       _SP_trigger_teleport       20095cb0 f   g_trigger.obj
 0001:00094d00       _hurt_use                  20095d00 f   g_trigger.obj
 0001:00094d60       _hurt_touch                20095d60 f   g_trigger.obj
 0001:00094ff0       _SP_trigger_hurt           20095ff0 f   g_trigger.obj
 0001:00095080       _space_touch               20096080 f   g_trigger.obj
 0001:00095170       _SP_trigger_space          20096170 f   g_trigger.obj
 0001:000951a0       _shipboundary_touch        200961a0 f   g_trigger.obj
 0001:000952d0       _shipboundary_think        200962d0 f   g_trigger.obj
 0001:000953a0       _SP_trigger_shipboundary   200963a0 f   g_trigger.obj
 0001:00095430       _hyperspace_touch          20096430 f   g_trigger.obj
 0001:00095810       _SP_trigger_hyperspace     20096810 f   g_trigger.obj
 0001:00095900       _func_timer_think          20096900 f   g_trigger.obj
 0001:00095960       _func_timer_use            20096960 f   g_trigger.obj
 0001:000959a0       _SP_func_timer             200969a0 f   g_trigger.obj
 0001:00095a50       _asteroid_pick_random_asteroid 20096a50 f   g_trigger.obj
 0001:00095af0       _asteroid_count_num_asteroids 20096af0 f   g_trigger.obj
 0001:00095ba0       _asteroid_move_to_start    20096ba0 f   g_trigger.obj
 0001:00095bd0       _trigger_visible_think     20096bd0 f   g_trigger.obj
 0001:00095d00       _SP_trigger_visible        20096d00 f   g_trigger.obj
 0001:00095d60       _SP_trigger_location       20096d60 f   g_trigger.obj
 0001:00095d80       _multi_trigger_run         20096d80 f   g_trigger.obj
 0001:00095f30       _multi_trigger             20096f30 f   g_trigger.obj
 0001:000962f0       _Use_Multi                 200972f0 f   g_trigger.obj
 0001:00096310       _Touch_Multi               20097310 f   g_trigger.obj
 0001:000966e0       _SP_trigger_multiple       200976e0 f   g_trigger.obj
 0001:00096860       _SP_trigger_once           20097860 f   g_trigger.obj
 0001:00096960       _asteroid_move_to_start2   20097960 f   g_trigger.obj
 0001:00096be0       _asteroid_field_think      20097be0 f   g_trigger.obj
 0001:00096d20       _SP_trigger_asteroid_field 20097d20 f   g_trigger.obj
 0001:00096e00       _TurretPain                20097e00 f   g_turret.obj
 0001:00096eb0       _TurretBasePain            20097eb0 f   g_turret.obj
 0001:00096f10       _auto_turret_die           20097f10 f   g_turret.obj
 0001:000970b0       _bottom_die                200980b0 f   g_turret.obj
 0001:000972d0       _turret_head_think         200982d0 f   g_turret.obj
 0001:00097b70       _turret_base_think         20098b70 f   g_turret.obj
 0001:00097e00       _turret_base_use           20098e00 f   g_turret.obj
 0001:00097e10       _turret_base_spawn_top     20098e10 f   g_turret.obj
 0001:000981d0       _SP_misc_turret            200991d0 f   g_turret.obj
 0001:00098350       _G2Tur_SetBoneAngles       20099350 f   g_turret_G2.obj
 0001:00098450       _turretG2_set_models       20099450 f   g_turret_G2.obj
 0001:000985c0       _TurretG2Pain              200995c0 f   g_turret_G2.obj
 0001:00098670       _turretG2_die              20099670 f   g_turret_G2.obj
 0001:000988a0       _EWeb_SetBoneAnim          200998a0 f   g_items.obj
 0001:000988a0       _TurboLaser_SetBoneAnim    200998a0 f   g_turret_G2.obj
 0001:00098b90       _turretG2_head_think       20099b90 f   g_turret_G2.obj
 0001:000994c0       _turretG2_base_use         2009a4c0 f   g_turret_G2.obj
 0001:00099500       _turretG2_respawn          2009a500 f   g_turret_G2.obj
 0001:00099590       _turretG2_base_think       2009a590 f   g_turret_G2.obj
 0001:000998a0       _finish_spawning_turretG2  2009a8a0 f   g_turret_G2.obj
 0001:00099d40       _SP_misc_turretG2          2009ad40 f   g_turret_G2.obj
 0001:00099e90       _AddRemap                  2009ae90 f   g_utils.obj
 0001:00099f60       _BuildShaderStateConfig    2009af60 f   g_utils.obj
 0001:0009a0c0       _G_BoneIndex               2009b0c0 f   g_utils.obj
 0001:0009a0e0       _G_ModelIndex              2009b0e0 f   g_utils.obj
 0001:0009a100       _G_IconIndex               2009b100 f   g_utils.obj
 0001:0009a120       _G_SoundIndex              2009b120 f   g_utils.obj
 0001:0009a140       _G_SoundSetIndex           2009b140 f   g_utils.obj
 0001:0009a160       _G_EffectIndex             2009b160 f   g_utils.obj
 0001:0009a180       _G_BSPIndex                2009b180 f   g_utils.obj
 0001:0009a1a0       _G_PlayerHasCustomSkeleton 2009b1a0 f   g_utils.obj
 0001:0009a1a0       _AddPassenger              2009b1a0 f   g_vehicles.obj
 0001:0009a1b0       _G_TeamCommand             2009b1b0 f   g_utils.obj
 0001:0009a220       _G_Find                    2009b220 f   g_utils.obj
 0001:0009a2b0       _G_RadiusList              2009b2b0 f   g_utils.obj
 0001:0009a460       _G_AllocateVehicleObject   2009b460 f   g_utils.obj
 0001:0009a4f0       _G_FreeVehicleObject       2009b4f0 f   g_utils.obj
 0001:0009a530       _G_CreateFakeClient        2009b530 f   g_utils.obj
 0001:0009a570       _G_SetAnim                 2009b570 f   g_utils.obj
 0001:0009a5a0       _G_PickTarget              2009b5a0 f   g_utils.obj
 0001:0009a640       _GlobalUse                 2009b640 f   g_utils.obj
 0001:0009a670       _G_UseTargets2             2009b670 f   g_utils.obj
 0001:0009a760       _G_UseTargets              2009b760 f   g_utils.obj
 0001:0009a780       _vtos                      2009b780 f   g_utils.obj
 0001:0009a7d0       _G_SetMovedir              2009b7d0 f   g_utils.obj
 0001:0009a8c0       _G_InitGentity             2009b8c0 f   g_utils.obj
 0001:0009a910       _G_SpewEntList             2009b910 f   g_utils.obj
 0001:0009aa20       _FindRemoveAbleGent        2009ba20 f   g_utils.obj
 0001:0009ab80       _G_SendG2KillQueue         2009bb80 f   g_utils.obj
 0001:0009ac10       _G_KillG2Queue             2009bc10 f   g_utils.obj
 0001:0009ac50       _G_FreeEntity              2009bc50 f   g_utils.obj
 0001:0009ae50       _G_ScaleNetHealth          2009be50 f   g_utils.obj
 0001:0009aee0       _G_KillBox                 2009bee0 f   g_utils.obj
 0001:0009afc0       _G_AddPredictableEvent     2009bfc0 f   g_utils.obj
 0001:0009aff0       _G_AddEvent                2009bff0 f   g_utils.obj
 0001:0009b0a0       _ValidUseTarget            2009c0a0 f   g_utils.obj
 0001:0009b0d0       _G_UseDispenserOn          2009c0d0 f   g_utils.obj
 0001:0009b210       _G_CanUseDispOn            2009c210 f   g_utils.obj
 0001:0009b2a0       _G_PointInBounds           2009c2a0 f   g_utils.obj
 0001:0009b2f0       _G_BoxInBounds             2009c2f0 f   g_utils.obj
 0001:0009b3b0       _G_SetAngles               2009c3b0 f   g_utils.obj
 0001:0009b400       _G_SetOrigin               2009c400 f   g_utils.obj
 0001:0009b4b0       _G_CheckInSolid            2009c4b0 f   g_utils.obj
 0001:0009b5a0       _G_ROFF_NotetrackCallback  2009c5a0 f   g_utils.obj
 0001:0009b6c0       _G_SpeechEvent             2009c6c0 f   g_utils.obj
 0001:0009b6e0       _G_ExpandPointToBBox       2009c6e0 f   g_utils.obj
 0001:0009b8a0       _ShortestLineSegBewteen2LineSegs 2009c8a0 f   g_utils.obj
 0001:0009bfd0       _GetAnglesForDirection     2009cfd0 f   g_utils.obj
 0001:0009c010       _TextWrapCenterPrint       2009d010 f   g_utils.obj
 0001:0009c0c0       _G_Spawn                   2009d0c0 f   g_utils.obj
 0001:0009c290       _G_TempEntity              2009d290 f   g_utils.obj
 0001:0009c310       _G_SoundTempEntity         2009d310 f   g_utils.obj
 0001:0009c390       _G_PlayEffect              2009d390 f   g_utils.obj
 0001:0009c3e0       _G_PlayEffectID            2009d3e0 f   g_utils.obj
 0001:0009c460       _G_PlayBoltedEffect        2009d460 f   g_utils.obj
 0001:0009c4c0       _G_ScreenShake             2009d4c0 f   g_utils.obj
 0001:0009c520       _G_MuteSound               2009d520 f   g_utils.obj
 0001:0009c580       _G_Sound                   2009d580 f   g_utils.obj
 0001:0009c660       _G_SoundAtLoc              2009d660 f   g_utils.obj
 0001:0009c690       _G_EntitySound             2009d690 f   g_utils.obj
 0001:0009c690       _G_SoundIndexOnEnt         2009d690 f   g_utils.obj
 0001:0009c6d0       _G_SoundOnEnt              2009d6d0 f   g_utils.obj
 0001:0009c720       _TryHeal                   2009d720 f   g_utils.obj
 0001:0009c8c0       _TryUse                    2009d8c0 f   g_utils.obj
 0001:0009cea0       _Vehicle_SetAnim           2009dea0 f   g_vehicles.obj
 0001:0009cef0       _G_VehicleTrace            2009def0 f   g_vehicles.obj
 0001:0009cf00       _G_VehicleSpawn            2009df00 f   g_vehicles.obj
 0001:0009cfd0       _Animate                   2009dfd0 f   g_vehicles.obj
 0001:0009d010       _ValidateBoard             2009e010 f   g_vehicles.obj
 0001:0009d190       _Board                     2009e190 f   g_vehicles.obj
 0001:0009d490       _VEH_TryEject              2009e490 f   g_vehicles.obj
 0001:0009d6e0       _G_EjectDroidUnit          2009e6e0 f   g_vehicles.obj
 0001:0009d760       _Eject                     2009e760 f   g_vehicles.obj
 0001:0009dc00       _EjectAll                  2009ec00 f   g_vehicles.obj
 0001:0009e8e0       _G_VehicleDamageBoxSizing  2009f8e0 f   g_vehicles.obj
 0001:0009ead0       _G_FlyVehicleImpactDir     2009fad0 f   g_vehicles.obj
 0001:0009ee00       _G_ShipSurfaceForSurfName  2009fe00 f   g_vehicles.obj
 0001:0009ef00       _G_SetVehDamageFlags       2009ff00 f   g_vehicles.obj
 0001:0009f0b0       _G_VehicleSetDamageLocFlags 200a00b0 f   g_vehicles.obj
 0001:0009f2a0       _G_FlyVehicleDestroySurface 200a02a0 f   g_vehicles.obj
 0001:0009f420       _G_FlyVehicleSurfaceDestruction 200a0420 f   g_vehicles.obj
 0001:0009f560       _G_VehUpdateShields        200a0560 f   g_vehicles.obj
 0001:0009f5d0       _SetParent                 200a05d0 f i g_vehicles.obj
 0001:0009f5e0       _SetPilot                  200a05e0 f i g_vehicles.obj
 0001:0009f5f0       _Inhabited                 200a05f0 f i g_vehicles.obj
 0001:0009f610       _DrivingCloakableVehicle   200a0610 f   g_vehicles.obj
 0001:0009f650       _G_ToggleVehicleCloak      200a0650 f   g_vehicles.obj
 0001:0009f6f0       _Initialize                200a06f0 f   g_vehicles.obj
 0001:000a0470       _G_SetSharedVehicleFunctions 200a1470 f   g_vehicles.obj
 0001:000a0530       _VEH_TurretCheckFire       200a1530 f   g_vehicleTurret.obj
 0001:000a0630       _VEH_TurretAnglesToEnemy   200a1630 f   g_vehicleTurret.obj
 0001:000a0760       _VEH_TurretAim             200a1760 f   g_vehicleTurret.obj
 0001:000a0d40       _VEH_TurretObeyPassengerControl 200a1d40 f   g_vehicleTurret.obj
 0001:000a0e20       _VEH_TurretThink           200a1e20 f   g_vehicleTurret.obj
 0001:000a1220       _WP_SpeedOfMissileForWeapon 200a2220 f   g_weapon.obj
 0001:000a1230       _W_TraceSetStart           200a2230 f   g_weapon.obj
 0001:000a14b0       _WP_FireTurretMissile      200a24b0 f   g_weapon.obj
 0001:000a1540       _WP_FireGenericBlasterMissile 200a2540 f   g_weapon.obj
 0001:000a15b0       _WP_FireBlasterMissile     200a25b0 f   g_weapon.obj
 0001:000a1630       _WP_FireTurboLaserMissile  200a2630 f   g_weapon.obj
 0001:000a1710       _WP_FireEmplacedMissile    200a2710 f   g_weapon.obj
 0001:000a1840       _G_CanDisruptify           200a2840 f   g_weapon.obj
 0001:000a1e20       _DEMP2_AltRadiusDamage     200a2e20 f   g_weapon.obj
 0001:000a2260       _DEMP2_AltDetonate         200a3260 f   g_weapon.obj
 0001:000a2730       _WP_Explode                200a3730 f   g_weapon.obj
 0001:000a2830       _RocketDie                 200a3830 f   g_weapon.obj
 0001:000a2870       _thermalDetonatorExplode   200a3870 f   g_weapon.obj
 0001:000a29a0       _thermalThinkStandard      200a39a0 f   g_weapon.obj
 0001:000a29f0       _WP_FireThermalDetonator   200a39f0 f   g_weapon.obj
 0001:000a2c90       _WP_DropThermal            200a3c90 f   g_weapon.obj
 0001:000a2cd0       _WP_LobFire                200a3cd0 f   g_weapon.obj
 0001:000a31a0       _laserTrapExplode          200a41a0 f   g_weapon.obj
 0001:000a3270       _laserTrapDelayedExplode   200a4270 f   g_weapon.obj
 0001:000a32e0       _proxMineThink             200a42e0 f   g_weapon.obj
 0001:000a3450       _laserTrapThink            200a4450 f   g_weapon.obj
 0001:000a3550       _laserTrapStick            200a4550 f   g_weapon.obj
 0001:000a3790       _TrapThink                 200a4790 f   g_weapon.obj
 0001:000a37b0       _VectorNPos                200a47b0 f   g_weapon.obj
 0001:000a37f0       _DetPackBlow               200a47f0 f   g_weapon.obj
 0001:000a38e0       _DetPackPain               200a48e0 f   g_weapon.obj
 0001:000a38e0       _DetPackDie                200a48e0 f   g_weapon.obj
 0001:000a3920       _BlowDetpacks              200a4920 f   g_weapon.obj
 0001:000a3b80       _WP_FireStunBaton          200a4b80 f   g_weapon.obj
 0001:000a3e20       _WP_FireMelee              200a4e20 f   g_weapon.obj
 0001:000a4070       _SnapVectorTowards         200a5070 f   g_weapon.obj
 0001:000a40d0       _LogAccuracyHit            200a50d0 f   g_weapon.obj
 0001:000a4120       _CalcMuzzlePoint           200a5120 f   g_weapon.obj
 0001:000a41f0       _WP_TouchVehMissile        200a51f0 f   g_weapon.obj
 0001:000a4230       _WP_CalcVehMuzzle          200a5230 f   g_weapon.obj
 0001:000a4340       _WP_VehWeapSetSolidToOwner 200a5340 f   g_weapon.obj
 0001:000a43a0       _G_VehMuzzleFireFX         200a53a0 f   g_weapon.obj
 0001:000a4410       _G_EstimateCamPos          200a5410 f   g_weapon.obj
 0001:000a4730       _WP_GetVehicleCamPos       200a5730 f   g_weapon.obj
 0001:000a48d0       _WP_VehLeadCrosshairVeh    200a58d0 f   g_weapon.obj
 0001:000a4a30       _WP_VehCheckTraceFromCamPos 200a5a30 f   g_weapon.obj
 0001:000a4e00       _emplaced_gun_use          200a5e00 f   g_weapon.obj
 0001:000a5060       _emplaced_gun_realuse      200a6060 f   g_weapon.obj
 0001:000a5070       _emplaced_gun_pain         200a6070 f   g_weapon.obj
 0001:000a5090       _emplaced_gun_update       200a6090 f   g_weapon.obj
 0001:000a5490       _emplaced_gun_die          200a6490 f   g_weapon.obj
 0001:000a54d0       _SP_emplaced_gun           200a64d0 f   g_weapon.obj
 0001:000a5730       _WP_PrimaryFireStunBaton   200a6730 f   g_weapon.obj
 0001:000a5740       _WP_PrimaryFireMelee       200a6740 f   g_weapon.obj
 0001:000a5750       _WP_PrimaryFireBryarPistol 200a6750 f   g_weapon.obj
 0001:000a57c0       _WP_PrimaryFireConcussion  200a67c0 f   g_weapon.obj
 0001:000a57d0       _WP_PrimaryFireBlaster     200a67d0 f   g_weapon.obj
 0001:000a5810       _WP_PrimaryFireBowcaster   200a6810 f   g_weapon.obj
 0001:000a5820       _WP_PrimaryFireRepeater    200a6820 f   g_weapon.obj
 0001:000a5840       _WP_PrimaryFireDEMP2       200a6840 f   g_weapon.obj
 0001:000a5850       _WP_PrimaryFireThermalDetonator 200a6850 f   g_weapon.obj
 0001:000a5860       _WP_AltFireStunBaton       200a6860 f   g_weapon.obj
 0001:000a5870       _WP_AltFireMelee           200a6870 f   g_weapon.obj
 0001:000a5880       _WP_AltFireBryarPistol     200a6880 f   g_weapon.obj
 0001:000a5890       _WP_AltFireBlaster         200a6890 f   g_weapon.obj
 0001:000a58b0       _WP_AltFireBowcaster       200a68b0 f   g_weapon.obj
 0001:000a58c0       _WP_AltFireRepeater        200a68c0 f   g_weapon.obj
 0001:000a58e0       _WP_AltFireDEMP2           200a68e0 f   g_weapon.obj
 0001:000a58f0       _WP_AltFireThermalDetonator 200a68f0 f   g_weapon.obj
 0001:000a5900       _SP_emplaced_eweb          200a6900 f   g_weapon.obj
 0001:000a5d10       _WP_DisruptorAltFire       200a6d10 f   g_weapon.obj
 0001:000a63c0       _WP_flechette_alt_blow     200a73c0 f   g_weapon.obj
 0001:000a6670       _rocketThink               200a7670 f   g_weapon.obj
 0001:000a6d50       _touchLaserTrap            200a7d50 f   g_weapon.obj
 0001:000a6df0       _CreateLaserTrap           200a7df0 f   g_weapon.obj
 0001:000a7010       _WP_PlaceLaserTrap         200a8010 f   g_weapon.obj
 0001:000a71c0       _charge_stick              200a81c0 f   g_weapon.obj
 0001:000a74f0       _drop_charge               200a84f0 f   g_weapon.obj
 0001:000a7770       _WP_DropDetPack            200a8770 f   g_weapon.obj
 0001:000a7ef0       _WP_FireVehicleWeapon      200a8ef0 f   g_weapon.obj
 0001:000a8380       _FireVehicleWeapon         200a9380 f   g_weapon.obj
 0001:000a8d10       _FireWeapon                200a9d10 f   g_weapon.obj
 0001:000a9150       _WP_PrimaryFireDisruptor   200aa150 f   g_weapon.obj
 0001:000a9180       _WP_PrimaryFireFlechette   200aa180 f   g_weapon.obj
 0001:000a9190       _WP_PrimaryFireRocket      200aa190 f   g_weapon.obj
 0001:000a91b0       _WP_PrimaryPlaceLaserTrap  200aa1b0 f   g_weapon.obj
 0001:000a91c0       _WP_PrimaryDropDetPack     200aa1c0 f   g_weapon.obj
 0001:000a91d0       _WP_AltFireConcussion      200aa1d0 f   g_weapon.obj
 0001:000a91e0       _WP_AltFireDisruptor       200aa1e0 f   g_weapon.obj
 0001:000a9230       _WP_AltFireFlechette       200aa230 f   g_weapon.obj
 0001:000a9240       _WP_AltFireRocket          200aa240 f   g_weapon.obj
 0001:000a9260       _WP_AltPlaceLaserTrap      200aa260 f   g_weapon.obj
 0001:000a9270       _WP_AltDropDetPack         200aa270 f   g_weapon.obj
 0001:000a9280       _G_OkayToRemoveCorpse      200aa280 f   NPC.obj
 0001:000a9330       _BodyRemovalPadTime        200aa330 f   NPC.obj
 0001:000a93a0       _pitch_roll_for_slope      200aa3a0 f   NPC.obj
 0001:000a96f0       _SetNPCGlobals             200aa6f0 f   NPC.obj
 0001:000a9740       _SaveNPCGlobals            200aa740 f   NPC.obj
 0001:000a9780       _RestoreNPCGlobals         200aa780 f   NPC.obj
 0001:000a97c0       _ClearNPCGlobals           200aa7c0 f   NPC.obj
 0001:000a97e0       _NPC_ApplyScriptFlags      200aa7e0 f   NPC.obj
 0001:000a9940       _NPC_HandleAIFlags         200aa940 f   NPC.obj
 0001:000a9a30       _NPC_CheckAttackHold       200aaa30 f   NPC.obj
 0001:000a9b10       _NPC_KeepCurrentFacing     200aab10 f   NPC.obj
 0001:000a9b80       _NPC_BehaviorSet_Charmed   200aab80 f   NPC.obj
 0001:000a9be0       _NPC_BehaviorSet_Default   200aabe0 f   NPC.obj
 0001:000a9c70       _NPC_BehaviorSet_Interrogator 200aac70 f   NPC.obj
 0001:000a9cb0       _NPC_BehaviorSet_ImperialProbe 200aacb0 f   NPC.obj
 0001:000a9cf0       _NPC_BehaviorSet_Remote    200aacf0 f   NPC.obj
 0001:000a9d30       _NPC_BehaviorSet_Sentry    200aad30 f   NPC.obj
 0001:000a9d70       _NPC_BehaviorSet_Grenadier 200aad70 f   NPC.obj
 0001:000a9db0       _NPC_BehaviorSet_Sniper    200aadb0 f   NPC.obj
 0001:000a9df0       _NPC_BehaviorSet_Stormtrooper 200aadf0 f   NPC.obj
 0001:000a9e40       _NPC_BehaviorSet_Jedi      200aae40 f   NPC.obj
 0001:000a9e90       _NPC_BehaviorSet_Droid     200aae90 f   NPC.obj
 0001:000a9eb0       _NPC_BehaviorSet_Mark1     200aaeb0 f   NPC.obj
 0001:000a9ed0       _NPC_BehaviorSet_Mark2     200aaed0 f   NPC.obj
 0001:000a9f10       _NPC_BehaviorSet_ATST      200aaf10 f   NPC.obj
 0001:000a9f50       _NPC_BehaviorSet_MineMonster 200aaf50 f   NPC.obj
 0001:000a9f90       _NPC_BehaviorSet_Howler    200aaf90 f   NPC.obj
 0001:000a9fd0       _NPC_BehaviorSet_Rancor    200aafd0 f   NPC.obj
 0001:000aa010       _NPC_BehaviorSet_Wampa     200ab010 f   NPC.obj
 0001:000aa050       _NPC_BehaviorSet_SandCreature 200ab050 f   NPC.obj
 0001:000aa090       _NPC_BehaviorSet_Animal    200ab090 f   NPC.obj
 0001:000aa0b0       _NPC_RunBehavior           200ab0b0 f   NPC.obj
 0001:000aa4a0       _NPC_InitGame              200ab4a0 f   NPC.obj
 0001:000aa4b0       _NPC_SetAnim               200ab4b0 f   NPC.obj
 0001:000aa4e0       _CorpsePhysics             200ab4e0 f   NPC.obj
 0001:000aa5f0       _NPC_RemoveBody            200ab5f0 f   NPC.obj
 0001:000aa9e0       _NPC_ExecuteBState         200ab9e0 f   NPC.obj
 0001:000aaca0       _NPC_Think                 200abca0 f   NPC.obj
 0001:000ab0b0       _BubbleShield_TurnOn       200ac0b0 f   NPC_AI_AssassinDroid.obj
 0001:000ab0e0       _BubbleShield_TurnOff      200ac0e0 f   NPC_AI_AssassinDroid.obj
 0001:000ab110       _BubbleShield_PushEnt      200ac110 f   NPC_AI_AssassinDroid.obj
 0001:000ab180       _BubbleShield_PushRadiusEnts 200ac180 f   NPC_AI_AssassinDroid.obj
 0001:000ab2e0       _BubbleShield_Update       200ac2e0 f   NPC_AI_AssassinDroid.obj
 0001:000ab4d0       _NPC_ATST_Precache         200ac4d0 f   NPC_AI_Atst.obj
 0001:000ab520       _NPC_ATST_Pain             200ac520 f   NPC_AI_Atst.obj
 0001:000ab560       _ATST_Hunt                 200ac560 f   NPC_AI_Atst.obj
 0001:000ab5a0       _ATST_Ranged               200ac5a0 f   NPC_AI_Atst.obj
 0001:000ab640       _ATST_Attack               200ac640 f   NPC_AI_Atst.obj
 0001:000ab7c0       _ATST_Patrol               200ac7c0 f   NPC_AI_Atst.obj
 0001:000ab810       _NPC_BSATST_Default        200ac810 f   NPC_AI_Atst.obj
 0001:000ab870       _NPC_BSCivilian_Default    200ac870 f   NPC_AI_Civilian.obj
 0001:000ab990       _NPC_LostEnemyDecideChase  200ac990 f   NPC_AI_Default.obj
 0001:000ab9e0       _NPC_BSIdle                200ac9e0 f   NPC_AI_Default.obj
 0001:000aba10       _NPC_BSStandGuard          200aca10 f   NPC_AI_Default.obj
 0001:000abae0       _NPC_BSRunAndShoot         200acae0 f   NPC_AI_Default.obj
 0001:000abc80       _NPC_BSPatrol              200acc80 f   NPC_AI_Default.obj
 0001:000abd20       _NPC_BSDefault             200acd20 f   NPC_AI_Default.obj
 0001:000ac070       _R2D2_PartsMove            200ad070 f   NPC_AI_Droid.obj
 0001:000ac150       _R2D2_TurnAnims            200ad150 f   NPC_AI_Droid.obj
 0001:000ac210       _Droid_Patrol              200ad210 f   NPC_AI_Droid.obj
 0001:000ac450       _Droid_Run                 200ad450 f   NPC_AI_Droid.obj
 0001:000ac4e0       _Droid_Spin                200ad4e0 f   NPC_AI_Droid.obj
 0001:000ac750       _NPC_Droid_Pain            200ad750 f   NPC_AI_Droid.obj
 0001:000acbd0       _NPC_Mouse_Precache        200adbd0 f   NPC_AI_Droid.obj
 0001:000acc20       _NPC_R5D2_Precache         200adc20 f   NPC_AI_Droid.obj
 0001:000acca0       _NPC_R2D2_Precache         200adca0 f   NPC_AI_Droid.obj
 0001:000acd20       _NPC_Gonk_Precache         200add20 f   NPC_AI_Droid.obj
 0001:000acd60       _NPC_Protocol_Precache     200add60 f   NPC_AI_Droid.obj
 0001:000acd80       _NPC_BSDroid_Default       200add80 f   NPC_AI_Droid.obj
 0001:000ace30       _NPC_GalakMech_Precache    200ade30 f   NPC_AI_GalakMech.obj
 0001:000acea0       _NPC_GalakMech_Init        200adea0 f   NPC_AI_GalakMech.obj
 0001:000ad050       _NPC_GM_Pain               200ae050 f   NPC_AI_GalakMech.obj
 0001:000ad660       _NPC_GM_StartLaser         200ae660 f   NPC_AI_GalakMech.obj
 0001:000ad700       _NPC_BSGM_Attack           200ae700 f   NPC_AI_GalakMech.obj
 0001:000ae8e0       _NPC_BSGM_Default          200af8e0 f   NPC_AI_GalakMech.obj
 0001:000aec10       _NPC_BSGrenadier_Patrol    200afc10 f   NPC_AI_Grenadier.obj
 0001:000af0f0       _NPC_BSGrenadier_Attack    200b00f0 f   NPC_AI_Grenadier.obj
 0001:000af690       _NPC_BSGrenadier_Default   200b0690 f   NPC_AI_Grenadier.obj
 0001:000af6d0       _NPC_Howler_Precache       200b06d0 f   NPC_AI_Howler.obj
 0001:000af740       _Howler_ClearTimers        200b0740 f   NPC_AI_Howler.obj
 0001:000b0490       _NPC_Howler_Pain           200b1490 f   NPC_AI_Howler.obj
 0001:000b0750       _NPC_BSHowler_Default      200b1750 f   NPC_AI_Howler.obj
 0001:000b10d0       _NPC_Probe_Precache        200b20d0 f   NPC_AI_ImperialProbe.obj
 0001:000b1170       _ImperialProbe_MaintainHeight 200b2170 f   NPC_AI_ImperialProbe.obj
 0001:000b1350       _Sentry_Strafe             200b2350 f   NPC_AI_Sentry.obj
 0001:000b1350       _ImperialProbe_Strafe      200b2350 f   NPC_AI_ImperialProbe.obj
 0001:000b14a0       _ImperialProbe_Hunt        200b24a0 f   NPC_AI_ImperialProbe.obj
 0001:000b15d0       _ImperialProbe_FireBlaster 200b25d0 f   NPC_AI_ImperialProbe.obj
 0001:000b17c0       _ImperialProbe_Ranged      200b27c0 f   NPC_AI_ImperialProbe.obj
 0001:000b1820       _NPC_Probe_Pain            200b2820 f   NPC_AI_ImperialProbe.obj
 0001:000b1a10       _ImperialProbe_Patrol      200b2a10 f   NPC_AI_ImperialProbe.obj
 0001:000b1b30       _ImperialProbe_Wait        200b2b30 f   NPC_AI_ImperialProbe.obj
 0001:000b1c00       _ImperialProbe_AttackDecision 200b2c00 f   NPC_AI_ImperialProbe.obj
 0001:000b1d50       _NPC_BSImperialProbe_Default 200b2d50 f   NPC_AI_ImperialProbe.obj
 0001:000b1db0       _NPC_Interrogator_Precache 200b2db0 f   NPC_AI_Interrogator.obj
 0001:000b1e00       _Interrogator_PartsMove    200b2e00 f   NPC_AI_Interrogator.obj
 0001:000b2060       _Interrogator_MaintainHeight 200b3060 f   NPC_AI_Interrogator.obj
 0001:000b2260       _Interrogator_Strafe       200b3260 f   NPC_AI_Interrogator.obj
 0001:000b2420       _Interrogator_Hunt         200b3420 f   NPC_AI_Interrogator.obj
 0001:000b2560       _Interrogator_Melee        200b3560 f   NPC_AI_Interrogator.obj
 0001:000b2650       _Interrogator_Attack       200b3650 f   NPC_AI_Interrogator.obj
 0001:000b27c0       _NPC_BSInterrogator_Default 200b37c0 f   NPC_AI_Interrogator.obj
 0001:000b2810       _NPC_CultistDestroyer_Precache 200b3810 f   NPC_AI_Jedi.obj
 0001:000b2830       _NPC_ShadowTrooper_Precache 200b3830 f   NPC_AI_Jedi.obj
 0001:000b2860       _NPC_Rosh_Dark_Precache    200b3860 f   NPC_AI_Jedi.obj
 0001:000b2880       _Jedi_ClearTimers          200b3880 f   NPC_AI_Jedi.obj
 0001:000b29d0       _Jedi_CultistDestroyer     200b39d0 f   NPC_AI_Jedi.obj
 0001:000b2a20       _Jedi_PlayBlockedPushSound 200b3a20 f   NPC_AI_Jedi.obj
 0001:000b2a90       _NPC_Jedi_PlayConfusionSound 200b3a90 f   NPC_AI_Jedi.obj
 0001:000b2b30       _Jedi_StopKnockdown        200b3b30 f   NPC_AI_Jedi.obj
 0001:000b2d40       _NPC_TavionScepter_Precache 200b3d40 f   NPC_AI_Jedi.obj
 0001:000b2da0       _NPC_TavionSithSword_Precache 200b3da0 f   NPC_AI_Jedi.obj
 0001:000b2dd0       _Tavion_ScepterDamage      200b3dd0 f   NPC_AI_Jedi.obj
 0001:000b30d0       _Tavion_ScepterSlam        200b40d0 f   NPC_AI_Jedi.obj
 0001:000b3490       _Tavion_SithSwordRecharge  200b4490 f   NPC_AI_Jedi.obj
 0001:000b36e0       _Jedi_Cloak                200b46e0 f   NPC_AI_Jedi.obj
 0001:000b3720       _Jedi_Decloak              200b4720 f   NPC_AI_Jedi.obj
 0001:000b3760       _Jedi_CheckCloak           200b4760 f   NPC_AI_Jedi.obj
 0001:000b3840       _Boba_Precache             200b4840 f   NPC_AI_Jedi.obj
 0001:000b3880       _Boba_ChangeWeapon         200b4880 f   NPC_AI_Jedi.obj
 0001:000b38c0       _WP_ResistForcePush        200b48c0 f   NPC_AI_Jedi.obj
 0001:000b3b40       _Boba_StopKnockdown        200b4b40 f   NPC_AI_Jedi.obj
 0001:000b3d60       _Boba_FlyStart             200b4d60 f   NPC_AI_Jedi.obj
 0001:000b3e00       _Boba_FireFlameThrower     200b4e00 f   NPC_AI_Jedi.obj
 0001:000b3f80       _Boba_StartFlameThrower    200b4f80 f   NPC_AI_Jedi.obj
 0001:000b4080       _Boba_DoFlameThrower       200b5080 f   NPC_AI_Jedi.obj
 0001:000b40d0       _G_GroundDistance          200b50d0 f   NPC_AI_Jedi.obj
 0001:000b41e0       _Boba_FireDecide           200b51e0 f   NPC_AI_Jedi.obj
 0001:000b4bf0       _NPC_Jedi_RateNewEnemy     200b5bf0 f   NPC_AI_Jedi.obj
 0001:000b51d0       _NPC_MoveDirClear          200b61d0 f   NPC_AI_Jedi.obj
 0001:000b5c30       _Kyle_GrabEnemy            200b6c30 f   NPC_AI_Jedi.obj
 0001:000b5c60       _Kyle_TryGrab              200b6c60 f   NPC_AI_Jedi.obj
 0001:000b5d20       _Kyle_CanDoGrab            200b6d20 f   NPC_AI_Jedi.obj
 0001:000b7700       _Jedi_CheckFlipEvasions    200b8700 f   NPC_AI_Jedi.obj
 0001:000b81f0       _Jedi_ReCalcParryTime      200b91f0 f   NPC_AI_Jedi.obj
 0001:000b8360       _Jedi_SaberBusy            200b9360 f   NPC_AI_Jedi.obj
 0001:000b8420       _Jedi_InNoAIAnim           200b9420 f   NPC_AI_Jedi.obj
 0001:000b85f0       _Jedi_CheckJumpEvasionSafety 200b95f0 f   NPC_AI_Jedi.obj
 0001:000b8730       _Jedi_SaberBlockGo         200b9730 f   NPC_AI_Jedi.obj
 0001:000bb6b0       _NPC_EvasionSaber          200bc6b0 f   NPC_AI_Jedi.obj
 0001:000be4a0       _Jedi_CheckDanger          200bf4a0 f   NPC_AI_Jedi.obj
 0001:000be540       _Jedi_CheckAmbushPlayer    200bf540 f   NPC_AI_Jedi.obj
 0001:000be6f0       _Jedi_Ambush               200bf6f0 f   NPC_AI_Jedi.obj
 0001:000be790       _Jedi_WaitingAmbush        200bf790 f   NPC_AI_Jedi.obj
 0001:000becd0       _Jedi_CanPullBackSaber     200bfcd0 f   NPC_AI_Jedi.obj
 0001:000bed40       _NPC_BSJedi_FollowLeader   200bfd40 f   NPC_AI_Jedi.obj
 0001:000bef30       _Jedi_CheckKataAttack      200bff30 f   NPC_AI_Jedi.obj
 0001:000bfe80       _Rosh_BeingHealed          200c0e80 f   NPC_AI_Jedi.obj
 0001:000bfed0       _Rosh_TwinPresent          200c0ed0 f   NPC_AI_Jedi.obj
 0001:000bff20       _Kothos_HealRosh           200c0f20 f   NPC_AI_Jedi.obj
 0001:000c0260       _Kothos_Retreat            200c1260 f   NPC_AI_Jedi.obj
 0001:000c0290       _Twins_DangerDist          200c1290 f   NPC_AI_Jedi.obj
 0001:000c02c0       _Jedi_InSpecialMove        200c12c0 f   NPC_AI_Jedi.obj
 0001:000c0d50       _NPC_BSJedi_Default        200c1d50 f   NPC_AI_Jedi.obj
 0001:000c0f60       _NPC_Jedi_Pain             200c1f60 f   NPC_AI_Jedi.obj
 0001:000c13c0       _NPC_Mark1_Precache        200c23c0 f   NPC_AI_Mark1.obj
 0001:000c14a0       _NPC_Mark1_Part_Explode    200c24a0 f   NPC_AI_Mark1.obj
 0001:000c1560       _Mark1Dead_FireRocket      200c2560 f   NPC_AI_Mark1.obj
 0001:000c16e0       _Mark1Dead_FireBlaster     200c26e0 f   NPC_AI_Mark1.obj
 0001:000c1810       _Mark1_dying               200c2810 f   NPC_AI_Mark1.obj
 0001:000c1970       _NPC_Mark1_Pain            200c2970 f   NPC_AI_Mark1.obj
 0001:000c1b50       _Mark1_FireBlaster         200c2b50 f   NPC_AI_Mark1.obj
 0001:000c1d70       _Mark1_BlasterAttack       200c2d70 f   NPC_AI_Mark1.obj
 0001:000c1e90       _Mark1_FireRocket          200c2e90 f   NPC_AI_Mark1.obj
 0001:000c2040       _Mark1_RocketAttack        200c3040 f   NPC_AI_Mark1.obj
 0001:000c20a0       _Mark1_AttackDecision      200c30a0 f   NPC_AI_Mark1.obj
 0001:000c22a0       _Mark1_Patrol              200c32a0 f   NPC_AI_Mark1.obj
 0001:000c2310       _NPC_BSMark1_Default       200c3310 f   NPC_AI_Mark1.obj
 0001:000c2370       _NPC_Mark2_Precache        200c3370 f   NPC_AI_Mark2.obj
 0001:000c2400       _NPC_Mark2_Part_Explode    200c3400 f   NPC_AI_Mark2.obj
 0001:000c24e0       _NPC_Mark2_Pain            200c34e0 f   NPC_AI_Mark2.obj
 0001:000c25c0       _Mark1_Hunt                200c35c0 f   NPC_AI_Mark1.obj
 0001:000c25c0       _Mark2_Hunt                200c35c0 f   NPC_AI_Mark2.obj
 0001:000c2610       _Mark2_FireBlaster         200c3610 f   NPC_AI_Mark2.obj
 0001:000c27b0       _Mark2_BlasterAttack       200c37b0 f   NPC_AI_Mark2.obj
 0001:000c2840       _Mark2_AttackDecision      200c3840 f   NPC_AI_Mark2.obj
 0001:000c2b10       _Mark2_Patrol              200c3b10 f   NPC_AI_Mark2.obj
 0001:000c2ba0       _NPC_BSMark2_Default       200c3ba0 f   NPC_AI_Mark2.obj
 0001:000c2bf0       _NPC_MineMonster_Precache  200c3bf0 f   NPC_AI_MineMonster.obj
 0001:000c2c30       _MineMonster_Patrol        200c3c30 f   NPC_AI_MineMonster.obj
 0001:000c2d60       _MineMonster_Move          200c3d60 f   NPC_AI_MineMonster.obj
 0001:000c2da0       _MineMonster_TryDamage     200c3da0 f   NPC_AI_MineMonster.obj
 0001:000c2ee0       _MineMonster_Attack        200c3ee0 f   NPC_AI_MineMonster.obj
 0001:000c3150       _MineMonster_Combat        200c4150 f   NPC_AI_MineMonster.obj
 0001:000c3250       _NPC_MineMonster_Pain      200c4250 f   NPC_AI_MineMonster.obj
 0001:000c3310       _NPC_BSMineMonster_Default 200c4310 f   NPC_AI_MineMonster.obj
 0001:000c3380       _Rancor_SetBolts           200c4380 f   NPC_AI_Rancor.obj
 0001:000c3400       _NPC_Rancor_Precache       200c4400 f   NPC_AI_Rancor.obj
 0001:000c3450       _Rancor_CheckRoar          200c4450 f   NPC_AI_Rancor.obj
 0001:000c34b0       _Rancor_Patrol             200c44b0 f   NPC_AI_Rancor.obj
 0001:000c35b0       _Rancor_Move               200c45b0 f   NPC_AI_Rancor.obj
 0001:000c3620       _Rancor_DropVictim         200c4620 f   NPC_AI_Rancor.obj
 0001:000c3780       _Rancor_Swing              200c4780 f   NPC_AI_Rancor.obj
 0001:000c3b50       _Rancor_Smash              200c4b50 f   NPC_AI_Rancor.obj
 0001:000c3d10       _Rancor_Bite               200c4d10 f   NPC_AI_Rancor.obj
 0001:000c3ee0       _Rancor_Attack             200c4ee0 f   NPC_AI_Rancor.obj
 0001:000c46b0       _Rancor_Combat             200c56b0 f   NPC_AI_Rancor.obj
 0001:000c48e0       _NPC_Rancor_Pain           200c58e0 f   NPC_AI_Rancor.obj
 0001:000c4bb0       _Rancor_CheckDropVictim    200c5bb0 f   NPC_AI_Rancor.obj
 0001:000c4cd0       _Rancor_Crush              200c5cd0 f   NPC_AI_Rancor.obj
 0001:000c4d40       _NPC_BSRancor_Default      200c5d40 f   NPC_AI_Rancor.obj
 0001:000c5190       _NPC_Remote_Precache       200c6190 f   NPC_AI_Remote.obj
 0001:000c51c0       _Remote_MaintainHeight     200c61c0 f   NPC_AI_Remote.obj
 0001:000c5440       _Remote_Strafe             200c6440 f   NPC_AI_Remote.obj
 0001:000c55c0       _Remote_Hunt               200c65c0 f   NPC_AI_Remote.obj
 0001:000c56e0       _Remote_Fire               200c66e0 f   NPC_AI_Remote.obj
 0001:000c5800       _Remote_Ranged             200c6800 f   NPC_AI_Remote.obj
 0001:000c5860       _Remote_Patrol             200c6860 f   NPC_AI_Remote.obj
 0001:000c58a0       _NPC_Remote_Pain           200c68a0 f   NPC_AI_Remote.obj
 0001:000c58d0       _Remote_Attack             200c68d0 f   NPC_AI_Remote.obj
 0001:000c5a30       _NPC_BSRemote_Default      200c6a30 f   NPC_AI_Remote.obj
 0001:000c5a70       _RT_Flying                 200c6a70 f   NPC_AI_RocketTrooper.obj
 0001:000c5ae0       _NPC_BSSaberDroid_Patrol   200c6ae0 f   NPC_AI_SaberDroid.obj
 0001:000c5db0       _NPC_SaberDroid_PickAttack 200c6db0 f   NPC_AI_SaberDroid.obj
 0001:000c5ef0       _NPC_BSSaberDroid_Attack   200c6ef0 f   NPC_AI_SaberDroid.obj
 0001:000c6230       _NPC_BSSD_Default          200c7230 f   NPC_AI_SaberDroid.obj
 0001:000c6320       _SandCreature_Precache     200c7320 f   NPC_AI_Sand_creature.obj
 0001:000c6380       _SandCreature_ClearTimers  200c7380 f   NPC_AI_Sand_creature.obj
 0001:000c6420       _NPC_SandCreature_Pain     200c7420 f   NPC_AI_Sand_creature.obj
 0001:000c6580       _SandCreature_MoveEffect   200c7580 f   NPC_AI_Sand_creature.obj
 0001:000c6870       _SandCreature_CheckAhead   200c7870 f   NPC_AI_Sand_creature.obj
 0001:000c6a50       _SandCreature_Move         200c7a50 f   NPC_AI_Sand_creature.obj
 0001:000c6d00       _SandCreature_Attack       200c7d00 f   NPC_AI_Sand_creature.obj
 0001:000c71b0       _SandCreature_EntScore     200c81b0 f   NPC_AI_Sand_creature.obj
 0001:000c7260       _SandCreature_SeekEnt      200c8260 f   NPC_AI_Sand_creature.obj
 0001:000c72e0       _SandCreature_CheckMovingEnts 200c82e0 f   NPC_AI_Sand_creature.obj
 0001:000c7450       _SandCreature_SeekAlert    200c8450 f   NPC_AI_Sand_creature.obj
 0001:000c74b0       _SandCreature_CheckAlerts  200c84b0 f   NPC_AI_Sand_creature.obj
 0001:000c74f0       _SandCreature_DistSqToGoal 200c84f0 f   NPC_AI_Sand_creature.obj
 0001:000c7610       _SandCreature_Chase        200c8610 f   NPC_AI_Sand_creature.obj
 0001:000c79a0       _SandCreature_Hunt         200c89a0 f   NPC_AI_Sand_creature.obj
 0001:000c79a0       _SandCreature_Sleep        200c89a0 f   NPC_AI_Sand_creature.obj
 0001:000c7a20       _SandCreature_PushEnts     200c8a20 f   NPC_AI_Sand_creature.obj
 0001:000c7b60       _NPC_BSSandCreature_Default 200c8b60 f   NPC_AI_Sand_creature.obj
 0001:000c7e30       _NPC_Seeker_Precache       200c8e30 f   NPC_AI_Seeker.obj
 0001:000c7e60       _Seeker_MaintainHeight     200c8e60 f   NPC_AI_Seeker.obj
 0001:000c8150       _Seeker_Strafe             200c9150 f   NPC_AI_Seeker.obj
 0001:000c85b0       _Seeker_Hunt               200c95b0 f   NPC_AI_Seeker.obj
 0001:000c86c0       _Seeker_Fire               200c96c0 f   NPC_AI_Seeker.obj
 0001:000c87f0       _Seeker_Ranged             200c97f0 f   NPC_AI_Seeker.obj
 0001:000c8890       _Seeker_Attack             200c9890 f   NPC_AI_Seeker.obj
 0001:000c8950       _Seeker_FindEnemy          200c9950 f   NPC_AI_Seeker.obj
 0001:000c8b10       _Seeker_FollowPlayer       200c9b10 f   NPC_AI_Seeker.obj
 0001:000c8db0       _NPC_BSSeeker_Default      200c9db0 f   NPC_AI_Seeker.obj
 0001:000c8ed0       _NPC_Seeker_Pain           200c9ed0 f   NPC_AI_Seeker.obj
 0001:000c8f30       _NPC_Sentry_Precache       200c9f30 f   NPC_AI_Sentry.obj
 0001:000c8fc0       _sentry_use                200c9fc0 f   NPC_AI_Sentry.obj
 0001:000c9000       _NPC_Sentry_Pain           200ca000 f   NPC_AI_Sentry.obj
 0001:000c90a0       _Sentry_Fire               200ca0a0 f   NPC_AI_Sentry.obj
 0001:000c9340       _Sentry_MaintainHeight     200ca340 f   NPC_AI_Sentry.obj
 0001:000c9550       _Sentry_Idle               200ca550 f   NPC_AI_Sentry.obj
 0001:000c95c0       _Sentry_Hunt               200ca5c0 f   NPC_AI_Sentry.obj
 0001:000c96e0       _Sentry_RangedAttack       200ca6e0 f   NPC_AI_Sentry.obj
 0001:000c9820       _Sentry_AttackDecision     200ca820 f   NPC_AI_Sentry.obj
 0001:000c9990       _NPC_Sentry_Patrol         200ca990 f   NPC_AI_Sentry.obj
 0001:000c9a40       _NPC_BSSentry_Default      200caa40 f   NPC_AI_Sentry.obj
 0001:000c9c20       _NPC_BSSniper_Patrol       200cac20 f   NPC_AI_Sniper.obj
 0001:000ca3e0       _Sniper_EvaluateShot       200cb3e0 f   NPC_AI_Sniper.obj
 0001:000ca470       _Sniper_FaceEnemy          200cb470 f   NPC_AI_Sniper.obj
 0001:000ca9c0       _Sniper_UpdateEnemyPos     200cb9c0 f   NPC_AI_Sniper.obj
 0001:000caa90       _Sniper_StartHide          200cba90 f   NPC_AI_Sniper.obj
 0001:000cab00       _NPC_BSSniper_Attack       200cbb00 f   NPC_AI_Sniper.obj
 0001:000cb090       _NPC_BSSniper_Default      200cc090 f   NPC_AI_Sniper.obj
 0001:000cb0b0       _NPC_Saboteur_Precache     200cc0b0 f   NPC_AI_Stormtrooper.obj
 0001:000cb0d0       _Saboteur_Decloak          200cc0d0 f   NPC_AI_Stormtrooper.obj
 0001:000cb130       _Saboteur_Cloak            200cc130 f   NPC_AI_Stormtrooper.obj
 0001:000cb1b0       _ST_AggressionAdjust       200cc1b0 f   NPC_AI_Stormtrooper.obj
 0001:000cb210       _ST_ClearTimers            200cc210 f   NPC_AI_Stormtrooper.obj
 0001:000cb560       _ST_MarkToCover            200cc560 f   NPC_AI_Stormtrooper.obj
 0001:000cb5d0       _ST_StartFlee              200cc5d0 f   NPC_AI_Stormtrooper.obj
 0001:000cb630       _NPC_ST_Pain               200cc630 f   NPC_AI_Stormtrooper.obj
 0001:000cb760       _NPC_ST_SayMovementSpeech  200cc760 f   NPC_AI_Stormtrooper.obj
 0001:000cb840       _NPC_CheckEnemyStealth     200cc840 f   NPC_AI_Stormtrooper.obj
 0001:000cc120       _NPC_CheckPlayerTeamStealth 200cd120 f   NPC_AI_Stormtrooper.obj
 0001:000cc190       _NPC_CheckEnemiesInSpotlight 200cd190 f   NPC_AI_Stormtrooper.obj
 0001:000cd480       _NPC_BSST_Investigate      200ce480 f   NPC_AI_Stormtrooper.obj
 0001:000cd7d0       _NPC_BSST_Patrol           200ce7d0 f   NPC_AI_Stormtrooper.obj
 0001:000cdf10       _ST_ResolveBlockedShot     200cef10 f   NPC_AI_Stormtrooper.obj
 0001:000ce3c0       _ST_TrackEnemy             200cf3c0 f   NPC_AI_Stormtrooper.obj
 0001:000ce490       _ST_Commander              200cf490 f   NPC_AI_Stormtrooper.obj
 0001:000cf030       _NPC_BSST_Attack           200d0030 f   NPC_AI_Stormtrooper.obj
 0001:000cfb30       _NPC_BSST_Default          200d0b30 f   NPC_AI_Stormtrooper.obj
 0001:000cfc60       _NPC_BSST_Sleep            200d0c60 f   NPC_AI_Stormtrooper.obj
 0001:000cfce0       _AI_SetClosestBuddy        200d0ce0 f   NPC_AI_Utils.obj
 0001:000cfde0       _AI_SortGroupByPathCostToEnemy 200d0de0 f   NPC_AI_Utils.obj
 0001:000cff60       _AI_FindSelfInPreviousGroup 200d0f60 f   NPC_AI_Utils.obj
 0001:000cffd0       _AI_InsertGroupMember      200d0fd0 f   NPC_AI_Utils.obj
 0001:000d0060       _AI_ValidateNoEnemyGroupMember 200d1060 f   NPC_AI_Utils.obj
 0001:000d0150       _AI_ValidateGroupMember    200d1150 f   NPC_AI_Utils.obj
 0001:000d0280       _AI_SetNewGroupCommander   200d1280 f   NPC_AI_Utils.obj
 0001:000d02f0       _AI_DeleteGroupMember      200d12f0 f   NPC_AI_Utils.obj
 0001:000d03c0       _AI_DeleteSelfFromGroup    200d13c0 f   NPC_AI_Utils.obj
 0001:000d0400       _AI_GroupMemberKilled      200d1400 f   NPC_AI_Utils.obj
 0001:000d0630       _AI_GroupUpdateEnemyLastSeen 200d1630 f   NPC_AI_Utils.obj
 0001:000d0660       _AI_GroupUpdateClearShotTime 200d1660 f   NPC_AI_Utils.obj
 0001:000d0680       _AI_GroupUpdateSquadstates 200d1680 f   NPC_AI_Utils.obj
 0001:000d0710       _AI_RefreshGroup           200d1710 f   NPC_AI_Utils.obj
 0001:000d0a30       _AI_UpdateGroups           200d1a30 f   NPC_AI_Utils.obj
 0001:000d0a80       _AI_GroupContainsEntNum    200d1a80 f   NPC_AI_Utils.obj
 0001:000d0ac0       _FindClosestPlayer         200d1ac0 f   NPC_AI_Utils.obj
 0001:000d0b80       _DistancetoClosestPlayer   200d1b80 f   NPC_AI_Utils.obj
 0001:000d0c30       _InPlayersFOV              200d1c30 f   NPC_AI_Utils.obj
 0001:000d0ce0       _AI_TryJoinPreviousGroup   200d1ce0 f   NPC_AI_Utils.obj
 0001:000d0d50       _AI_GetNextEmptyGroup      200d1d50 f   NPC_AI_Utils.obj
 0001:000d0dc0       _AI_GetGroup               200d1dc0 f   NPC_AI_Utils.obj
 0001:000d0fe0       _Wampa_SetBolts            200d1fe0 f   NPC_AI_Wampa.obj
 0001:000d10c0       _NPC_Wampa_Precache        200d20c0 f   NPC_AI_Wampa.obj
 0001:000d10d0       _Rancor_Idle               200d20d0 f   NPC_AI_Rancor.obj
 0001:000d10d0       _Wampa_Idle                200d20d0 f   NPC_AI_Wampa.obj
 0001:000d1100       _Wampa_CheckRoar           200d2100 f   NPC_AI_Wampa.obj
 0001:000d1180       _Wampa_Patrol              200d2180 f   NPC_AI_Wampa.obj
 0001:000d1280       _Wampa_Move                200d2280 f   NPC_AI_Wampa.obj
 0001:000d1430       _Wampa_Slash               200d2430 f   NPC_AI_Wampa.obj
 0001:000d1820       _Wampa_Attack              200d2820 f   NPC_AI_Wampa.obj
 0001:000d1b40       _Wampa_Combat              200d2b40 f   NPC_AI_Wampa.obj
 0001:000d1db0       _NPC_Wampa_Pain            200d2db0 f   NPC_AI_Wampa.obj
 0001:000d2020       _NPC_BSWampa_Default       200d3020 f   NPC_AI_Wampa.obj
 0001:000d2480       _NPC_BSAdvanceFight        200d3480 f   NPC_behavior.obj
 0001:000d2990       _NPC_BSCinematic           200d3990 f   NPC_behavior.obj
 0001:000d2a80       _NPC_BSWait                200d3a80 f   NPC_behavior.obj
 0001:000d2a90       _NPC_BSSleep               200d3a90 f   NPC_behavior.obj
 0001:000d2ac0       _NPC_BSFollowLeader_UpdateLeader 200d3ac0 f   NPC_behavior.obj
 0001:000d2bc0       _NPC_BSFollowLeader_UpdateEnemy 200d3bc0 f   NPC_behavior.obj
 0001:000d2e80       _NPC_BSFollowLeader_AttackEnemy 200d3e80 f   NPC_behavior.obj
 0001:000d3060       _NPC_BSFollowLeader_CanAttack 200d4060 f   NPC_behavior.obj
 0001:000d30a0       _NPC_BSFollowLeader_LookAtLeader 200d40a0 f   NPC_behavior.obj
 0001:000d3150       _NPC_BSFollowLeader        200d4150 f   NPC_behavior.obj
 0001:000d33e0       _NPC_BSJump                200d43e0 f   NPC_behavior.obj
 0001:000d39a0       _NPC_BSRemove              200d49a0 f   NPC_behavior.obj
 0001:000d3a40       _NPC_BSSearch              200d4a40 f   NPC_behavior.obj
 0001:000d3e80       _NPC_BSSearchStart         200d4e80 f   NPC_behavior.obj
 0001:000d3ef0       _NPC_BSNoClip              200d4ef0 f   NPC_behavior.obj
 0001:000d4080       _NPC_BSWander              200d5080 f   NPC_behavior.obj
 0001:000d4400       _NPC_CanSurrender          200d5400 f   NPC_behavior.obj
 0001:000d44d0       _NPC_Surrender             200d54d0 f   NPC_behavior.obj
 0001:000d4730       _NPC_CheckSurrender        200d5730 f   NPC_behavior.obj
 0001:000d4aa0       _NPC_JawaFleeSound         200d5aa0 f   NPC_behavior.obj
 0001:000d4b30       _NPC_BSFlee                200d5b30 f   NPC_behavior.obj
 0001:000d4e50       _NPC_StartFlee             200d5e50 f   NPC_behavior.obj
 0001:000d50b0       _G_StartFlee               200d60b0 f   NPC_behavior.obj
 0001:000d5100       _NPC_BSEmplaced            200d6100 f   NPC_behavior.obj
 0001:000d5310       _G_AngerAlert              200d6310 f   NPC_combat.obj
 0001:000d5370       _G_TeamEnemy               200d6370 f   NPC_combat.obj
 0001:000d5420       _G_CheckSaberAllyAttackDelay 200d6420 f   NPC_combat.obj
 0001:000d5550       _G_AttackDelay             200d6550 f   NPC_combat.obj
 0001:000d5830       _G_ForceSaberOn            200d6830 f   NPC_combat.obj
 0001:000d58b0       _ChangeWeapon              200d68b0 f   NPC_combat.obj
 0001:000d5d70       _NPC_ChangeWeapon          200d6d70 f   NPC_combat.obj
 0001:000d5d90       _EntIsGlass                200d6d90 f   NPC_combat.obj
 0001:000d5dd0       _ShotThroughGlass          200d6dd0 f   NPC_combat.obj
 0001:000d5e70       _CanShoot                  200d6e70 f   NPC_combat.obj
 0001:000d6030       _NPC_AttackDebounceForWeapon 200d7030 f   NPC_combat.obj
 0001:000d6090       _NPC_MaxDistSquaredForWeapon 200d7090 f   NPC_combat.obj
 0001:000d6150       _G_ValidEnemy              200d7150 f   NPC_combat.obj
 0001:000d6260       _ValidEnemy                200d7260 f   NPC_combat.obj
 0001:000d6260       _NPC_ValidEnemy            200d7260 f   NPC_combat.obj
 0001:000d6280       _NPC_EnemyTooFar           200d7280 f   NPC_combat.obj
 0001:000d6330       _NPC_PickEnemy             200d7330 f   NPC_combat.obj
 0001:000d6c90       _NPC_ShotEntity            200d7c90 f   NPC_combat.obj
 0001:000d6e50       _NPC_CheckAttack           200d7e50 f   NPC_combat.obj
 0001:000d6ec0       _NPC_CheckDefend           200d7ec0 f   NPC_combat.obj
 0001:000d6f20       _SP_point_combat           200d7f20 f   NPC_combat.obj
 0001:000d7000       _CP_FindCombatPointWaypoints 200d8000 f   NPC_combat.obj
 0001:000d7150       _NPC_FindCombatPoint       200d8150 f   NPC_combat.obj
 0001:000d76f0       _NPC_FindCombatPointRetry  200d86f0 f   NPC_combat.obj
 0001:000d7820       _NPC_FreeCombatPoint       200d8820 f   NPC_combat.obj
 0001:000d7870       _NPC_SetCombatPoint        200d8870 f   NPC_combat.obj
 0001:000d78f0       _NPC_SearchForWeapons      200d88f0 f   NPC_combat.obj
 0001:000d7a60       _NPC_SetPickUpGoal         200d8a60 f   NPC_combat.obj
 0001:000d7b00       _NPC_CheckGetNewWeapon     200d8b00 f   NPC_combat.obj
 0001:000d7ba0       _NPC_AimAdjust             200d8ba0 f   NPC_combat.obj
 0001:000d7c70       _G_AimSet                  200d8c70 f   NPC_combat.obj
 0001:000d7cc0       _G_ClearEnemy              200d8cc0 f   NPC_combat.obj
 0001:000d7d50       _G_SetEnemy                200d8d50 f   NPC_combat.obj
 0001:000d8260       _ShootThink                200d9260 f   NPC_combat.obj
 0001:000d8410       _WeaponThink               200d9410 f   NPC_combat.obj
 0001:000d8520       _NPC_CheckEnemy            200d9520 f   NPC_combat.obj
 0001:000d88c0       _NPC_CheckCanAttack        200d98c0 f   NPC_combat.obj
 0001:000d8e20       _NPC_ClearGoal             200d9e20 f   NPC_goal.obj
 0001:000d8ea0       _G_BoundsOverlap           200d9ea0 f   NPC_goal.obj
 0001:000d8f10       _NPC_ReachedGoal           200d9f10 f   NPC_goal.obj
 0001:000d8f50       _ReachedGoal               200d9f50 f   NPC_goal.obj
 0001:000d8fb0       _UpdateGoal                200d9fb0 f   NPC_goal.obj
 0001:000d8ff0       _Debug_Printf              200d9ff0 f   NPC_misc.obj
 0001:000d9610       _NPC_CanTryJump            200da610 f   NPC_move.obj
 0001:000d96a0       _NPC_JumpAnimation         200da6a0 f   NPC_move.obj
 0001:000d9760       _NPC_JumpSound             200da760 f   NPC_move.obj
 0001:000d97a0       _NPC_Jumping               200da7a0 f   NPC_move.obj
 0001:000d9da0       _NPC_ClearPathToGoal       200dada0 f   NPC_move.obj
 0001:000d9f20       _NAV_DirSafe               200daf20 f   NPC_move.obj
 0001:000d9fd0       _NPC_CheckCombatMove       200dafd0 f i NPC_move.obj
 0001:000da080       _NPC_GetMoveInformation    200db080 f i NPC_move.obj
 0001:000da130       _NAV_GetLastMove           200db130 f   NPC_move.obj
 0001:000da150       _NPC_GetMoveDirection      200db150 f   NPC_move.obj
 0001:000da2f0       _NPC_GetMoveDirectionAltRoute 200db2f0 f   NPC_move.obj
 0001:000da4e0       _G_UcmdMoveForDir          200db4e0 f   NPC_move.obj
 0001:000da620       _NPC_MoveToGoal            200db620 f   NPC_move.obj
 0001:000da7e0       _NPC_SlideMoveToGoal       200db7e0 f   NPC_move.obj
 0001:000da820       _NPC_ApplyRoff             200db820 f   NPC_move.obj
 0001:000da850       _NPC_TryJump               200db850 f   NPC_move.obj
 0001:000dae00       _NPC_TryJump_Gent          200dbe00 f   NPC_move.obj
 0001:000daf50       _NPC_JumpBackingUp         200dbf50 f   NPC_move.obj
 0001:000db020       _NPC_SetPainEvent          200dc020 f   NPC_reactions.obj
 0001:000db090       _NPC_GetPainChance         200dc090 f   NPC_reactions.obj
 0001:000db150       _NPC_ChoosePainAnimation   200dc150 f   NPC_reactions.obj
 0001:000db4d0       _G_CheckControlledTurretEnemy 200dc4d0 f   NPC_reactions.obj
 0001:000db4e0       _NPC_Pain                  200dc4e0 f   NPC_reactions.obj
 0001:000db7e0       _NPC_Touch                 200dc7e0 f   NPC_reactions.obj
 0001:000db9e0       _NPC_TempLookTarget        200dc9e0 f   NPC_reactions.obj
 0001:000dba50       _NPC_Respond               200dca50 f   NPC_reactions.obj
 0001:000dbf20       _NPC_UseResponse           200dcf20 f   NPC_reactions.obj
 0001:000dbfa0       _NPC_Use                   200dcfa0 f   NPC_reactions.obj
 0001:000dc140       _G_ClearLineOfSight        200dd140 f   NPC_senses.obj
 0001:000dc200       _CanSee                    200dd200 f   NPC_senses.obj
 0001:000dc340       _InFront                   200dd340 f   NPC_senses.obj
 0001:000dc3e0       _InFOV3                    200dd3e0 f   NPC_senses.obj
 0001:000dc490       _InFOV2                    200dd490 f   NPC_senses.obj
 0001:000dc510       _InFOV                     200dd510 f   NPC_senses.obj
 0001:000dc790       _InVisrange                200dd790 f   NPC_senses.obj
 0001:000dc830       _NPC_CheckVisibility       200dd830 f   NPC_senses.obj
 0001:000dc910       _G_RememberAlertEvent      200dd910 f   NPC_senses.obj
 0001:000dc960       _G_CheckForDanger          200dd960 f   NPC_senses.obj
 0001:000dca70       _NPC_CheckForDanger        200dda70 f   NPC_senses.obj
 0001:000dca90       _ClearPlayerAlertEvents    200dda90 f   NPC_senses.obj
 0001:000dcb30       _RemoveOldestAlert         200ddb30 f   NPC_senses.obj
 0001:000dcbe0       _G_ClearLOS                200ddbe0 f   NPC_senses.obj
 0001:000dcca0       _G_ClearLOS2               200ddca0 f   NPC_senses.obj
 0001:000dccd0       _G_ClearLOS3               200ddcd0 f   NPC_senses.obj
 0001:000dcd40       _G_ClearLOS4               200ddd40 f   NPC_senses.obj
 0001:000dcd70       _G_ClearLOS5               200ddd70 f   NPC_senses.obj
 0001:000dcda0       _NPC_GetHFOVPercentage     200ddda0 f   NPC_senses.obj
 0001:000dce30       _NPC_GetVFOVPercentage     200dde30 f   NPC_senses.obj
 0001:000dcec0       _SP_target_interest        200ddec0 f   NPC_senses.obj
 0001:000dd1e0       _G_CheckAlertEvents        200de1e0 f   NPC_senses.obj
 0001:000dd310       _NPC_CheckAlertEvents      200de310 f   NPC_senses.obj
 0001:000dd360       _AddSoundEvent             200de360 f   NPC_senses.obj
 0001:000dd4b0       _AddSightEvent             200de4b0 f   NPC_senses.obj
 0001:000dd5d0       _G_CheckSpecialPersistentEvents 200de5d0 f   NPC_senses.obj
 0001:000dd800       _G_AddVoiceEvent           200de800 f   NPC_sounds.obj
 0001:000dd8c0       _NPC_PlayConfusionSound    200de8c0 f   NPC_sounds.obj
 0001:000dd9f0       _NPC_PainFunc              200de9f0 f   NPC_spawn.obj
 0001:000ddb10       _G_ClassSetDontFlee        200deb10 f   NPC_spawn.obj
 0001:000ddc10       _NPC_SetMiscDefaultData    200dec10 f   NPC_spawn.obj
 0001:000de360       _NPC_WeaponsForTeam        200df360 f   NPC_spawn.obj
 0001:000de7c0       _NPC_SetWeapons            200df7c0 f   NPC_spawn.obj
 0001:000de9c0       _NPC_SpotWouldTelefrag     200df9c0 f   NPC_spawn.obj
 0001:000dead0       _New_NPC_t                 200dfad0 f   NPC_spawn.obj
 0001:000deb20       _NPC_SafeSpawn             200dfb20 f   NPC_spawn.obj
 0001:000dec50       _NPC_PrecacheType          200dfc50 f   NPC_spawn.obj
 0001:000dec80       _NPC_VehiclePrecache       200dfc80 f   NPC_spawn.obj
 0001:000dee90       _NPC_VehicleSpawnUse       200dfe90 f   NPC_spawn.obj
 0001:000deec0       _SP_NPC_Vehicle            200dfec0 f   NPC_spawn.obj
 0001:000df020       _NPC_SpawnType             200e0020 f   NPC_spawn.obj
 0001:000df220       _NPC_Spawn_f               200e0220 f   NPC_spawn.obj
 0001:000df2c0       _NPC_Kill_f                200e02c0 f   NPC_spawn.obj
 0001:000df600       _NPC_PrintScore            200e0600 f   NPC_spawn.obj
 0001:000df630       _Cmd_NPC_f                 200e0630 f   NPC_spawn.obj
 0001:000df7d0       _NPC_Begin                 200e07d0 f   NPC_spawn.obj
 0001:000e0170       _NPC_Spawn_Do              200e1170 f   NPC_spawn.obj
 0001:000e0ac0       _NPC_Spawn_Go              200e1ac0 f   NPC_spawn.obj
 0001:000e0ad0       _NPC_ShySpawn              200e1ad0 f   NPC_spawn.obj
 0001:000e0ba0       _NPC_Spawn                 200e1ba0 f   NPC_spawn.obj
 0001:000e0c10       _SP_NPC_spawner            200e1c10 f   NPC_spawn.obj
 0001:000e0da0       _SP_NPC_Kyle               200e1da0 f   NPC_spawn.obj
 0001:000e0dc0       _SP_NPC_Lando              200e1dc0 f   NPC_spawn.obj
 0001:000e0de0       _SP_NPC_Jan                200e1de0 f   NPC_spawn.obj
 0001:000e0e00       _SP_NPC_Luke               200e1e00 f   NPC_spawn.obj
 0001:000e0e20       _SP_NPC_MonMothma          200e1e20 f   NPC_spawn.obj
 0001:000e0e40       _SP_NPC_Tavion             200e1e40 f   NPC_spawn.obj
 0001:000e0e60       _SP_NPC_Tavion_New         200e1e60 f   NPC_spawn.obj
 0001:000e0eb0       _SP_NPC_Alora              200e1eb0 f   NPC_spawn.obj
 0001:000e0ef0       _SP_NPC_Reborn_New         200e1ef0 f   NPC_spawn.obj
 0001:000e0f90       _SP_NPC_Cultist_Saber      200e1f90 f   NPC_spawn.obj
 0001:000e1030       _SP_NPC_Cultist_Saber_Powers 200e2030 f   NPC_spawn.obj
 0001:000e10d0       _SP_NPC_Cultist            200e20d0 f   NPC_spawn.obj
 0001:000e11c0       _SP_NPC_Cultist_Commando   200e21c0 f   NPC_spawn.obj
 0001:000e11e0       _SP_NPC_Cultist_Destroyer  200e21e0 f   NPC_spawn.obj
 0001:000e1200       _SP_NPC_Reelo              200e2200 f   NPC_spawn.obj
 0001:000e1220       _SP_NPC_Galak              200e2220 f   NPC_spawn.obj
 0001:000e1260       _SP_NPC_Desann             200e2260 f   NPC_spawn.obj
 0001:000e1280       _SP_NPC_Bartender          200e2280 f   NPC_spawn.obj
 0001:000e12a0       _SP_NPC_MorganKatarn       200e22a0 f   NPC_spawn.obj
 0001:000e12c0       _SP_NPC_Jedi               200e22c0 f   NPC_spawn.obj
 0001:000e1490       _SP_NPC_Prisoner           200e2490 f   NPC_spawn.obj
 0001:000e14e0       _SP_NPC_Rebel              200e24e0 f   NPC_spawn.obj
 0001:000e1530       _SP_NPC_Stormtrooper       200e2530 f   NPC_spawn.obj
 0001:000e15e0       _SP_NPC_StormtrooperOfficer 200e25e0 f   NPC_spawn.obj
 0001:000e1600       _SP_NPC_Human_Merc         200e2600 f   NPC_spawn.obj
 0001:000e1670       _SP_NPC_Rosh_Penin         200e2670 f   NPC_spawn.obj
 0001:000e16d0       _SP_NPC_Saboteur           200e26d0 f   NPC_spawn.obj
 0001:000e1740       _SP_NPC_Chewbacca          200e2740 f   NPC_spawn.obj
 0001:000e1760       _SP_NPC_Player             200e2760 f   NPC_spawn.obj
 0001:000e1780       _SP_NPC_Snowtrooper        200e2780 f   NPC_spawn.obj
 0001:000e17a0       _SP_NPC_Tie_Pilot          200e27a0 f   NPC_spawn.obj
 0001:000e17c0       _SP_NPC_Ugnaught           200e27c0 f   NPC_spawn.obj
 0001:000e1810       _SP_NPC_Jawa               200e2810 f   NPC_spawn.obj
 0001:000e1850       _SP_NPC_Gran               200e2850 f   NPC_spawn.obj
 0001:000e18d0       _SP_NPC_Rodian             200e28d0 f   NPC_spawn.obj
 0001:000e1910       _SP_NPC_Weequay            200e2910 f   NPC_spawn.obj
 0001:000e19a0       _SP_NPC_Trandoshan         200e29a0 f   NPC_spawn.obj
 0001:000e19c0       _SP_NPC_Tusken             200e29c0 f   NPC_spawn.obj
 0001:000e1a00       _SP_NPC_Noghri             200e2a00 f   NPC_spawn.obj
 0001:000e1a20       _SP_NPC_SwampTrooper       200e2a20 f   NPC_spawn.obj
 0001:000e1a60       _SP_NPC_Imperial           200e2a60 f   NPC_spawn.obj
 0001:000e1ac0       _SP_NPC_ImpWorker          200e2ac0 f   NPC_spawn.obj
 0001:000e1b30       _SP_NPC_BespinCop          200e2b30 f   NPC_spawn.obj
 0001:000e1b80       _SP_NPC_Reborn             200e2b80 f   NPC_spawn.obj
 0001:000e1c10       _SP_NPC_ShadowTrooper      200e2c10 f   NPC_spawn.obj
 0001:000e1c60       _SP_NPC_Monster_Murjj      200e2c60 f   NPC_spawn.obj
 0001:000e1c80       _SP_NPC_Monster_Swamp      200e2c80 f   NPC_spawn.obj
 0001:000e1ca0       _SP_NPC_Monster_Howler     200e2ca0 f   NPC_spawn.obj
 0001:000e1cc0       _SP_NPC_MineMonster        200e2cc0 f   NPC_spawn.obj
 0001:000e1ce0       _SP_NPC_Monster_Claw       200e2ce0 f   NPC_spawn.obj
 0001:000e1d00       _SP_NPC_Monster_Glider     200e2d00 f   NPC_spawn.obj
 0001:000e1d20       _SP_NPC_Monster_Flier2     200e2d20 f   NPC_spawn.obj
 0001:000e1d40       _SP_NPC_Monster_Lizard     200e2d40 f   NPC_spawn.obj
 0001:000e1d60       _SP_NPC_Monster_Fish       200e2d60 f   NPC_spawn.obj
 0001:000e1d80       _SP_NPC_Monster_Wampa      200e2d80 f   NPC_spawn.obj
 0001:000e1da0       _SP_NPC_Monster_Rancor     200e2da0 f   NPC_spawn.obj
 0001:000e1dc0       _SP_NPC_Monster_Sand_Creature 200e2dc0 f   NPC_spawn.obj
 0001:000e1e00       _SP_NPC_Droid_Interrogator 200e2e00 f   NPC_spawn.obj
 0001:000e1e20       _SP_NPC_Droid_Probe        200e2e20 f   NPC_spawn.obj
 0001:000e1e40       _SP_NPC_Droid_Mark1        200e2e40 f   NPC_spawn.obj
 0001:000e1e60       _SP_NPC_Droid_Mark2        200e2e60 f   NPC_spawn.obj
 0001:000e1e80       _SP_NPC_Droid_ATST         200e2e80 f   NPC_spawn.obj
 0001:000e1ec0       _SP_NPC_Droid_Remote       200e2ec0 f   NPC_spawn.obj
 0001:000e1ee0       _SP_NPC_Droid_Seeker       200e2ee0 f   NPC_spawn.obj
 0001:000e1f00       _SP_NPC_Droid_Sentry       200e2f00 f   NPC_spawn.obj
 0001:000e1f20       _SP_NPC_Droid_Gonk         200e2f20 f   NPC_spawn.obj
 0001:000e1f40       _SP_NPC_Droid_Mouse        200e2f40 f   NPC_spawn.obj
 0001:000e1f60       _SP_NPC_Droid_R2D2         200e2f60 f   NPC_spawn.obj
 0001:000e1fa0       _SP_NPC_Droid_R5D2         200e2fa0 f   NPC_spawn.obj
 0001:000e1fe0       _SP_NPC_Droid_Protocol     200e2fe0 f   NPC_spawn.obj
 0001:000e2020       _SP_NPC_Rax                200e3020 f   NPC_spawn.obj
 0001:000e2040       _SP_NPC_Kothos             200e3040 f   NPC_spawn.obj
 0001:000e2080       _SP_NPC_Droid_Saber        200e3080 f   NPC_spawn.obj
 0001:000e20c0       _SP_NPC_HazardTrooper      200e30c0 f   NPC_spawn.obj
 0001:000e2120       _SP_NPC_Lannik_Racto       200e3120 f   NPC_spawn.obj
 0001:000e2140       _SP_NPC_Droid_Assassin     200e3140 f   NPC_spawn.obj
 0001:000e2220       _NPC_PrecacheWeapons       200e3220 f   NPC_stats.obj
 0001:000e2270       _NPC_Precache              200e3270 f   NPC_stats.obj
 0001:000e2880       _NPC_ParseParms            200e3880 f   NPC_stats.obj
 0001:000e6ae0       _NPC_LoadParms             200e7ae0 f   NPC_stats.obj
 0001:000e6c60       _NPC_PrecacheByClassName   200e7c60 f   NPC_stats.obj
 0001:000e6f00       _CalcEntitySpot            200e7f00 f   NPC_utils.obj
 0001:000e73c0       _NPC_UpdateAngles          200e83c0 f   NPC_utils.obj
 0001:000e7730       _NPC_AimWiggle             200e8730 f   NPC_utils.obj
 0001:000e7850       _NPC_UpdateFiringAngles    200e8850 f   NPC_utils.obj
 0001:000e7b60       _NPC_UpdateShootAngles     200e8b60 f   NPC_utils.obj
 0001:000e7d00       _G_ActivateBehavior        200e8d00 f   NPC_utils.obj
 0001:000e7dd0       _NPC_SetBoneAngles         200e8dd0 f   NPC_utils.obj
 0001:000e7ed0       _NPC_SetSurfaceOnOff       200e8ed0 f   NPC_utils.obj
 0001:000e7f70       _NPC_SomeoneLookingAtMe    200e8f70 f   NPC_utils.obj
 0001:000e8000       _NPC_ClearLOS              200e9000 f   NPC_utils.obj
 0001:000e8020       _NPC_ClearLOS4             200e9020 f   NPC_utils.obj
 0001:000e8040       _NPC_ClearLOS3             200e9040 f   NPC_utils.obj
 0001:000e8060       _NPC_ClearLOS2             200e9060 f   NPC_utils.obj
 0001:000e8080       _NPC_TargetVisible         200e9080 f   NPC_utils.obj
 0001:000e8140       _NPC_FindNearestEnemy      200e9140 f   NPC_utils.obj
 0001:000e82c0       _NPC_PickEnemyExt          200e92c0 f   NPC_utils.obj
 0001:000e8520       _NPC_FindEnemy             200e9520 f   NPC_utils.obj
 0001:000e8620       _NPC_CheckEnemyExt         200e9620 f   NPC_utils.obj
 0001:000e8630       _NPC_FacePosition          200e9630 f   NPC_utils.obj
 0001:000e88c0       _NPC_FaceEntity            200e98c0 f   NPC_utils.obj
 0001:000e88f0       _NPC_FaceEnemy             200e98f0 f   NPC_utils.obj
 0001:000e8940       _NPC_ClearLookTarget       200e9940 f   NPC_utils.obj
 0001:000e8980       _NPC_SetLookTarget         200e9980 f   NPC_utils.obj
 0001:000e89c0       _NPC_CheckLookTarget       200e99c0 f   NPC_utils.obj
 0001:000e8a40       _G_CheckCharmed            200e9a40 f   NPC_utils.obj
 0001:000e8b20       _G_GetBoltPosition         200e9b20 f   NPC_utils.obj
 0001:000e8bc0       _NPC_EntRangeFromBolt      200e9bc0 f   NPC_utils.obj
 0001:000e8c50       _NPC_EnemyRangeFromBolt    200e9c50 f   NPC_utils.obj
 0001:000e8c70       _NPC_GetEntsNearBolt       200e9c70 f   NPC_utils.obj
 0001:000e8d00       _InPlayersPVS              200e9d00 f   NPC_utils.obj
 0001:000e8d70       _Q_random                  200e9d70 f   q_math.obj
 0001:000e8da0       _DirToByte                 200e9da0 f   q_math.obj
 0001:000e8f20       _vectoangles               200e9f20 f   q_math.obj
 0001:000e9040       _ProjectPointOnPlane       200ea040 f   q_math.obj
 0001:000e90e0       _Q_fabs                    200ea0e0 f   q_math.obj
 0001:000e9100       _LerpAngle                 200ea100 f   q_math.obj
 0001:000e9180       _AngleSubtract             200ea180 f   q_math.obj
 0001:000e9210       _AnglesSubtract            200ea210 f   q_math.obj
 0001:000e9270       _AngleNormalize360         200ea270 f   q_math.obj
 0001:000e9270       _AngleMod                  200ea270 f   q_math.obj
 0001:000e92a0       _AngleNormalize180         200ea2a0 f   q_math.obj
 0001:000e92f0       _AngleDelta                200ea2f0 f   q_math.obj
 0001:000e9350       _RadiusFromBounds          200ea350 f   q_math.obj
 0001:000e9420       _DistanceHorizontal        200ea420 f   q_math.obj
 0001:000e9460       _DistanceHorizontalSquared 200ea460 f   q_math.obj
 0001:000e94a0       _AddPointToBounds          200ea4a0 f   q_math.obj
 0001:000e9530       _VectorNormalize           200ea530 f   q_math.obj
 0001:000e95a0       _VectorNormalize2          200ea5a0 f   q_math.obj
 0001:000e9620       _AngleVectors              200ea620 f   q_math.obj
 0001:000e9790       _PerpendicularVector       200ea790 f   q_math.obj
 0001:000e9890       _flrand                    200ea890 f   q_math.obj
 0001:000e9890       _Q_flrand                  200ea890 f   q_math.obj
 0001:000e98e0       _Q_irand                   200ea8e0 f   q_math.obj
 0001:000e9920       _DotProductNormalize       200ea920 f   q_math.obj
 0001:000e9970       _G_FindClosestPointOnLineSegment 200ea970 f   q_math.obj
 0001:000e9c60       _VectorDistance            200eac60 f   q_math.obj
 0001:000e9cc0       _AnglesToAxis              200eacc0 f   q_math.obj
 0001:000e9d10       _COM_StripExtension        200ead10 f   q_shared.obj
 0001:000e9d40       _SkipWhitespace            200ead40 f   q_shared.obj
 0001:000e9d90       _COM_Compress              200ead90 f   q_shared.obj
 0001:000e9ea0       _COM_ParseExt              200eaea0 f   q_shared.obj
 0001:000ea000       _COM_ParseString           200eb000 f   q_shared.obj
 0001:000ea030       _COM_ParseInt              200eb030 f   q_shared.obj
 0001:000ea070       _COM_ParseFloat            200eb070 f   q_shared.obj
 0001:000ea0b0       _SkipBracedSection         200eb0b0 f   q_shared.obj
 0001:000ea0f0       _SkipRestOfLine            200eb0f0 f   q_shared.obj
 0001:000ea120       _Q_strrchr                 200eb120 f   q_shared.obj
 0001:000ea150       _Q_strncpyz                200eb150 f   q_shared.obj
 0001:000ea1b0       _Q_stricmpn                200eb1b0 f   q_shared.obj
 0001:000ea230       _Q_strncmp                 200eb230 f   q_shared.obj
 0001:000ea280       _Q_stricmp                 200eb280 f   q_shared.obj
 0001:000ea2b0       _COM_BitCheck              200eb2b0 f   q_shared.obj
 0001:000ea2f0       _Q_strlwr                  200eb2f0 f   q_shared.obj
 0001:000ea320       _Q_strupr                  200eb320 f   q_shared.obj
 0001:000ea350       _Q_strcat                  200eb350 f   q_shared.obj
 0001:000ea3a0       _Q_CleanStr                200eb3a0 f   q_shared.obj
 0001:000ea3f0       _Q_vsnprintf               200eb3f0 f   q_shared.obj
 0001:000ea430       _Com_sprintf               200eb430 f   q_shared.obj
 0001:000ea480       _va                        200eb480 f   q_shared.obj
 0001:000ea510       _Info_ValueForKey          200eb510 f   q_shared.obj
 0001:000ea630       _Info_RemoveKey            200eb630 f   q_shared.obj
 0001:000ea740       _Info_Validate             200eb740 f   q_shared.obj
 0001:000ea770       _Info_SetValueForKey       200eb770 f   q_shared.obj
 0001:000ea940       _GetIDForString            200eb940 f   q_shared.obj
 0001:000ea990       _COM_BeginParseSession     200eb990 f   q_shared.obj
 0001:000ea9c0       _COM_Parse                 200eb9c0 f   q_shared.obj
 0001:000ea9d0       _Update                    200eb9d0 f   SpeederNPC.obj
 0001:000eae00       _ProcessOrientCommands     200ebe00 f   SpeederNPC.obj
 0001:000eaf50       _AnimateRiders             200ebf50 f   SpeederNPC.obj
 0001:000eb010       _G_SetSpeederVehicleFunctions 200ec010 f   SpeederNPC.obj
 0001:000eb050       _coplanar_tri_tri          200ec050 f   tri_coll_test.obj
 0001:000ebdb0       _tri_tri_intersect         200ecdb0 f   tri_coll_test.obj
 0001:000ec5d0       _G_PreDefSound             200ed5d0 f   w_force.obj
 0001:000ec600       _WP_InitForcePowers        200ed600 f   w_force.obj
 0001:000ed200       _ForcePowerUsableOn        200ee200 f   w_force.obj
 0001:000ed380       _WP_ForcePowerAvailable    200ee380 f   w_force.obj
 0001:000ed400       _WP_ForcePowerUsable       200ee400 f   w_force.obj
 0001:000ed590       _WP_AbsorbConversion       200ee590 f   w_force.obj
 0001:000ed680       _WP_ForcePowerRegenerate   200ee680 f   w_force.obj
 0001:000ed6d0       _WP_ForcePowerStart        200ee6d0 f   w_force.obj
 0001:000edb20       _ForceHeal                 200eeb20 f   w_force.obj
 0001:000edcd0       _WP_AddToClientBitflags    200eecd0 f   w_force.obj
 0001:000edd20       _ForceTeamHeal             200eed20 f   w_force.obj
 0001:000ee0a0       _ForceTeamForceReplenish   200ef0a0 f   w_force.obj
 0001:000ee3d0       _ForceGrip                 200ef3d0 f   w_force.obj
 0001:000ee650       _ForceLightning            200ef650 f   w_force.obj
 0001:000ee7e0       _ForceLightningDamage      200ef7e0 f   w_force.obj
 0001:000eea90       _ForceShootLightning       200efa90 f   w_force.obj
 0001:000eef00       _ForceDrain                200eff00 f   w_force.obj
 0001:000ef070       _ForceDrainDamage          200f0070 f   w_force.obj
 0001:000ef320       _ForceShootDrain           200f0320 f   w_force.obj
 0001:000ef820       _ForceJumpCharge           200f0820 f   w_force.obj
 0001:000efa00       _WP_GetVelocityForForceJump 200f0a00 f   w_force.obj
 0001:000efc80       _ForceJump                 200f0c80 f   w_force.obj
 0001:000efda0       _WP_AddAsMindtricked       200f0da0 f   w_force.obj
 0001:000efdf0       _ForceTelepathyCheckDirectNPCTarget 200f0df0 f   w_force.obj
 0001:000f0660       _CanCounterThrow           200f1660 f   w_force.obj
 0001:000f0790       _G_InGetUpAnim             200f1790 f   w_force.obj
 0001:000f0820       _G_LetGoOfWall             200f1820 f   w_force.obj
 0001:000f08c0       _WP_ForcePowerStop         200f18c0 f   w_force.obj
 0001:000f0c10       _DoGripAction              200f1c10 f   w_force.obj
 0001:000f1510       _G_IsMindTricked           200f2510 f   w_force.obj
 0001:000f1d30       _FindGenericEnemyIndex     200f2d30 f   w_force.obj
 0001:000f1ea0       _SeekerDroneUpdate         200f2ea0 f   w_force.obj
 0001:000f24c0       _HolocronUpdate            200f34c0 f   w_force.obj
 0001:000f2690       _JediMasterUpdate          200f3690 f   w_force.obj
 0001:000f2790       _WP_HasForcePowers         200f3790 f   w_force.obj
 0001:000f27c0       _G_SpecialRollGetup        200f37c0 f   w_force.obj
 0001:000f28c0       _WP_SpawnInitForcePowers   200f38c0 f   w_force.obj
 0001:000f2f40       _ForceSpeed                200f3f40 f   w_force.obj
 0001:000f3120       _ForceSeeing               200f4120 f   w_force.obj
 0001:000f33f0       _ForceProtect              200f43f0 f   w_force.obj
 0001:000f3750       _ForceAbsorb               200f4750 f   w_force.obj
 0001:000f3ab0       _ForceRage                 200f4ab0 f   w_force.obj
 0001:000f3e40       _ForceTelepathy            200f4e40 f   w_force.obj
 0001:000f4610       _ForceThrow                200f5610 f   w_force.obj
 0001:000f5e00       _WP_DoSpecificPower        200f6e00 f   w_force.obj
 0001:000f61e0       _WP_ForcePowersUpdate      200f71e0 f   w_force.obj
 0001:000f7280       _Jedi_DodgeEvasion         200f8280 f   w_force.obj
 0001:000f7570       _RandFloat                 200f8570 f   w_saber.obj
 0001:000f75a0       _G_CanBeEnemy              200f85a0 f   w_saber.obj
 0001:000f7790       _WP_DeactivateSaber        200f8790 f   w_saber.obj
 0001:000f7800       _WP_ActivateSaber          200f8800 f   w_saber.obj
 0001:000f78d0       _SaberUpdateSelf           200f88d0 f   w_saber.obj
 0001:000f7f30       _WP_SaberInitBladeData     200f8f30 f   w_saber.obj
 0001:000f9d30       _WP_SabersCheckLock        200fad30 f   w_saber.obj
 0001:000faaa0       _G_KnockawayForParry       200fbaa0 f   w_saber.obj
 0001:000fbf90       _WP_SaberBladeLength       200fcf90 f   w_saber.obj
 0001:000fc090       _WP_SaberLength            200fd090 f   w_saber.obj
 0001:000fc100       _WP_SabersIntersect        200fd100 f   w_saber.obj
 0001:000fcfa0       _WP_SaberClearDamage       200fdfa0 f   w_saber.obj
 0001:000fd060       _WP_SaberDamageAdd         200fe060 f   w_saber.obj
 0001:000fd1c0       _WP_SaberApplyDamage       200fe1c0 f   w_saber.obj
 0001:000fd270       _WP_SaberDoHit             200fe270 f   w_saber.obj
 0001:000fd540       _WP_SaberRadiusDamage      200fe540 f   w_saber.obj
 0001:000fd810       _WP_SaberDoClash           200fe810 f   w_saber.obj
 0001:000fd8a0       _WP_SaberBounceSound       200fe8a0 f   w_saber.obj
 0001:000fda70       _VectorCompare2            200fea70 f i w_saber.obj
 0001:000fdaf0       _SaberBounceSound          200feaf0 f   w_saber.obj
 0001:000fdb10       _DeadSaberThink            200feb10 f   w_saber.obj
 0001:000fdb50       _WP_SaberRemoveG2Model     200feb50 f   w_saber.obj
 0001:000fdb70       _WP_SaberAddG2Model        200feb70 f   w_saber.obj
 0001:000fdbe0       _saberCheckKnockdown_Thrown 200febe0 f   w_saber.obj
 0001:000fdc90       _UpdateClientRenderBolts   200fec90 f   w_saber.obj
 0001:000fe030       _UpdateClientRenderinfo    200ff030 f   w_saber.obj
 0001:000ff810       _WP_MissileBlockForBlock   20100810 f   w_saber.obj
 0001:000ff860       _WP_SaberBlockNonRandom    20100860 f   w_saber.obj
 0001:000ffa00       _WP_SaberCanBlock          20100a00 f   w_saber.obj
 0001:000ffc20       _HasSetSaberOnly           20100c20 f   w_saber.obj
 0001:000ffc70       _G_PickAutoKick            20100c70 f   w_saber.obj
 0001:000fff00       _G_EnemyInKickRange        20100f00 f   w_saber.obj
 0001:000fff80       _G_CanKickEntity           20100f80 f   w_saber.obj
 0001:000fffc0       _OJP_SaberIsOff            20100fc0 f   w_saber.obj
 0001:00100010       _OJP_BladeIsOff            20101010 f   w_saber.obj
 0001:001002c0       _WP_SaberStartMissileBlockCheck 201012c0 f   w_saber.obj
 0001:00101530       _MakeDeadSaber             20102530 f   w_saber.obj
 0001:001018b0       _saberBackToOwner          201028b0 f   w_saber.obj
 0001:00101cd0       _thrownSaberTouch          20102cd0 f   w_saber.obj
 0001:00102000       _saberReactivate           20103000 f   w_saber.obj
 0001:00102080       _saberFirstThrown          20103080 f   w_saber.obj
 0001:00102490       _DownedSaberThink          20103490 f   w_saber.obj
 0001:00102730       _saberKnockDown            20103730 f   w_saber.obj
 0001:00102a80       _saberKnockOutOfHand       20103a80 f   w_saber.obj
 0001:00102c30       _saberCheckKnockdown_DuelLoss 20103c30 f   w_saber.obj
 0001:00102ee0       _saberCheckKnockdown_BrokenParry 20103ee0 f   w_saber.obj
 0001:00103160       _saberCheckKnockdown_Smashed 20104160 f   w_saber.obj
 0001:00105b70       _G_SPSaberDamageTraceLerped 20106b70 f   w_saber.obj
 0001:00106430       _WP_SaberPositionUpdate    20107430 f   w_saber.obj
 0001:00108650       _WalkerYawAdjust           20109650 f   WalkerNPC.obj
 0001:001088f0       _SetVehicleMode            201098f0 f   WalkerNPC.obj
 0001:00108c50       _G_SetWalkerVehicleFunctions 20109c50 f   WalkerNPC.obj
 0001:00108c90       _G_CreateFighterNPC        20109c90 f   FighterNPC.obj
 0001:00108c90       _G_CreateSpeederNPC        20109c90 f   SpeederNPC.obj
 0001:00108c90       _G_CreateWalkerNPC         20109c90 f   WalkerNPC.obj
 0001:00108c90       _G_CreateAnimalNPC         20109c90 f   AnimalNPC.obj
 0001:00108ccc       __fpclear                  20109ccc f   LIBCMT:fpinit.obj
 0001:00108ccc       __initp_misc_winxfltr      20109ccc f   LIBCMT:winxfltr.obj
 0001:00108ccd       __cfltcvt_init             20109ccd f   LIBCMT:fpinit.obj
 0001:00108d2d       __fpmath                   20109d2d f   LIBCMT:fpinit.obj
 0001:00108d50       __CIsqrt                   20109d50 f   LIBCMT:sqrt.obj
 0001:00108d64       _sqrt                      20109d64     LIBCMT:sqrt.obj
 0001:00108e0a       _srand                     20109e0a f   LIBCMT:rand.obj
 0001:00108e17       _rand                      20109e17 f   LIBCMT:rand.obj
 0001:00108e40       _memset                    20109e40 f   LIBCMT:memset.obj
 0001:00108ec0       __ftol2_sse                20109ec0 f   LIBCMT:ftol2.obj
 0001:00108ec9       __ftol2_pentium4           20109ec9 f   LIBCMT:ftol2.obj
 0001:00108edc       __ftol2_sse_excpt          20109edc f   LIBCMT:ftol2.obj
 0001:00108ef6       __ftol2                    20109ef6 f   LIBCMT:ftol2.obj
 0001:00108f70       _strstr                    20109f70 f   LIBCMT:strstr.obj
 0001:00109010       _strchr                    2010a010 f   LIBCMT:strchr.obj
 0001:00109016       ___from_strstr_to_strchr   2010a016     LIBCMT:strchr.obj
 0001:001090d0       __chkstk                   2010a0d0 f   LIBCMT:chkstk.obj
 0001:001090d0       __alloca_probe             2010a0d0     LIBCMT:chkstk.obj
 0001:001090fb       _atol                      2010a0fb f   LIBCMT:atox.obj
 0001:0010910c       _atoi                      2010a10c f   LIBCMT:atox.obj
 0001:00109111       ??0_LocaleUpdate@@QAE@PAUlocaleinfo_struct@@@Z 2010a111 f i LIBCMT:atof.obj
 0001:00109193       __atof_l                   2010a193 f   LIBCMT:atof.obj
 0001:0010923c       _atof                      2010a23c f   LIBCMT:atof.obj
 0001:001092b2       _sscanf                    2010a2b2 f   LIBCMT:sscanf.obj
 0001:001092e0       _atan2                     2010a2e0 f   LIBCMT:87ctriga.obj
 0001:001092ea       __CIatan2                  2010a2ea f   LIBCMT:87ctriga.obj
 0001:00109300       _cos                       2010a300 f   LIBCMT:cos.obj
 0001:00109340       __CIcos                    2010a340 f   LIBCMT:cos.obj
 0001:0010937b       __CIcos_default            2010a37b f   LIBCMT:cos.obj
 0001:0010938f       __cos_default              2010a38f     LIBCMT:cos.obj
 0001:00109430       _sin                       2010a430 f   LIBCMT:sin.obj
 0001:00109470       __CIsin                    2010a470 f   LIBCMT:sin.obj
 0001:001094ab       __CIsin_default            2010a4ab f   LIBCMT:sin.obj
 0001:001094bf       __sin_default              2010a4bf     LIBCMT:sin.obj
 0001:00109560       _ceil                      2010a560 f   LIBCMT:ceil_pentium4.obj
 0001:001095a0       __ceil_pentium4            2010a5a0 f   LIBCMT:ceil_pentium4.obj
 0001:00109680       _floor                     2010a680 f   LIBCMT:floor_pentium4.obj
 0001:001096c0       __floor_pentium4           2010a6c0 f   LIBCMT:floor_pentium4.obj
 0001:001097b0       _strncpy                   2010a7b0 f   LIBCMT:strncpy.obj
 0001:001098e0       _memcpy                    2010a8e0 f   LIBCMT:memcpy.obj
 0001:00109c45       __tolower_l                2010ac45 f   LIBCMT:tolower.obj
 0001:00109d5c       _tolower                   2010ad5c f   LIBCMT:tolower.obj
 0001:00109d90       _strrchr                   2010ad90 f   LIBCMT:strrchr.obj
 0001:00109dbd       __vsprintf_l               2010adbd f   LIBCMT:vsprintf.obj
 0001:00109e39       _vsprintf                  2010ae39 f   LIBCMT:vsprintf.obj
 0001:00109f10       _qsort                     2010af10 f   LIBCMT:qsort.obj
 0001:0010a1c0       _acos                      2010b1c0 f   LIBCMT:acos.obj
 0001:0010a200       __CIacos                   2010b200 f   LIBCMT:acos.obj
 0001:0010a23b       __CIacos_default           2010b23b f   LIBCMT:acos.obj
 0001:0010a24f       __acos_default             2010b24f     LIBCMT:acos.obj
 0001:0010a306       _strncmp                   2010b306 f   LIBCMT:strncmp.obj
 0001:0010a3c4       _sprintf                   2010b3c4 f   LIBCMT:sprintf.obj
 0001:0010a440       _fmod                      2010b440 f   LIBCMT:87fmod.obj
 0001:0010a44a       __CIfmod                   2010b44a f   LIBCMT:87fmod.obj
 0001:0010a480       _memmove                   2010b480 f   LIBCMT:memmove.obj
 0001:0010a7e5       __toupper_l                2010b7e5 f   LIBCMT:toupper.obj
 0001:0010a8fd       _toupper                   2010b8fd f   LIBCMT:toupper.obj
 0001:0010a924       __vsnprintf_l              2010b924 f   LIBCMT:vsnprint.obj
 0001:0010a9d5       __vsnprintf                2010b9d5 f   LIBCMT:vsnprint.obj
 0001:0010a9f0       __CRT_INIT@12              2010b9f0 f   LIBCMT:dllcrt0.obj
 0001:0010acbf       __DllMainCRTStartup@12     2010bcbf f   LIBCMT:dllcrt0.obj
 0001:0010ace0       __forcdecpt_l              2010bce0 f   LIBCMT:cvt.obj
 0001:0010ad51       __cropzeros_l              2010bd51 f   LIBCMT:cvt.obj
 0001:0010add1       __positive                 2010bdd1 f   LIBCMT:cvt.obj
 0001:0010ade7       __fassign_l                2010bde7 f   LIBCMT:cvt.obj
 0001:0010ae27       __fassign                  2010be27 f   LIBCMT:cvt.obj
 0001:0010ae5b       __forcdecpt                2010be5b f   LIBCMT:cvt.obj
 0001:0010ae69       __cropzeros                2010be69 f   LIBCMT:cvt.obj
 0001:0010afe4       __cftoe_l                  2010bfe4 f   LIBCMT:cvt.obj
 0001:0010b0b2       __cftoe                    2010c0b2 f   LIBCMT:cvt.obj
 0001:0010b0d0       __cftoa_l                  2010c0d0 f   LIBCMT:cvt.obj
 0001:0010b536       __cftof_l                  2010c536 f   LIBCMT:cvt.obj
 0001:0010b5ef       __cftog_l                  2010c5ef f   LIBCMT:cvt.obj
 0001:0010b6e7       __cfltcvt_l                2010c6e7 f   LIBCMT:cvt.obj
 0001:0010b76d       __cfltcvt                  2010c76d f   LIBCMT:cvt.obj
 0001:0010b78e       __initp_misc_cfltcvt_tab   2010c78e f   LIBCMT:cmiscdat.obj
 0001:0010b7ad       __setdefaultprecision      2010c7ad f   LIBCMT:fp8.obj
 0001:0010b7d6       __ms_p5_test_fdiv          2010c7d6 f   LIBCMT:testfdiv.obj
 0001:0010b812       __ms_p5_mp_test_fdiv       2010c812 f   LIBCMT:testfdiv.obj
 0001:0010b840       __trandisp1                2010c840 f   LIBCMT:87disp.obj
 0001:0010b8a7       __trandisp2                2010c8a7 f   LIBCMT:87disp.obj
 0001:0010b933       __rttospopde               2010c933     LIBCMT:87disp.obj
 0001:0010b938       __rttospop                 2010c938     LIBCMT:87disp.obj
 0001:0010b93a       __rtnospop                 2010c93a     LIBCMT:87disp.obj
 0001:0010b93c       __rttosnpop                2010c93c     LIBCMT:87disp.obj
 0001:0010b93d       __rtnospopde               2010c93d     LIBCMT:87disp.obj
 0001:0010b944       __rtzeropop                2010c944     LIBCMT:87disp.obj
 0001:0010b946       __rtzeronpop               2010c946     LIBCMT:87disp.obj
 0001:0010b94b       __rtonepop                 2010c94b     LIBCMT:87disp.obj
 0001:0010b94d       __rtonenpop                2010c94d     LIBCMT:87disp.obj
 0001:0010b952       __tosnan1                  2010c952     LIBCMT:87disp.obj
 0001:0010b97d       __nosnan2                  2010c97d     LIBCMT:87disp.obj
 0001:0010b97f       __tosnan2                  2010c97f     LIBCMT:87disp.obj
 0001:0010b9a7       __nan2                     2010c9a7     LIBCMT:87disp.obj
 0001:0010b9e6       __rtindfpop                2010c9e6     LIBCMT:87disp.obj
 0001:0010b9e8       __rtindfnpop               2010c9e8     LIBCMT:87disp.obj
 0001:0010b9f9       __rttosnpopde              2010c9f9     LIBCMT:87disp.obj
 0001:0010ba03       __rtchsifneg               2010ca03     LIBCMT:87disp.obj
 0001:0010ba10       __startTwoArgErrorHandling 2010ca10 f   LIBCMT:genexcep.obj
 0001:0010ba27       __startOneArgErrorHandling 2010ca27 f   LIBCMT:genexcep.obj
 0001:0010ba70       __twoToTOS                 2010ca70 f   LIBCMT:common.obj
 0001:0010ba85       __load_CW                  2010ca85 f   LIBCMT:common.obj
 0001:0010ba9c       __convertTOStoQNaN         2010ca9c f   LIBCMT:common.obj
 0001:0010bab5       __fload_withFB             2010cab5 f   LIBCMT:common.obj
 0001:0010baf8       __checkTOS_withFB          2010caf8 f   LIBCMT:common.obj
 0001:0010bb0e       __fast_exit                2010cb0e f   LIBCMT:common.obj
 0001:0010bb1b       __math_exit                2010cb1b f   LIBCMT:common.obj
 0001:0010bb45       __check_overflow_exit      2010cb45 f   LIBCMT:common.obj
 0001:0010bb59       __check_range_exit         2010cb59 f   LIBCMT:common.obj
 0001:0010bbfc       __encode_pointer           2010cbfc f   LIBCMT:tidtable.obj
 0001:0010bc5f       __encoded_null             2010cc5f f   LIBCMT:tidtable.obj
 0001:0010bc68       __decode_pointer           2010cc68 f   LIBCMT:tidtable.obj
 0001:0010bccb       ___crtTlsAlloc@4           2010cccb f   LIBCMT:tidtable.obj
 0001:0010bcd4       ___set_flsgetvalue         2010ccd4 f   LIBCMT:tidtable.obj
 0001:0010bcfe       __mtterm                   2010ccfe f   LIBCMT:tidtable.obj
 0001:0010bd3b       __initptd                  2010cd3b f   LIBCMT:tidtable.obj
 0001:0010bdef       __getptd_noexit            2010cdef f   LIBCMT:tidtable.obj
 0001:0010be72       __getptd                   2010ce72 f   LIBCMT:tidtable.obj
 0001:0010be8a       __freefls@4                2010ce8a f   LIBCMT:tidtable.obj
 0001:0010bfab       __freeptd                  2010cfab f   LIBCMT:tidtable.obj
 0001:0010c014       __mtinit                   2010d014 f   LIBCMT:tidtable.obj
 0001:0010c1ef       __VEC_memzero              2010d1ef f   LIBCMT:p4_memset.obj
 0001:0010c27e       __sse2_mathfcns_init       2010d27e f   LIBCMT:mathfcns.obj
 0001:0010c4bd       _strtol                    2010d4bd f   LIBCMT:strtol.obj
 0001:0010c6f4       ___updatetmbcinfo          2010d6f4 f   LIBCMT:mbctype.obj
 0001:0010c812       __setmbcp_nolock           2010d812 f   LIBCMT:mbctype.obj
 0001:0010c9bd       __setmbcp                  2010d9bd f   LIBCMT:mbctype.obj
 0001:0010cb57       ___initmbctable            2010db57 f   LIBCMT:mbctype.obj
 0001:0010cb75       ___freetlocinfo            2010db75 f   LIBCMT:setlocal.obj
 0001:0010ccb5       ___addlocaleref            2010dcb5 f   LIBCMT:setlocal.obj
 0001:0010cd3b       ___removelocaleref         2010dd3b f   LIBCMT:setlocal.obj
 0001:0010ce05       ___updatetlocinfo          2010de05 f   LIBCMT:setlocal.obj
 0001:0010ce7b       __fltin2                   2010de7b f   LIBCMT:cfin.obj
 0001:0010cf20       _strlen                    2010df20 f   LIBCMT:strlen.obj
 0001:0010cfab       __isctype_l                2010dfab f   LIBCMT:isctype.obj
 0001:0010d061       __initp_misc_invarg        2010e061 f   LIBCMT:invarg.obj
 0001:0010d06b       __invoke_watson            2010e06b f   LIBCMT:invarg.obj
 0001:0010d167       __invalid_parameter        2010e167 f   LIBCMT:invarg.obj
 0001:0010d18b       __get_errno_from_oserr     2010e18b f   LIBCMT:dosmap.obj
 0001:0010d1c6       __errno                    2010e1c6 f   LIBCMT:dosmap.obj
 0001:0010d1d9       ___doserrno                2010e1d9 f   LIBCMT:dosmap.obj
 0001:0010d1ec       __dosmaperr                2010e1ec f   LIBCMT:dosmap.obj
 0001:0010d20a       ___strgtold12_l            2010e20a f   LIBCMT:strgtold.obj
 0001:0010d95d       __input_l                  2010e95d f   LIBCMT:input.obj
 0001:0010e5cc       __fFATN2                   2010f5cc     LIBCMT:87triga.obj
 0001:0010e61c       __rtpiby2                  2010f61c     LIBCMT:87triga.obj
 0001:0010e660       __cintrindisp2             2010f660 f   LIBCMT:87cdisp.obj
 0001:0010e69e       __cintrindisp1             2010f69e f   LIBCMT:87cdisp.obj
 0001:0010e6db       __ctrandisp2               2010f6db f   LIBCMT:87cdisp.obj
 0001:0010e871       __ctrandisp1               2010f871 f   LIBCMT:87cdisp.obj
 0001:0010e8a4       __fload                    2010f8a4 f   LIBCMT:87cdisp.obj
 0001:0010e8e0       __CIcos_pentium4           2010f8e0 f   LIBCMT:cos_pentium4.obj
 0001:0010e8f8       __cos_pentium4             2010f8f8     LIBCMT:cos_pentium4.obj
 0001:0010ea90       __CIsin_pentium4           2010fa90 f   LIBCMT:sin_pentium4.obj
 0001:0010eaa8       __sin_pentium4             2010faa8     LIBCMT:sin_pentium4.obj
 0001:0010ec58       ___libm_error_support      2010fc58 f   LIBCMT:libm_error.obj
 0001:0010ef08       __ceil_default             2010ff08 f   LIBCMT:ceil.obj
 0001:0010efd9       __floor_default            2010ffd9 f   LIBCMT:floor.obj
 0001:0010f131       __VEC_memcpy               20110131 f   LIBCMT:p4_memcpy.obj
 0001:0010f214       __freea                    20110214 f i LIBCMT:a_map.obj
 0001:0010f5d1       ___crtLCMapStringA         201105d1 f   LIBCMT:a_map.obj
 0001:0010f614       __isleadbyte_l             20110614 f i LIBCMT:_wctype.obj
 0001:0010f64a       _isleadbyte                2011064a f i LIBCMT:_wctype.obj
 0001:0010f658       __flsbuf                   20110658 f   LIBCMT:_flsbuf.obj
 0001:0010f859       __output_l                 20110859 f   LIBCMT:output.obj
 0001:00110200       __CIacos_pentium4          20111200 f   LIBCMT:acos_pentium4.obj
 0001:00110218       __acos_pentium4            20111218     LIBCMT:acos_pentium4.obj
 0001:00110760       _fdiv_main_routine         20111760 f   LIBCMT:adj_fdiv.obj
 0001:00110877       __adj_fdiv_r               20111877 f   LIBCMT:adj_fdiv.obj
 0001:00110d16       __fdivp_sti_st             20111d16 f   LIBCMT:adj_fdiv.obj
 0001:00110d29       __fdivrp_sti_st            20111d29 f   LIBCMT:adj_fdiv.obj
 0001:00110d3c       __adj_fdiv_m32             20111d3c f   LIBCMT:adj_fdiv.obj
 0001:00110d88       __adj_fdiv_m64             20111d88 f   LIBCMT:adj_fdiv.obj
 0001:00110dd4       __adj_fdiv_m16i            20111dd4 f   LIBCMT:adj_fdiv.obj
 0001:00110e08       __adj_fdiv_m32i            20111e08 f   LIBCMT:adj_fdiv.obj
 0001:00110e3c       __adj_fdivr_m32            20111e3c f   LIBCMT:adj_fdiv.obj
 0001:00110e88       __adj_fdivr_m64            20111e88 f   LIBCMT:adj_fdiv.obj
 0001:00110ed4       __adj_fdivr_m16i           20111ed4 f   LIBCMT:adj_fdiv.obj
 0001:00110f08       __adj_fdivr_m32i           20111f08 f   LIBCMT:adj_fdiv.obj
 0001:00110f3c       __safe_fdiv                20111f3c f   LIBCMT:adj_fdiv.obj
 0001:00110f51       __safe_fdivr               20111f51 f   LIBCMT:adj_fdiv.obj
 0001:00110f66       __fprem_common             20111f66 f   LIBCMT:adj_fdiv.obj
 0001:0011116c       __adj_fprem                2011216c f   LIBCMT:adj_fdiv.obj
 0001:0011121e       __fprem1_common            2011221e f   LIBCMT:adj_fdiv.obj
 0001:00111424       __adj_fprem1               20112424 f   LIBCMT:adj_fdiv.obj
 0001:001114d9       __safe_fprem               201124d9 f   LIBCMT:adj_fdiv.obj
 0001:001114df       __safe_fprem1              201124df f   LIBCMT:adj_fdiv.obj
 0001:001114e5       __adj_fpatan               201124e5 f   LIBCMT:adj_fdiv.obj
 0001:001114e8       __adj_fptan                201124e8 f   LIBCMT:adj_fdiv.obj
 0001:001114eb       __amsg_exit                201124eb f   LIBCMT:crt0dat.obj
 0001:0011150f       ___crtCorExitProcess       2011250f f   LIBCMT:crt0dat.obj
 0001:00111535       ___crtExitProcess          20112535 f   LIBCMT:crt0dat.obj
 0001:0011154a       __lockexit                 2011254a f   LIBCMT:crt0dat.obj
 0001:00111553       __unlockexit               20112553 f   LIBCMT:crt0dat.obj
 0001:00111574       __initterm_e               20112574 f   LIBCMT:crt0dat.obj
 0001:00111594       __get_osplatform           20112594 f   LIBCMT:crt0dat.obj
 0001:001115cb       __get_winmajor             201125cb f   LIBCMT:crt0dat.obj
 0001:00111607       __cinit                    20112607 f   LIBCMT:crt0dat.obj
 0001:00111767       __exit                     20112767 f   LIBCMT:crt0dat.obj
 0001:00111778       __cexit                    20112778 f   LIBCMT:crt0dat.obj
 0001:00111787       __init_pointers            20112787 f   LIBCMT:crt0dat.obj
 0001:001117d3       _free                      201127d3 f   LIBCMT:free.obj
 0001:00111861       __malloc_crt               20112861 f   LIBCMT:crtheap.obj
 0001:001118a1       __calloc_crt               201128a1 f   LIBCMT:crtheap.obj
 0001:001118e9       __realloc_crt              201128e9 f   LIBCMT:crtheap.obj
 0001:00111934       __recalloc_crt             20112934 f   LIBCMT:crtheap.obj
 0001:00111984       __ioinit                   20112984 f   LIBCMT:ioinit.obj
 0001:00111bc4       __ioterm                   20112bc4 f   LIBCMT:ioinit.obj
 0001:00111c10       __setenvp                  20112c10 f   LIBCMT:stdenvp.obj
 0001:00111e83       __setargv                  20112e83 f   LIBCMT:stdargv.obj
 0001:00111f3c       ___crtGetEnvironmentStringsA 20112f3c f   LIBCMT:a_env.obj
 0001:00112071       __RTC_Initialize           20113071 f   LIBCMT:initsect.obj
 0001:00112095       __RTC_Terminate            20113095 f   LIBCMT:initsect.obj
 0001:001120b9       ___heap_select             201130b9 f   LIBCMT:heapinit.obj
 0001:00112114       __heap_init                20113114 f   LIBCMT:heapinit.obj
 0001:0011216e       __heap_term                2011316e f   LIBCMT:heapinit.obj
 0001:001121e2       __XcptFilter               201131e2 f   LIBCMT:winxfltr.obj
 0001:00112351       ___CppXcptFilter           20113351 f   LIBCMT:winxfltr.obj
 0001:0011236c       _DllMain@12                2011336c f   LIBCMT:dllmain.obj
 0001:00112374       __SEH_prolog4              20113374 f   LIBCMT:sehprolg4.obj
 0001:001123b9       __SEH_epilog4              201133b9 f   LIBCMT:sehprolg4.obj
 0001:001123d0       __except_handler4          201133d0 f   LIBCMT:chandler4.obj
 0001:00112566       ___security_init_cookie    20113566 f   LIBCMT:gs_support.obj
 0001:001125fa       __isdigit_l                201135fa f i LIBCMT:_ctype.obj
 0001:00112649       _isdigit                   20113649 f i LIBCMT:_ctype.obj
 0001:00112672       __isxdigit_l               20113672 f i LIBCMT:_ctype.obj
 0001:001126c6       _isxdigit                  201136c6 f i LIBCMT:_ctype.obj
 0001:001126f1       __isspace_l                201136f1 f i LIBCMT:_ctype.obj
 0001:00112740       _isspace                   20113740 f i LIBCMT:_ctype.obj
 0001:00112769       __atodbl_l                 20113769 f   LIBCMT:atodbl.obj
 0001:0011280f       __atoflt_l                 2011380f f   LIBCMT:atodbl.obj
 0001:001128b5       _strcpy_s                  201138b5 f   LIBCMT:strcpy_s.obj
 0001:0011291a       __fptostr                  2011391a f   LIBCMT:_fptostr.obj
 0001:001129d7       ___dtold                   201139d7 f   LIBCMT:cfout.obj
 0001:00112a92       __fltout2                  20113a92 f   LIBCMT:cfout.obj
 0001:00112b20       @__security_check_cookie@4 20113b20 f   LIBCMT:secchk.obj
 0001:00112b30       __alldvrm                  20113b30 f   LIBCMT:lldvrm.obj
 0001:00112c10       __aullshr                  20113c10 f   LIBCMT:ullshr.obj
 0001:00112c2f       __fptrap                   20113c2f f   LIBCMT:crt0fp.obj
 0001:00112c38       __controlfp_s              20113c38 f   LIBCMT:contrlfp.obj
 0001:00112ca2       __87except                 20113ca2 f   LIBCMT:87except.obj
 0001:00112d9e       __mtinitlocks              20113d9e f   LIBCMT:mlock.obj
 0001:00112de7       __mtdeletelocks            20113de7 f   LIBCMT:mlock.obj
 0001:00112e3c       __unlock                   20113e3c f   LIBCMT:mlock.obj
 0001:00112e51       __mtinitlocknum            20113e51 f   LIBCMT:mlock.obj
 0001:00112f14       __lock                     20113f14 f   LIBCMT:mlock.obj
 0001:00112f95       __get_sse2_info            20113f95 f   LIBCMT:cpu_disp.obj
 0001:00112ff5       ___sse2_available_init     20113ff5 f   LIBCMT:cpu_disp.obj
 0001:00113010       __allmul                   20114010 f   LIBCMT:llmul.obj
 0001:00113050       __aulldvrm                 20114050 f   LIBCMT:ulldvrm.obj
 0001:0011329d       ___crtGetStringTypeA       2011429d f   LIBCMT:a_str.obj
 0001:001132dd       ___free_lc_time            201142dd f   LIBCMT:inittime.obj
 0001:0011346d       ___free_lconv_num          2011446d f   LIBCMT:initnum.obj
 0001:001134ad       ___free_lconv_mon          201144ad f   LIBCMT:initmon.obj
 0001:00113536       _strcat_s                  20114536 f   LIBCMT:strcat_s.obj
 0001:001135b0       _strcspn                   201145b0 f   LIBCMT:strcspn.obj
 0001:001135f6       _strncpy_s                 201145f6 f   LIBCMT:strncpy_s.obj
 0001:001136b0       _strcmp                    201146b0 f   LIBCMT:strcmp.obj
 0001:00113740       _strpbrk                   20114740 f   LIBCMT:strpbrk.obj
 0001:00113780       __ld12tod                  20114780 f   LIBCMT:intrncvt.obj
 0001:00113cc2       __ld12tof                  20114cc2 f   LIBCMT:intrncvt.obj
 0001:00114204       __crt_debugger_hook        20115204 f   LIBCMT:dbghook.obj
 0001:0011420c       ___mtold12                 2011520c f   LIBCMT:mantold.obj
 0001:001143d8       __filbuf                   201153d8 f   LIBCMT:_filbuf.obj
 0001:001144f8       __ungetc_nolock            201154f8 f   LIBCMT:ungetc.obj
 0001:00114616       __mbtowc_l                 20115616 f   LIBCMT:mbtowc.obj
 0001:00114729       _mbtowc                    20115729 f   LIBCMT:mbtowc.obj
 0001:00114740       __fileno                   20115740 f   LIBCMT:fileno.obj
 0001:0011476d       __matherr                  2011576d f   LIBCMT:matherr.obj
 0001:00114770       __raise_exc_ex             20115770 f   LIBCMT:fpexcept.obj
 0001:00114a4a       __raise_exc                20115a4a f   LIBCMT:fpexcept.obj
 0001:00114a6b       __handle_exc               20115a6b f   LIBCMT:fpexcept.obj
 0001:00114c4c       __set_errno_from_matherr   20115c4c f   LIBCMT:fpexcept.obj
 0001:00114c74       __errcode                  20115c74 f   LIBCMT:fpexcept.obj
 0001:00114ca1       __umatherr                 20115ca1 f   LIBCMT:fpexcept.obj
 0001:00114d3f       __handle_qnan1             20115d3f f   LIBCMT:fpexcept.obj
 0001:00114d92       __except1                  20115d92 f   LIBCMT:fpexcept.obj
 0001:00114e4c       __frnd                     20115e4c f   LIBCMT:frnd.obj
 0001:00114e5d       __set_exp                  20115e5d f   LIBCMT:util.obj
 0001:00114e87       __sptype                   20115e87 f   LIBCMT:util.obj
 0001:00114ee2       __decomp                   20115ee2 f   LIBCMT:util.obj
 0001:00114f91       __statfp                   20115f91 f   LIBCMT:fpctrl.obj
 0001:00114f9c       __clrfp                    20115f9c f   LIBCMT:fpctrl.obj
 0001:00114fa8       __ctrlfp                   20115fa8 f   LIBCMT:fpctrl.obj
 0001:00114fcf       __set_statfp               20115fcf f   LIBCMT:fpctrl.obj
 0001:00115025       ___set_fpsr_sse2           20116025 f   LIBCMT:fpctrl.obj
 0001:00115097       ___ansicp                  20116097 f   LIBCMT:convrtcp.obj
 0001:001150de       ___convertcp               201160de f   LIBCMT:convrtcp.obj
 0001:00115290       _V6_HeapAlloc              20116290 f   LIBCMT:malloc.obj
 0001:001152df       _malloc                    201162df f   LIBCMT:malloc.obj
 0001:001153b0       __alloca_probe_16          201163b0 f   LIBCMT:alloca16.obj
 0001:001153c6       __alloca_probe_8           201163c6     LIBCMT:alloca16.obj
 0001:001153dc       __lseeki64_nolock          201163dc f   LIBCMT:lseeki64.obj
 0001:0011545f       __lseeki64                 2011645f f   LIBCMT:lseeki64.obj
 0001:00115578       __write_nolock             20116578 f   LIBCMT:write.obj
 0001:00115b3e       __write                    20116b3e f   LIBCMT:write.obj
 0001:00115c1a       __getbuf                   20116c1a f   LIBCMT:_getbuf.obj
 0001:00115c5e       __isatty                   20116c5e f   LIBCMT:isatty.obj
 0001:00115cbc       ___iob_func                20116cbc f   LIBCMT:_file.obj
 0001:00115cc2       ___initstdio               20116cc2 f   LIBCMT:_file.obj
 0001:00115d73       ___endstdio                20116d73 f   LIBCMT:_file.obj
 0001:00115d93       __lock_file                20116d93 f   LIBCMT:_file.obj
 0001:00115dc2       __lock_file2               20116dc2 f   LIBCMT:_file.obj
 0001:00115de5       __unlock_file              20116de5 f   LIBCMT:_file.obj
 0001:00115e14       __unlock_file2             20116e14 f   LIBCMT:_file.obj
 0001:00115e37       __get_printf_count_output  20116e37 f   LIBCMT:printf.obj
 0001:00115e4d       __wctomb_s_l               20116e4d f   LIBCMT:wctomb.obj
 0001:00115fac       _wctomb_s                  20116fac f   LIBCMT:wctomb.obj
 0001:00115fc7       __NMSG_WRITE               20116fc7 f   LIBCMT:crt0msg.obj
 0001:00116167       __FF_MSGBANNER             20117167 f   LIBCMT:crt0msg.obj
 0001:0011624d       ___onexitinit              2011724d f   LIBCMT:onexit.obj
 0001:0011627c       __onexit                   2011727c f   LIBCMT:onexit.obj
 0001:001162b8       _atexit                    201172b8 f   LIBCMT:onexit.obj
 0001:001162d0       __ValidateImageBase        201172d0 f   LIBCMT:pesect.obj
 0001:00116300       __FindPESection            20117300 f   LIBCMT:pesect.obj
 0001:00116342       __IsNonwritableInCurrentImage 20117342 f   LIBCMT:pesect.obj
 0001:001163ae       ?terminate@@YAXXZ          201173ae f   LIBCMT:hooks.obj
 0001:001163e7       __initp_eh_hooks           201173e7 f   LIBCMT:hooks.obj
 0001:001163f8       __initp_misc_winsig        201173f8 f   LIBCMT:winsig.obj
 0001:00116445       ___get_sigabrt             20117445 f   LIBCMT:winsig.obj
 0001:00116452       _raise                     20117452 f   LIBCMT:winsig.obj
 0001:00116602       __initp_misc_rand_s        20117602 f   LIBCMT:rand_s.obj
 0001:0011660c       __initp_misc_purevirt      2011760c f   LIBCMT:inithelp.obj
 0001:00116616       __initp_misc_initcrit      20117616 f   LIBCMT:initcrit.obj
 0001:00116630       ___crtInitCritSecAndSpinCount 20117630 f   LIBCMT:initcrit.obj
 0001:001166f5       __initp_heap_handler       201176f5 f   LIBCMT:handler.obj
 0001:001166ff       __callnewh                 201176ff f   LIBCMT:handler.obj
 0001:00116721       ___sbh_heap_init           20117721 f   LIBCMT:sbheap.obj
 0001:00116769       ___sbh_find_block          20117769 f   LIBCMT:sbheap.obj
 0001:00116794       ___sbh_free_block          20117794 f   LIBCMT:sbheap.obj
 0001:00116aa8       ___sbh_alloc_new_region    20117aa8 f   LIBCMT:sbheap.obj
 0001:00116b58       ___sbh_alloc_new_group     20117b58 f   LIBCMT:sbheap.obj
 0001:00116c5e       ___sbh_resize_block        20117c5e f   LIBCMT:sbheap.obj
 0001:00116f3d       ___sbh_alloc_block         20117f3d f   LIBCMT:sbheap.obj
 0001:00117220       __calloc_impl              20118220 f   LIBCMT:calloc.obj
 0001:0011733e       _realloc                   2011833e f   LIBCMT:realloc.obj
 0001:00117559       __recalloc                 20118559 f   LIBCMT:realloc.obj
 0001:001175f1       __ismbblead                201185f1 f   LIBCMT:ismbbyte.obj
 0001:00117604       __local_unwind4            20118604 f   LIBCMT:exsup4.obj
 0001:001176da       __seh_longjmp_unwind4@4    201186da f   LIBCMT:exsup4.obj
 0001:001176f6       @_EH4_CallFilterFunc@8     201186f6 f   LIBCMT:exsup4.obj
 0001:0011770d       @_EH4_TransferToHandler@8  2011870d f   LIBCMT:exsup4.obj
 0001:00117726       @_EH4_GlobalUnwind@4       20118726 f   LIBCMT:exsup4.obj
 0001:00117740       @_EH4_LocalUnwind@16       20118740 f   LIBCMT:exsup4.obj
 0001:00117757       _$I10_OUTPUT               20118757 f   LIBCMT:x10fout.obj
 0001:0011801f       ___report_gsfailure        2011901f f   LIBCMT:gs_report.obj
 0001:00118251       __control87                20119251 f i LIBCMT:ieee87.obj
 0001:00118554       ___ascii_stricmp           20119554 f   LIBCMT:stricmp.obj
 0001:00118589       __stricmp_l                20119589 f   LIBCMT:stricmp.obj
 0001:0011865c       _stricmp                   2011965c f   LIBCMT:stricmp.obj
 0001:0011865c       __stricmp                  2011965c f   LIBCMT:stricmp.obj
 0001:001186ac       __read_nolock              201196ac f   LIBCMT:read.obj
 0001:00118c4e       __read                     20119c4e f   LIBCMT:read.obj
 0001:00118d2a       __free_osfhnd              20119d2a f   LIBCMT:osfinfo.obj
 0001:00118dab       __get_osfhandle            20119dab f   LIBCMT:osfinfo.obj
 0001:00118e1c       ___lock_fhandle            20119e1c f   LIBCMT:osfinfo.obj
 0001:00118ebc       __unlock_fhandle           20119ebc f   LIBCMT:osfinfo.obj
 0001:00118ede       __putwch_nolock            20119ede f   LIBCMT:putwch.obj
 0001:00118fa0       __fcloseall                20119fa0 f   LIBCMT:closeall.obj
 0001:0011903f       __flush                    2011a03f f   LIBCMT:fflush.obj
 0001:001190a1       __fflush_nolock            2011a0a1 f   LIBCMT:fflush.obj
 0001:001191bd       __flushall                 2011a1bd f   LIBCMT:fflush.obj
 0001:001191c6       ___crtMessageBoxA          2011a1c6 f   LIBCMT:crtmbox.obj
 0001:00119364       __set_error_mode           2011a364 f   LIBCMT:errmode.obj
 0001:001193aa       __msize                    2011a3aa f   LIBCMT:msize.obj
 0001:0011944d       _abort                     2011a44d f   LIBCMT:abort.obj
 0001:00119540       __global_unwind2           2011a540 f   LIBCMT:exsup.obj
 0001:001195a5       __local_unwind2            2011a5a5 f   LIBCMT:exsup.obj
 0001:00119629       __abnormal_termination     2011a629 f   LIBCMT:exsup.obj
 0001:0011964c       __NLG_Notify1              2011a64c f   LIBCMT:exsup.obj
 0001:00119655       __NLG_Notify               2011a655 f   LIBCMT:exsup.obj
 0001:0011966c       __NLG_Dispatch             2011a66c     LIBCMT:exsup.obj
 0001:0011966c       __NLG_Dispatch2            2011a66c     LIBCMT:exsup.obj
 0001:00119674       __NLG_Call                 2011a674 f   LIBCMT:exsup.obj
 0001:00119676       __NLG_Return2              2011a676     LIBCMT:exsup.obj
 0001:00119680       ___ascii_strnicmp          2011a680 f   LIBCMT:_strnicm.obj
 0001:001196e1       ___initconout              2011a6e1 f   LIBCMT:initcon.obj
 0001:00119700       ___termcon                 2011a700 f   LIBCMT:initcon.obj
 0001:0011972d       __fclose_nolock            2011a72d f   LIBCMT:fclose.obj
 0001:001197a0       _fclose                    2011a7a0 f   LIBCMT:fclose.obj
 0001:0011981c       __commit                   2011a81c f   LIBCMT:commit.obj
 0001:001198fd       __close_nolock             2011a8fd f   LIBCMT:close.obj
 0001:00119991       __close                    2011a991 f   LIBCMT:close.obj
 0001:00119a5e       __freebuf                  2011aa5e f   LIBCMT:_freebuf.obj
 0001:00119a8a       _RtlUnwind@16              2011aa8a f   kernel32:KERNEL32.dll
 0002:00000000       __imp__GetCurrentProcess@0 2011b000     kernel32:KERNEL32.dll
 0002:00000004       __imp__GlobalFree@4        2011b004     kernel32:KERNEL32.dll
 0002:00000008       __imp__GetModuleFileNameA@12 2011b008     kernel32:KERNEL32.dll
 0002:0000000c       __imp__GetCurrentThread@0  2011b00c     kernel32:KERNEL32.dll
 0002:00000010       __imp__GlobalAlloc@8       2011b010     kernel32:KERNEL32.dll
 0002:00000014       __imp__FreeLibrary@4       2011b014     kernel32:KERNEL32.dll
 0002:00000018       __imp__SetUnhandledExceptionFilter@4 2011b018     kernel32:KERNEL32.dll
 0002:0000001c       __imp__GetProcAddress@8    2011b01c     kernel32:KERNEL32.dll
 0002:00000020       __imp__LoadLibraryA@4      2011b020     kernel32:KERNEL32.dll
 0002:00000024       __imp__GetCurrentThreadId@0 2011b024     kernel32:KERNEL32.dll
 0002:00000028       __imp__GetCommandLineA@0   2011b028     kernel32:KERNEL32.dll
 0002:0000002c       __imp__HeapFree@12         2011b02c     kernel32:KERNEL32.dll
 0002:00000030       __imp__GetVersionExA@4     2011b030     kernel32:KERNEL32.dll
 0002:00000034       __imp__HeapAlloc@12        2011b034     kernel32:KERNEL32.dll
 0002:00000038       __imp__GetProcessHeap@0    2011b038     kernel32:KERNEL32.dll
 0002:0000003c       __imp__GetModuleHandleA@4  2011b03c     kernel32:KERNEL32.dll
 0002:00000040       __imp__TlsGetValue@4       2011b040     kernel32:KERNEL32.dll
 0002:00000044       __imp__TlsAlloc@0          2011b044     kernel32:KERNEL32.dll
 0002:00000048       __imp__TlsSetValue@8       2011b048     kernel32:KERNEL32.dll
 0002:0000004c       __imp__TlsFree@4           2011b04c     kernel32:KERNEL32.dll
 0002:00000050       __imp__InterlockedIncrement@4 2011b050     kernel32:KERNEL32.dll
 0002:00000054       __imp__SetLastError@4      2011b054     kernel32:KERNEL32.dll
 0002:00000058       __imp__GetLastError@0      2011b058     kernel32:KERNEL32.dll
 0002:0000005c       __imp__InterlockedDecrement@4 2011b05c     kernel32:KERNEL32.dll
 0002:00000060       __imp__GetCPInfo@8         2011b060     kernel32:KERNEL32.dll
 0002:00000064       __imp__GetACP@0            2011b064     kernel32:KERNEL32.dll
 0002:00000068       __imp__GetOEMCP@0          2011b068     kernel32:KERNEL32.dll
 0002:0000006c       __imp__TerminateProcess@8  2011b06c     kernel32:KERNEL32.dll
 0002:00000070       __imp__UnhandledExceptionFilter@4 2011b070     kernel32:KERNEL32.dll
 0002:00000074       __imp__IsDebuggerPresent@0 2011b074     kernel32:KERNEL32.dll
 0002:00000078       __imp__LCMapStringA@24     2011b078     kernel32:KERNEL32.dll
 0002:0000007c       __imp__WideCharToMultiByte@32 2011b07c     kernel32:KERNEL32.dll
 0002:00000080       __imp__MultiByteToWideChar@24 2011b080     kernel32:KERNEL32.dll
 0002:00000084       __imp__LCMapStringW@24     2011b084     kernel32:KERNEL32.dll
 0002:00000088       __imp__ExitProcess@4       2011b088     kernel32:KERNEL32.dll
 0002:0000008c       __imp__Sleep@4             2011b08c     kernel32:KERNEL32.dll
 0002:00000090       __imp__SetHandleCount@4    2011b090     kernel32:KERNEL32.dll
 0002:00000094       __imp__GetStdHandle@4      2011b094     kernel32:KERNEL32.dll
 0002:00000098       __imp__GetFileType@4       2011b098     kernel32:KERNEL32.dll
 0002:0000009c       __imp__GetStartupInfoA@4   2011b09c     kernel32:KERNEL32.dll
 0002:000000a0       __imp__DeleteCriticalSection@4 2011b0a0     kernel32:KERNEL32.dll
 0002:000000a4       __imp__FreeEnvironmentStringsA@4 2011b0a4     kernel32:KERNEL32.dll
 0002:000000a8       __imp__GetEnvironmentStrings@0 2011b0a8     kernel32:KERNEL32.dll
 0002:000000ac       __imp__FreeEnvironmentStringsW@4 2011b0ac     kernel32:KERNEL32.dll
 0002:000000b0       __imp__GetEnvironmentStringsW@0 2011b0b0     kernel32:KERNEL32.dll
 0002:000000b4       __imp__HeapDestroy@4       2011b0b4     kernel32:KERNEL32.dll
 0002:000000b8       __imp__HeapCreate@12       2011b0b8     kernel32:KERNEL32.dll
 0002:000000bc       __imp__VirtualFree@12      2011b0bc     kernel32:KERNEL32.dll
 0002:000000c0       __imp__QueryPerformanceCounter@4 2011b0c0     kernel32:KERNEL32.dll
 0002:000000c4       __imp__GetTickCount@0      2011b0c4     kernel32:KERNEL32.dll
 0002:000000c8       __imp__GetCurrentProcessId@0 2011b0c8     kernel32:KERNEL32.dll
 0002:000000cc       __imp__GetSystemTimeAsFileTime@4 2011b0cc     kernel32:KERNEL32.dll
 0002:000000d0       __imp__LeaveCriticalSection@4 2011b0d0     kernel32:KERNEL32.dll
 0002:000000d4       __imp__EnterCriticalSection@4 2011b0d4     kernel32:KERNEL32.dll
 0002:000000d8       __imp__GetStringTypeA@20   2011b0d8     kernel32:KERNEL32.dll
 0002:000000dc       __imp__GetStringTypeW@16   2011b0dc     kernel32:KERNEL32.dll
 0002:000000e0       __imp__GetLocaleInfoA@16   2011b0e0     kernel32:KERNEL32.dll
 0002:000000e4       __imp__RaiseException@16   2011b0e4     kernel32:KERNEL32.dll
 0002:000000e8       __imp__SetFilePointer@16   2011b0e8     kernel32:KERNEL32.dll
 0002:000000ec       __imp__WriteFile@20        2011b0ec     kernel32:KERNEL32.dll
 0002:000000f0       __imp__GetConsoleCP@0      2011b0f0     kernel32:KERNEL32.dll
 0002:000000f4       __imp__GetConsoleMode@8    2011b0f4     kernel32:KERNEL32.dll
 0002:000000f8       __imp__InitializeCriticalSection@4 2011b0f8     kernel32:KERNEL32.dll
 0002:000000fc       __imp__VirtualAlloc@16     2011b0fc     kernel32:KERNEL32.dll
 0002:00000100       __imp__HeapReAlloc@16      2011b100     kernel32:KERNEL32.dll
 0002:00000104       __imp__RtlUnwind@16        2011b104     kernel32:KERNEL32.dll
 0002:00000108       __imp__ReadFile@20         2011b108     kernel32:KERNEL32.dll
 0002:0000010c       __imp__SetStdHandle@8      2011b10c     kernel32:KERNEL32.dll
 0002:00000110       __imp__WriteConsoleA@20    2011b110     kernel32:KERNEL32.dll
 0002:00000114       __imp__GetConsoleOutputCP@0 2011b114     kernel32:KERNEL32.dll
 0002:00000118       __imp__WriteConsoleW@20    2011b118     kernel32:KERNEL32.dll
 0002:0000011c       __imp__HeapSize@12         2011b11c     kernel32:KERNEL32.dll
 0002:00000120       __imp__CreateFileA@28      2011b120     kernel32:KERNEL32.dll
 0002:00000124       __imp__CloseHandle@4       2011b124     kernel32:KERNEL32.dll
 0002:00000128       __imp__FlushFileBuffers@4  2011b128     kernel32:KERNEL32.dll
 0002:0000012c       \177KERNEL32_NULL_THUNK_DATA 2011b12c     kernel32:KERNEL32.dll
 0002:00000130       __imp__wsprintfA           2011b130     user32:USER32.dll
 0002:00000134       \177USER32_NULL_THUNK_DATA 2011b134     user32:USER32.dll
 0002:00000138       ___xc_a                    2011b138     LIBCMT:crt0init.obj
 0002:0000013c       ___xc_z                    2011b13c     LIBCMT:crt0init.obj
 0002:00000140       ___xi_a                    2011b140     LIBCMT:crt0init.obj
 0002:00000158       ___xi_z                    2011b158     LIBCMT:crt0init.obj
 0002:0000015c       ___xp_a                    2011b15c     LIBCMT:crt0init.obj
 0002:00000168       ___xp_z                    2011b168     LIBCMT:crt0init.obj
 0002:0000016c       ___xt_a                    2011b16c     LIBCMT:crt0init.obj
 0002:00000170       ___xt_z                    2011b170     LIBCMT:crt0init.obj
 0002:00000180       __real@4040000000000000    2011b180     ai_aotc.obj
 0002:00000188       __real@4050000000000000    2011b188     ai_aotc.obj
 0002:00000190       __real@408f400000000000    2011b190     ai_aotc.obj
 0002:00000198       __real@40b0000000000000    2011b198     ai_aotc.obj
 0002:000001a0       __real@4058000000000000    2011b1a0     ai_aotc.obj
 0002:000001a8       __real@00000000            2011b1a8     ai_aotc.obj
 0002:000001a8       ??_C@_13NOLLCAOD@?$AA?$AA?$AA?$AA@ 2011b1a8     LIBCMT:a_map.obj
 0002:000001ac       __real@c1800000            2011b1ac     ai_aotc.obj
 0002:000001b0       __real@c030000000000000    2011b1b0     ai_aotc.obj
 0002:000001b8       ??_C@_0BH@CCIHNINF@Too?5far?$CB?5?$CFi?5is?5?$DO?51200?$CB?$AA@ 2011b1b8     ai_aotc.obj
 0002:000001d0       __real@44960000            2011b1d0     ai_aotc.obj
 0002:000001d4       __real@3f800000            2011b1d4     ai_aotc.obj
 0002:000001d8       __real@3fe0000000000000    2011b1d8     ai_aotc.obj
 0002:000001e0       __real@4059000000000000    2011b1e0     ai_aotc.obj
 0002:000001e8       __real@44160000            2011b1e8     ai_aotc.obj
 0002:000001ec       __real@c2000000            2011b1ec     ai_aotc.obj
 0002:000001f0       __real@42800000            2011b1f0     ai_aotc.obj
 0002:000001f4       __real@42000000            2011b1f4     ai_aotc.obj
 0002:000001f8       __real@41700000            2011b1f8     ai_aotc.obj
 0002:000001fc       __real@c1700000            2011b1fc     ai_aotc.obj
 0002:00000200       __real@451c4000            2011b200     ai_aotc.obj
 0002:00000204       __real@44000000            2011b204     ai_aotc.obj
 0002:00000208       __real@43800000            2011b208     ai_aotc.obj
 0002:00000210       __real@4089000000000000    2011b210     ai_aotc.obj
 0002:00000218       __real@41f00000            2011b218     ai_aotc.obj
 0002:0000021c       __real@42a00000            2011b21c     ai_aotc.obj
 0002:00000220       __real@4020000000000000    2011b220     ai_aotc.obj
 0002:00000228       __real@44800000            2011b228     ai_aotc.obj
 0002:00000230       __real@40bf400000000000    2011b230     ai_aotc.obj
 0002:00000238       __real@4069000000000000    2011b238     ai_aotc.obj
 0002:00000240       __real@40bb580000000000    2011b240     ai_aotc.obj
 0002:00000248       __real@40b3880000000000    2011b248     ai_aotc.obj
 0002:00000250       __real@4068000000000000    2011b250     ai_aotc.obj
 0002:00000258       __real@44bb8000            2011b258     ai_aotc.obj
 0002:0000025c       __real@442f0000            2011b25c     ai_aotc.obj
 0002:00000260       __real@43960000            2011b260     ai_aotc.obj
 0002:00000264       __real@bf800000            2011b264     ai_aotc.obj
 0002:00000268       __real@43000000            2011b268     ai_aotc.obj
 0002:0000026c       __real@42c80000            2011b26c     ai_aotc.obj
 0002:00000270       __real@4079000000000000    2011b270     ai_aotc.obj
 0002:00000278       ??_C@_06GJNLCKAP@Killed?$AA@ 2011b278     ai_aotc.obj
 0002:00000280       ??_C@_0P@JCCFAGGL@KilledHatedOne?$AA@ 2011b280     ai_aotc.obj
 0002:00000290       __real@44fa0000            2011b290     ai_aotc.obj
 0002:00000298       __real@409f400000000000    2011b298     ai_aotc.obj
 0002:000002a0       ??_C@_0BG@DBJDPADA@KilledOnPurposeByLove?$AA@ 2011b2a0     ai_aotc.obj
 0002:000002b8       ??_C@_04JNANOJIK@Died?$AA@ 2011b2b8     ai_aotc.obj
 0002:000002c0       __real@459c4000            2011b2c0     ai_aotc.obj
 0002:000002c4       __real@44480000            2011b2c4     ai_aotc.obj
 0002:000002c8       __real@4060000000000000    2011b2c8     ai_aotc.obj
 0002:000002d0       __real@42b40000            2011b2d0     ai_aotc.obj
 0002:000002d8       __real@40af400000000000    2011b2d8     ai_aotc.obj
 0002:000002e0       __real@497423f0            2011b2e0     ai_aotc.obj
 0002:000002e8       __real@4048000000000000    2011b2e8     ai_aotc.obj
 0002:000002f0       __real@42480000            2011b2f0     ai_aotc.obj
 0002:000002f4       ??_C@_0CP@FFBNGCID@I?8m?5attempting?5to?5regroup?5and?5fo@ 2011b2f4     ai_main.obj
 0002:00000324       ??_C@_0BM@ONBPMKCA@I?8m?5assisting?5my?5commanding?$AA@ 2011b324     ai_main.obj
 0002:00000340       ??_C@_0CB@LHPHOKPL@I?8m?5following?5my?5squad?5commander@ 2011b340     ai_main.obj
 0002:00000364       ??_C@_0DJ@KHDOOLND@I?8m?5preventing?5the?5enemy?5from?5co@ 2011b364     ai_main.obj
 0002:000003a0       ??_C@_0DB@KCABENBD@I?8m?5attemtping?5to?5complete?5the?5c@ 2011b3a0     ai_main.obj
 0002:000003d4       ??_C@_0BK@IJFHNMND@I?8ve?5got?5the?5enemy?8s?5flag?$AA@ 2011b3d4     ai_main.obj
 0002:000003f0       ??_C@_0BP@DPAAPNN@I?8m?5escorting?5our?5flag?5carrier?$AA@ 2011b3f0     ai_main.obj
 0002:00000410       ??_C@_0BK@KMGAFOMB@I?8m?5getting?5our?5flag?5back?$AA@ 2011b410     ai_main.obj
 0002:0000042c       ??_C@_0BH@EIOOKFAP@I?8m?5defending?5our?5base?$AA@ 2011b42c     ai_main.obj
 0002:00000444       ??_C@_0BP@LPOLBPPI@I?8m?5attacking?5the?5enemy?8s?5base?$AA@ 2011b444     ai_main.obj
 0002:00000464       ??_C@_0BB@PAHJPIGL@I?8m?5not?5occupied?$AA@ 2011b464     ai_main.obj
 0002:00000478       ??_C@_0BG@PBPENMCC@CTFSTATE_MAXCTFSTATES?$AA@ 2011b478     ai_main.obj
 0002:00000490       ??_C@_0BF@HMJPJPGP@CTFSTATE_GETFLAGHOME?$AA@ 2011b490     ai_main.obj
 0002:000004a8       ??_C@_0BG@IHHCANKB@CTFSTATE_GUARDCARRIER?$AA@ 2011b4a8     ai_main.obj
 0002:000004c0       ??_C@_0BD@CKFOAELE@CTFSTATE_RETRIEVAL?$AA@ 2011b4c0     ai_main.obj
 0002:000004d4       ??_C@_0BC@KBOEOLB@CTFSTATE_DEFENDER?$AA@ 2011b4d4     ai_main.obj
 0002:000004e8       ??_C@_0BC@DLLLCBFN@CTFSTATE_ATTACKER?$AA@ 2011b4e8     ai_main.obj
 0002:000004fc       ??_C@_0O@HEICDJLP@CTFSTATE_NONE?$AA@ 2011b4fc     ai_main.obj
 0002:0000050c       ??_C@_0O@DMECDMLJ@OrderAccepted?$AA@ 2011b50c     ai_main.obj
 0002:0000051c       __real@c3340000            2011b51c     ai_main.obj
 0002:00000520       __real@4076800000000000    2011b520     ai_main.obj
 0002:00000528       __real@43340000            2011b528     ai_main.obj
 0002:00000530       __real@3fdccccccccccccd    2011b530     ai_main.obj
 0002:00000538       __real@3ff0000000000000    2011b538     ai_main.obj
 0002:00000540       __real@3a83126f            2011b540     ai_main.obj
 0002:00000548       __real@3f50624dd2f1a9fc    2011b548     ai_main.obj
 0002:00000550       __real@3fe99999a0000000    2011b550     ai_main.obj
 0002:00000558       __real@40400000            2011b558     ai_main.obj
 0002:00000560       __real@3fe3333340000000    2011b560     ai_main.obj
 0002:00000568       __real@40000000            2011b568     ai_main.obj
 0002:00000570       __real@3fd99999a0000000    2011b570     ai_main.obj
 0002:00000578       __real@405fc00000000000    2011b578     ai_main.obj
 0002:00000580       __real@40f0000000000000    2011b580     ai_main.obj
 0002:00000588       __real@3f76800000000000    2011b588     ai_main.obj
 0002:00000590       __real@3fd3333333333333    2011b590     ai_main.obj
 0002:00000598       ??_C@_0BB@OJCKABLF@GeneralGreetings?$AA@ 2011b598     ai_main.obj
 0002:000005ac       __real@41900000            2011b5ac     ai_main.obj
 0002:000005b0       __real@41880000            2011b5b0     ai_main.obj
 0002:000005b4       __real@41800000            2011b5b4     ai_main.obj
 0002:000005b8       __real@41600000            2011b5b8     ai_main.obj
 0002:000005bc       __real@41500000            2011b5bc     ai_main.obj
 0002:000005c0       __real@41400000            2011b5c0     ai_main.obj
 0002:000005c4       __real@41300000            2011b5c4     ai_main.obj
 0002:000005c8       __real@41200000            2011b5c8     ai_main.obj
 0002:000005cc       ??_C@_05NOJGJHG@func_?$AA@ 2011b5cc     ai_main.obj
 0002:000005d4       __real@42200000            2011b5d4     ai_main.obj
 0002:000005d8       __real@4030000000000000    2011b5d8     ai_main.obj
 0002:000005e0       __real@c04e000000000000    2011b5e0     ai_main.obj
 0002:000005e8       __real@404e000000000000    2011b5e8     ai_main.obj
 0002:000005f0       __real@c1000000            2011b5f0     ai_main.obj
 0002:000005f8       __real@403f000000000000    2011b5f8     ai_main.obj
 0002:00000600       __real@41000000            2011b600     ai_main.obj
 0002:00000604       __real@c1b80000            2011b604     ai_main.obj
 0002:00000608       __real@4010000000000000    2011b608     ai_main.obj
 0002:00000610       __real@43af0000            2011b610     ai_main.obj
 0002:00000618       __real@3fd0000000000000    2011b618     ai_main.obj
 0002:00000620       __real@0000000000000000    2011b620     ai_main.obj
 0002:00000628       __real@3f000000            2011b628     ai_main.obj
 0002:0000062c       __real@40a00000            2011b62c     ai_main.obj
 0002:00000630       __real@c0a00000            2011b630     ai_main.obj
 0002:00000634       __real@4e6e6b28            2011b634     ai_main.obj
 0002:00000638       __real@c1c00000            2011b638     ai_main.obj
 0002:00000640       __real@404c000000000000    2011b640     ai_main.obj
 0002:00000648       __real@42960000            2011b648     ai_main.obj
 0002:00000650       __real@404b000000000000    2011b650     ai_main.obj
 0002:00000658       __real@3f333333            2011b658     ai_main.obj
 0002:0000065c       __real@3ee66666            2011b65c     ai_main.obj
 0002:00000660       __real@3eb33333            2011b660     ai_main.obj
 0002:00000668       __real@3f53a92a30553261    2011b668     ai_main.obj
 0002:00000670       __real@3feccccccccccccd    2011b670     ai_main.obj
 0002:00000678       __real@43c80000            2011b678     ai_main.obj
 0002:00000680       __real@3fc3333333333333    2011b680     ai_main.obj
 0002:00000688       __real@403e000000000000    2011b688     ai_main.obj
 0002:00000690       __real@401c000000000000    2011b690     ai_main.obj
 0002:00000698       __real@43b40000            2011b698     ai_main.obj
 0002:000006a0       __real@4052c00000000000    2011b6a0     ai_main.obj
 0002:000006a8       __real@406f400000000000    2011b6a8     ai_main.obj
 0002:000006b0       __real@43200000            2011b6b0     ai_main.obj
 0002:000006b4       __real@42700000            2011b6b4     ai_main.obj
 0002:000006b8       ??_C@_0O@MBHBAKKF@BelovedKilled?$AA@ 2011b6b8     ai_main.obj
 0002:000006c8       ??_C@_06FEDGEOBA@Hatred?$AA@ 2011b6c8     ai_main.obj
 0002:000006d0       ??_C@_0BH@BGHKMCMA@LovedOneKilledLovedOne?$AA@ 2011b6d0     ai_main.obj
 0002:000006e8       __real@c1b00000            2011b6e8     ai_main.obj
 0002:000006f0       __real@40a0000000000000    2011b6f0     ai_main.obj
 0002:000006f8       __real@c0400000            2011b6f8     ai_main.obj
 0002:000006fc       ??_C@_0BC@FHPIICJP@ResponseGreetings?$AA@ 2011b6fc     ai_main.obj
 0002:00000710       ??_C@_05FAPHKBON@freed?$AA@ 2011b710     ai_main.obj
 0002:00000718       __real@40e00000            2011b718     ai_main.obj
 0002:0000071c       __real@c0e00000            2011b71c     ai_main.obj
 0002:00000720       ??_C@_07DBJBBFPO@detpack?$AA@ 2011b720     ai_main.obj
 0002:00000728       ??_C@_0BE@IEBINCFE@bot_wp_editornumber?$AA@ 2011b728     ai_main.obj
 0002:0000073c       ??_C@_07BBLDEGCL@bot_fps?$AA@ 2011b73c     ai_main.obj
 0002:00000744       ??_C@_02PIBHCBOA@20?$AA@   2011b744     ai_main.obj
 0002:00000748       ??_C@_0BC@KNHEDFAF@bot_wp_visconnect?$AA@ 2011b748     ai_main.obj
 0002:0000075c       ??_C@_0BD@KJBMKFFA@bot_wp_distconnect?$AA@ 2011b75c     ai_main.obj
 0002:00000770       ??_C@_0BD@PKKPPOKJ@bot_wp_clearweight?$AA@ 2011b770     ai_main.obj
 0002:00000784       ??_C@_0M@IPMACEAI@bot_wp_edit?$AA@ 2011b784     ai_main.obj
 0002:00000790       ??_C@_0M@IHOHKFMK@bot_wp_info?$AA@ 2011b790     ai_main.obj
 0002:0000079c       ??_C@_08LFGPACAA@bot_camp?$AA@ 2011b79c     ai_main.obj
 0002:000007a8       ??_C@_0BA@KAAKNOND@bot_attachments?$AA@ 2011b7a8     ai_main.obj
 0002:000007b8       ??_C@_0M@CJGGFHPJ@bot_pvstype?$AA@ 2011b7b8     ai_main.obj
 0002:000007c4       ??_C@_0BM@FPHAOOCP@bot_honorableduelacceptance?$AA@ 2011b7c4     ai_main.obj
 0002:000007e0       ??_C@_0P@PBNJHIHP@bot_forgimmick?$AA@ 2011b7e0     ai_main.obj
 0002:000007f0       ??_C@_01GBGANLPD@0?$AA@    2011b7f0     ai_main.obj
 0002:000007f4       ??_C@_0BA@GMJHGJGG@bot_forcepowers?$AA@ 2011b7f4     ai_main.obj
 0002:00000804       ??_C@_01HIHLOKLC@1?$AA@    2011b804     ai_main.obj
 0002:00000808       __real@4044800000000000    2011b808     ai_main.obj
 0002:00000810       __real@c1900000            2011b810     ai_main.obj
 0002:00000814       ??_C@_0BA@GNMFKLDC@clientLevelShot?$AA@ 2011b814     ai_main.obj
 0002:00000824       ??_C@_06KBCJDMLG@scores?$AA@ 2011b824     ai_main.obj
 0002:0000082c       ??_C@_02EODNHJKB@cs?$AA@   2011b82c     ai_main.obj
 0002:00000830       ??_C@_03DGFNDEPM@cp?5?$AA@ 2011b830     ai_main.obj
 0002:00000834       ??_C@_0BI@KFBEFPDG@enter?5a?5saber?5duel?5with?$AA@ 2011b834     ai_tab.obj
 0002:0000084c       ??_C@_0BA@NNCHLKDF@play?5JediMaster?$AA@ 2011b84c     ai_tab.obj
 0002:0000085c       ??_C@_0BD@DGNOLHMA@compete?5objectives?$AA@ 2011b85c     ai_tab.obj
 0002:00000870       ??_C@_06JMLBDJHL@attack?$AA@ 2011b870     ai_tab.obj
 0002:00000878       ??_C@_0N@PDGGADHP@kneel?5before?$AA@ 2011b878     ai_tab.obj
 0002:00000888       ??_C@_04CGFJFPFD@none?$AA@ 2011b888     ai_tab.obj
 0002:00000890       __real@407f400000000000    2011b890     ai_tab.obj
 0002:00000898       __real@47c34f80            2011b898     ai_tab.obj
 0002:000008a0       ??_C@_0EI@HAEJOBOB@Crap?$CB?5?5The?5last?5entry?5scanner?5in@ 2011b8a0     ai_tab.obj
 0002:000008e8       ??_C@_0CK@MBEMAJCN@Bad?5openListpos?5given?5to?5AddClos@ 2011b8e8     ai_tab.obj
 0002:00000914       ??_C@_0DP@LOONFFBF@CloseList?5was?5full?5in?5AddCloseLi@ 2011b914     ai_tab.obj
 0002:00000958       ??_C@_0EL@NKJLOBGP@Empty?5Route?5slot?5couldn?8t?5be?5fou@ 2011b958     ai_tab.obj
 0002:000009a4       ??_C@_0BI@PLOOKAEL@?$CFs?5ordered?5?$CFs?5to?5?$CFs?5?$CFs?6?$AA@ 2011b9a4     ai_tab.obj
 0002:000009bc       ??_C@_0BF@OIMDGEGA@?$CFs?5ordered?5?$CFs?5to?5?$CFs?6?$AA@ 2011b9bc     ai_tab.obj
 0002:000009d4       ??_C@_0DB@FNKLIMNE@Bad?5tacticEntity?5sent?5to?5TAB_Bot@ 2011b9d4     ai_tab.obj
 0002:00000a08       __real@4080a00000000000    2011ba08     ai_tab.obj
 0002:00000a10       __real@4046800000000000    2011ba10     ai_tab.obj
 0002:00000a18       __real@4034000000000000    2011ba18     ai_tab.obj
 0002:00000a20       __real@4032000000000000    2011ba20     ai_tab.obj
 0002:00000a28       __real@bfc999999999999a    2011ba28     ai_tab.obj
 0002:00000a30       __real@3fc999999999999a    2011ba30     ai_tab.obj
 0002:00000a38       __real@bfe999999999999a    2011ba38     ai_tab.obj
 0002:00000a40       __real@3fe999999999999a    2011ba40     ai_tab.obj
 0002:00000a48       ??_C@_0CG@KONCMEOH@Bad?5Quad?5in?5TAB_AdjustMoveDirect@ 2011ba48     ai_tab.obj
 0002:00000a70       __real@bff0000000000000    2011ba70     ai_tab.obj
 0002:00000a78       ??_C@_0DA@EMFNDEDD@Error?3?5Bad?5movecommand?5in?5TAB_Mo@ 2011ba78     ai_tab.obj
 0002:00000aa8       __real@43fa0000            2011baa8     ai_tab.obj
 0002:00000ab0       __real@402e000000000000    2011bab0     ai_tab.obj
 0002:00000ab8       __real@4062c00000000000    2011bab8     ai_tab.obj
 0002:00000ac0       ??_C@_0P@NGDPBEAP@func_breakable?$AA@ 2011bac0     ai_tab.obj
 0002:00000ad0       ??_C@_0BA@DAFFFNDM@misc_siege_item?$AA@ 2011bad0     ai_tab.obj
 0002:00000ae0       ??_C@_0CE@FFIMJKPD@Bad?5Quad?5in?5TAB_MoveforAttackQua@ 2011bae0     ai_tab.obj
 0002:00000b08       __real@4049000000000000    2011bb08     ai_tab.obj
 0002:00000b10       ??_C@_0DH@EGFLCPAB@Couldn?8t?5find?5team?8s?5theme?5in?5Fi@ 2011bb10     ai_tab.obj
 0002:00000b48       ??_C@_0BD@GPLPFCON@voice_cmd?5req_tech?$AA@ 2011bb48     ai_tab.obj
 0002:00000b5c       ??_C@_0BD@EKIAHOKC@voice_cmd?5req_demo?$AA@ 2011bb5c     ai_tab.obj
 0002:00000b70       ??_C@_0BB@IKPDFLKJ@siegeclass?5?$CC?$CFs?$CC?6?$AA@ 2011bb70     ai_tab.obj
 0002:00000b84       ??_C@_0BF@BELDLOJO@misc_ammo_floor_unit?$AA@ 2011bb84     ai_tab.obj
 0002:00000b9c       __real@4b18967f            2011bb9c     ai_tab.obj
 0002:00000ba0       ??_C@_0FJ@NNAOEAF@Bad?5attacker?5state?5for?5misc_sieg@ 2011bba0     ai_tab.obj
 0002:00000c00       ??_C@_0FJ@DNKCCKF@Bad?5attacker?5state?5for?5misc_sieg@ 2011bc00     ai_tab.obj
 0002:00000c60       ??_C@_0EP@FBNIDKAH@Bad?5attacker?5state?5for?5misc_sieg@ 2011bc60     ai_tab.obj
 0002:00000cb0       ??_C@_0EO@OOABEPLL@Bad?5attacker?5state?5for?5func_brea@ 2011bcb0     ai_tab.obj
 0002:00000d00       ??_C@_0EL@MHPBDLIH@Bad?5attacker?5state?5for?5func_usab@ 2011bd00     ai_tab.obj
 0002:00000d50       ??_C@_0FE@CEDJBGGN@Bad?5attacker?5state?5for?5vehicle?5t@ 2011bd50     ai_tab.obj
 0002:00000da4       ??_C@_0N@OOLDLEBF@trigger_once?$AA@ 2011bda4     ai_tab.obj
 0002:00000db4       ??_C@_0M@LFCKCKDB@func_usable?$AA@ 2011bdb4     ai_tab.obj
 0002:00000dc0       ??_C@_0P@KJEJBLIB@target_counter?$AA@ 2011bdc0     ai_tab.obj
 0002:00000dd0       ??_C@_0N@JGBHMGAI@target_relay?$AA@ 2011bdd0     ai_tab.obj
 0002:00000de0       ??_C@_0BB@LKHFHPEP@trigger_multiple?$AA@ 2011bde0     ai_tab.obj
 0002:00000df4       ??_C@_03BCJIDNJL@NPC?$AA@  2011bdf4     ai_tab.obj
 0002:00000df8       ??_C@_0BF@JOOKCKMH@info_siege_objective?$AA@ 2011bdf8     ai_tab.obj
 0002:00000e10       ??_C@_0EM@HCBAKGLH@DetermineObjectiveType?$CI?$CJ?5Error?3?5@ 2011be10     ai_tab.obj
 0002:00000e5c       ??_C@_0BC@NLKCOFAB@team_CTF_blueflag?$AA@ 2011be5c     ai_tab.obj
 0002:00000e70       ??_C@_0BB@JNMMCIHG@team_CTF_redflag?$AA@ 2011be70     ai_tab.obj
 0002:00000e84       ??_C@_0DM@KLNOKDDC@CapObjectiveCarrier?$CI?$CJ?5Error?3?5Cou@ 2011be84     ai_tab.obj
 0002:00000ec0       __real@461c3c00            2011bec0     ai_tab.obj
 0002:00000ec4       __real@3fc00000            2011bec4     ai_tab.obj
 0002:00000ec8       ??_C@_0EN@GGDLIOIP@Couldn?8t?5find?5parent?5on?5CloseLis@ 2011bec8     ai_tab.obj
 0002:00000f18       ??_C@_0EB@HIEJLPFB@Bot?5waypoint?5?$CFi?5can?8t?5get?5to?5poi@ 2011bf18     ai_tab.obj
 0002:00000f60       ??_C@_0FA@PALFKHKC@couldn?8t?5find?5a?5siege?5class?5with@ 2011bf60     ai_tab.obj
 0002:00000fb0       __real@407c200000000000    2011bfb0     ai_tab.obj
 0002:00000fb8       ??_C@_09KJCKJKEG@func_door?$AA@ 2011bfb8     ai_tab.obj
 0002:00000fc8       __real@40d3880000000000    2011bfc8     ai_tab.obj
 0002:00000fd0       __real@3fe6666666666666    2011bfd0     ai_tab.obj
 0002:00000fd8       ??_C@_0BH@MEEOBFCK@Error?5in?5TAB_WPTouch?4?6?$AA@ 2011bfd8     ai_tab.obj
 0002:00000ff0       ??_C@_0EO@MCONMCK@TAB_WPTouch?5?$CFi?3?5No?5luck?5finding?5@ 2011bff0     ai_tab.obj
 0002:00001040       ??_C@_0FM@FBHLBGLI@TAB_WPTouch?5?$CFi?3?5Somehow?5we?8ve?5lo@ 2011c040     ai_tab.obj
 0002:0000109c       __real@c3670000            2011c09c     ai_tab.obj
 0002:000010a0       __real@44568000            2011c0a0     ai_tab.obj
 0002:000010a4       __real@c3b88000            2011c0a4     ai_tab.obj
 0002:000010a8       ??_C@_0BG@GGLKAOK@shieldgen_underattack?$AA@ 2011c0a8     ai_tab.obj
 0002:000010c0       ??_C@_0DO@KEMKDCJC@This?5is?5bad?0?5we?8ve?5lost?5out?5enti@ 2011c0c0     ai_tab.obj
 0002:00001100       __real@4099000000000000    2011c100     ai_tab.obj
 0002:00001108       ??_C@_0DA@IFBGHAII@Bad?1Unknown?5ObjectiveType?5in?5TAB@ 2011c108     ai_tab.obj
 0002:00001138       ??_C@_0DJ@MFBGBGFL@This?5is?5bad?0?5we?8ve?5lost?5out?5enti@ 2011c138     ai_tab.obj
 0002:00001174       __real@47800000            2011c174     ai_tab.obj
 0002:00001178       __real@4f800000            2011c178     ai_util.obj
 0002:0000117c       ??_C@_0M@DBLGOKHK@se_language?$AA@ 2011c17c     ai_util.obj
 0002:00001188       ??_C@_0DE@KEFKFFLA@?$FO1Error?3?5Personality?5chat?5sectio@ 2011c188     ai_util.obj
 0002:000011bc       ??_C@_0BC@KHIFHCIB@BEGIN_CHAT_GROUPS?$AA@ 2011c1bc     ai_util.obj
 0002:000011d0       ??_C@_0BF@OFIAGBKP@EmotionalAttachments?$AA@ 2011c1d0     ai_util.obj
 0002:000011e8       ??_C@_0M@EOMDDGDC@WP_DET_PACK?$AA@ 2011c1e8     ai_util.obj
 0002:000011f4       ??_C@_0N@OGLOKOOO@WP_TRIP_MINE?$AA@ 2011c1f4     ai_util.obj
 0002:00001204       ??_C@_0L@COCGCIBD@WP_THERMAL?$AA@ 2011c204     ai_util.obj
 0002:00001210       ??_C@_0BD@JBJHCOEB@WP_ROCKET_LAUNCHER?$AA@ 2011c210     ai_util.obj
 0002:00001224       ??_C@_0N@DNBPCFMC@WP_FLECHETTE?$AA@ 2011c224     ai_util.obj
 0002:00001234       ??_C@_08GDBGMIBE@WP_DEMP2?$AA@ 2011c234     ai_util.obj
 0002:00001240       ??_C@_0M@GCNBMEBC@WP_REPEATER?$AA@ 2011c240     ai_util.obj
 0002:0000124c       ??_C@_0N@ODCPPBBA@WP_BOWCASTER?$AA@ 2011c24c     ai_util.obj
 0002:0000125c       ??_C@_0N@KLINONG@WP_DISRUPTOR?$AA@ 2011c25c     ai_util.obj
 0002:0000126c       ??_C@_0L@DIBFNABM@WP_BLASTER?$AA@ 2011c26c     ai_util.obj
 0002:00001278       ??_C@_0BA@GBAOKNDN@WP_BRYAR_PISTOL?$AA@ 2011c278     ai_util.obj
 0002:00001288       ??_C@_08KPDGEGJN@WP_SABER?$AA@ 2011c288     ai_util.obj
 0002:00001294       ??_C@_0O@NNFLCPNL@WP_STUN_BATON?$AA@ 2011c294     ai_util.obj
 0002:000012a4       ??_C@_0BB@HJPIIEL@BotWeaponWeights?$AA@ 2011c2a4     ai_util.obj
 0002:000012b8       ??_C@_0BH@JHFKKJAL@5?91?9000000000000000000?$AA@ 2011c2b8     ai_util.obj
 0002:000012d0       ??_C@_03BPOAKJOG@?$CFs?$AA?$AA@ 2011c2d0     ai_util.obj
 0002:000012d4       ??_C@_09KOKAKGEB@forceinfo?$AA@ 2011c2d4     ai_util.obj
 0002:000012e0       ??_C@_0BA@KLKGFPMG@saberspecialist?$AA@ 2011c2e0     ai_util.obj
 0002:000012f0       ??_C@_06ECONKLNJ@camper?$AA@ 2011c2f0     ai_util.obj
 0002:000012f8       ??_C@_09IDCNFPPO@hatelevel?$AA@ 2011c2f8     ai_util.obj
 0002:00001304       ??_C@_0O@MCBEJNHC@chatfrequency?$AA@ 2011c304     ai_util.obj
 0002:00001314       ??_C@_0M@DKOBIOAP@chatability?$AA@ 2011c314     ai_util.obj
 0002:00001320       ??_C@_0L@NKDGLMCB@perfectaim?$AA@ 2011c320     ai_util.obj
 0002:0000132c       ??_C@_07OHDLLBLH@maxturn?$AA@ 2011c32c     ai_util.obj
 0002:00001334       __real@3d4ccccd            2011c334     ai_util.obj
 0002:00001338       ??_C@_0BB@GEIIBHDB@turnspeed_combat?$AA@ 2011c338     ai_util.obj
 0002:0000134c       __real@3c23d70a            2011c34c     ai_util.obj
 0002:00001350       ??_C@_09FLAOKKFN@turnspeed?$AA@ 2011c350     ai_util.obj
 0002:0000135c       ??_C@_06IPCFEPAJ@reflex?$AA@ 2011c35c     ai_util.obj
 0002:00001364       ??_C@_08FJNPIHOL@accuracy?$AA@ 2011c364     ai_util.obj
 0002:00001370       ??_C@_0DF@KFKANJBB@?$FO1Personality?5file?5contains?5no?5G@ 2011c370     ai_util.obj
 0002:000013a8       ??_C@_0P@LBKAJOLI@GeneralBotInfo?$AA@ 2011c3a8     ai_util.obj
 0002:000013b8       ??_C@_0CL@FOGCICFM@?$FO1Personality?5file?5exceeds?5maxim@ 2011c3b8     ai_util.obj
 0002:000013e4       ??_C@_0CK@EENCHHIP@?$FO1Error?3?5Specified?5personality?5n@ 2011c3e4     ai_util.obj
 0002:00001410       ??_C@_08HCCPDHOE@unknown?$AA?$AA@ 2011c410     ai_wpnav.obj
 0002:0000141c       ??_C@_05PCEEFJBB@none?$AA?$AA@ 2011c41c     ai_wpnav.obj
 0002:00001428       ??_C@_0EC@HMIFKIBP@print?5?$CC?5?$CFs?5Waypoint?5?$CFi?6Flags?5?9?5?$CF@ 2011c428     ai_wpnav.obj
 0002:0000146c       ??_C@_02JCPHEAGH@?$FO3?$AA@ 2011c46c     ai_wpnav.obj
 0002:00001470       ??_C@_0DI@MKIILHHG@?$FO1FATAL?5ERROR?3?5Could?5not?5allocat@ 2011c470     ai_wpnav.obj
 0002:000014a8       ??_C@_0DC@KPGPDBHG@?$FO1ERROR?3?5Could?5not?5allocated?5mem@ 2011c4a8     ai_wpnav.obj
 0002:000014dc       ??_C@_0CE@PGKIIABD@?$FO3Warning?3?5Waypoint?5limit?5hit?5?$CI?$CF@ 2011c4dc     ai_wpnav.obj
 0002:00001500       ??_C@_0CF@NKJDHHPL@?$FO3Waypoint?5number?5?$CFi?5does?5not?5ex@ 2011c500     ai_wpnav.obj
 0002:00001528       ??_C@_0DE@ODOAIDAB@?$FO3Waypoint?5index?5?$CFi?5should?5exist@ 2011c528     ai_wpnav.obj
 0002:0000155c       ??_C@_0CN@OAEDPBFH@?$FO3WPFlagsModify?3?5Waypoint?5?$CFi?5doe@ 2011c55c     ai_wpnav.obj
 0002:00001590       __real@4000000000000000    2011c590     ai_wpnav.obj
 0002:00001598       ??_C@_0DA@CFKANIBG@?$FO1Could?5not?5link?5?$CFi?5to?5?$CFi?0?5waypo@ 2011c598     ai_wpnav.obj
 0002:000015c8       ??_C@_0CB@IOBANBFK@?$FO3Finished?5connecting?5?$CFi?5to?5?$CFi?4?6@ 2011c5c8     ai_wpnav.obj
 0002:000015f0       ??_C@_0HP@CMIAOCMB@?$FO3Since?5points?5cannot?5be?5connect@ 2011c5f0     ai_wpnav.obj
 0002:00001670       ??_C@_0DL@OFFLGMHM@?$FO1Could?5not?5link?5?$CFi?5to?5?$CFi?0?5unrea@ 2011c670     ai_wpnav.obj
 0002:000016ac       ??_C@_0DC@CGOLCOPN@?$FO3Point?5?$CFi?5is?5not?5connected?5to?5?$CF@ 2011c6ac     ai_wpnav.obj
 0002:000016e0       ??_C@_07MDJDKHIJ@weapon_?$AA@ 2011c6e0     ai_wpnav.obj
 0002:000016e8       ??_C@_0P@BMGIHJKN@item_ysalimari?$AA@ 2011c6e8     ai_wpnav.obj
 0002:000016f8       ??_C@_0BA@HALIIJIE@item_force_boon?$AA@ 2011c6f8     ai_wpnav.obj
 0002:00001708       ??_C@_0BL@MINBJMDE@item_force_enlighten_light?$AA@ 2011c708     ai_wpnav.obj
 0002:00001724       ??_C@_0BK@JFKBFAGB@item_force_enlighten_dark?$AA@ 2011c724     ai_wpnav.obj
 0002:00001740       ??_C@_0BA@HKIJMOIG@item_sentry_gun?$AA@ 2011c740     ai_wpnav.obj
 0002:00001750       ??_C@_0M@NLNOFNHL@item_medpac?$AA@ 2011c750     ai_wpnav.obj
 0002:0000175c       ??_C@_0M@IIGPMPLO@item_shield?$AA@ 2011c75c     ai_wpnav.obj
 0002:00001768       ??_C@_0M@CJHMIAK@item_seeker?$AA@ 2011c768     ai_wpnav.obj
 0002:00001774       ??_C@_0CF@HBIFNAFM@?$FO1Route?5file?5exceeds?5maximum?5len@ 2011c774     ai_wpnav.obj
 0002:0000179c       ??_C@_0CD@PDNHMLAP@?$FO3Bot?5route?5data?5not?5found?5for?5?$CF@ 2011c79c     ai_wpnav.obj
 0002:000017c0       ??_C@_0BB@DFFEEJPN@botroutes?1?$CFs?4wnt?$AA@ 2011c7c0     ai_wpnav.obj
 0002:000017d8       ??_C@_0HN@LFMFAIDP@print?5?$CC?$CFsPath?5data?5has?5been?5save@ 2011c7d8     ai_wpnav.obj
 0002:00001858       ??_C@_0CA@KBICBDNJ@Saving?5data?5to?5waypoint?5file?4?4?6?$AA@ 2011c858     ai_wpnav.obj
 0002:00001878       ??_C@_07KBOPLHBN@?$CFs?$HN?5?$CFf?6?$AA@ 2011c878     ai_wpnav.obj
 0002:00001880       ??_C@_05OCEANLMH@?$CFs?$CFi?5?$AA@ 2011c880     ai_wpnav.obj
 0002:00001888       ??_C@_08DNAOJCND@?$CFs?$CFi?9?$CFi?5?$AA@ 2011c888     ai_wpnav.obj
 0002:00001894       ??_C@_0BH@CAPEAMJ@?$CFi?5?$CFi?5?$CFf?5?$CI?$CFf?5?$CFf?5?$CFf?$CJ?5?$HL?5?$AA@ 2011c894     ai_wpnav.obj
 0002:000018ac       ??_C@_0DB@MGNCDHIL@?$FO1ERROR?3?5Could?5not?5open?5file?5to?5@ 2011c8ac     ai_wpnav.obj
 0002:000018e0       ??_C@_0BC@MDDJNKOI@botroutes?1?$CFs?4wnt?$AA?$AA@ 2011c8e0     ai_wpnav.obj
 0002:000018f4       ??_C@_0BN@GMKAPJAJ@Error?3?5RMG?5with?5no?5terrain?$CB?6?$AA@ 2011c8f4     ai_wpnav.obj
 0002:00001918       __real@4087700000000000    2011c918     ai_wpnav.obj
 0002:00001920       __real@40a7700000000000    2011c920     ai_wpnav.obj
 0002:00001928       ??_C@_07JBFDOFDL@terrain?$AA@ 2011c928     ai_wpnav.obj
 0002:00001930       __real@44a00000            2011c930     ai_wpnav.obj
 0002:00001934       ??_C@_0BH@IGAFCIL@info_player_deathmatch?$AA@ 2011c934     ai_wpnav.obj
 0002:0000194c       ??_C@_0O@HPPLPOKI@bot_normgpath?$AA@ 2011c94c     ai_wpnav.obj
 0002:0000195c       ??_C@_0BC@IHPKIKNE@info_player_start?$AA@ 2011c95c     ai_wpnav.obj
 0002:00001970       ??_C@_0M@BDBNHBEF@bot_wp_save?$AA@ 2011c970     ai_wpnav.obj
 0002:0000197c       ??_C@_0BD@DNEIDMNA@bot_wp_killoneways?$AA@ 2011c97c     ai_wpnav.obj
 0002:00001990       ??_C@_0MB@NBNAGJLP@print?5?$CC?$CFsFlag?5string?5needed?5for?5@ 2011c990     ai_wpnav.obj
 0002:00001a58       ??_C@_0GL@LBNOGK@print?5?$CC?$CFsWaypoint?5number?5?$CIto?5mod@ 2011ca58     ai_wpnav.obj
 0002:00001ac4       ??_C@_0BD@IJIOBJAA@bot_wp_switchflags?$AA@ 2011cac4     ai_wpnav.obj
 0002:00001ad8       ??_C@_0BOD@IJKLDAG@print?5?$CC?$CFsFlag?5string?5needed?5for?5@ 2011cad8     ai_wpnav.obj
 0002:00001cbc       ??_C@_0BC@HGOOCCHA@bot_wp_addflagged?$AA@ 2011ccbc     ai_wpnav.obj
 0002:00001cd0       ??_C@_0BB@GABGAACE@bot_wp_spawntele?$AA@ 2011ccd0     ai_wpnav.obj
 0002:00001ce4       ??_C@_0DG@IPABPLAJ@print?5?$CC?$CFsYou?5didn?8t?5specify?5an?5i@ 2011cce4     ai_wpnav.obj
 0002:00001d1c       ??_C@_0M@DPOOBMKE@bot_wp_tele?$AA@ 2011cd1c     ai_wpnav.obj
 0002:00001d28       ??_C@_0L@FKLCICOM@bot_wp_rem?$AA@ 2011cd28     ai_wpnav.obj
 0002:00001d34       ??_C@_0L@MIBOKLOD@bot_wp_add?$AA@ 2011cd34     ai_wpnav.obj
 0002:00001d40       ??_C@_0EM@FNOHHAD@print?5?$CC?$CFsbot_wp_save?$CFs?5?9?5Saves?5a@ 2011cd40     ai_wpnav.obj
 0002:00001d90       ??_C@_0GM@EFDOLMJE@print?5?$CC?$CFsbot_wp_killoneways?$CFs?5?9?5@ 2011cd90     ai_wpnav.obj
 0002:00001e00       ??_C@_0FC@EGNDAOOH@print?5?$CC?$CFsbot_wp_tele?$CFs?5?9?5Telepor@ 2011ce00     ai_wpnav.obj
 0002:00001e58       ??_C@_0GM@BBDHBJBK@print?5?$CC?$CFsbot_wp_switchflags?$CFs?5?9?5@ 2011ce58     ai_wpnav.obj
 0002:00001ec8       ??_C@_0GM@OOGJLJPN@print?5?$CC?$CFsbot_wp_addflagged?$CFs?5?9?5S@ 2011cec8     ai_wpnav.obj
 0002:00001f38       ??_C@_0GN@DGAOAGCB@print?5?$CC?$CFsbot_wp_rem?$CFs?5?9?5Remove?5a@ 2011cf38     ai_wpnav.obj
 0002:00001fa8       ??_C@_0IG@GECIIEGJ@print?5?$CC?$CFsbot_wp_add?$CFs?5?9?5Add?5a?5wa@ 2011cfa8     ai_wpnav.obj
 0002:00002030       ??_C@_02PGJLIFGD@?$FO7?$AA@ 2011d030     ai_wpnav.obj
 0002:00002034       ??_C@_0P@IAKMCDJK@bot_wp_cmdlist?$AA@ 2011d034     ai_wpnav.obj
 0002:00002048       __real@3fd19999a0000000    2011d048     AnimalNPC.obj
 0002:00002050       __real@3fc99999a0000000    2011d050     AnimalNPC.obj
 0002:00002058       __real@3e8ccccd            2011d058     AnimalNPC.obj
 0002:0000205c       __real@bc23d70a            2011d05c     AnimalNPC.obj
 0002:00002060       __real@3fe6666660000000    2011d060     AnimalNPC.obj
 0002:00002068       ??_C@_0DK@KBCHCMPF@?$FO5Holocron?5number?5?$FO7?$CFi?$FO5?5added?5a@ 2011d068     aotctc_holocron.obj
 0002:000020a4       ??_C@_0DH@OJFJNLPI@?$FO3Warning?$CB?5?$FO5Hit?5maximum?5holocro@ 2011d0a4     aotctc_holocron.obj
 0002:000020dc       ??_C@_0CJ@HMCOFNOI@?$FO5You?5need?5at?5least?518?5holocron?5@ 2011d0dc     aotctc_holocron.obj
 0002:00002108       ??_C@_0CF@FDMNHIJH@?$FO5Total?5Holocron?5Positions?3?5?$FO7?$CFi@ 2011d108     aotctc_holocron.obj
 0002:00002130       ??_C@_0BC@EIAGFEK@?5?$FO3Completed?5OK?4?6?$AA@ 2011d130     aotctc_holocron.obj
 0002:00002144       ??_C@_0BO@KIHOPPHK@?$FO5Unable?5to?5allocate?5buffer?4?6?$AA@ 2011d144     aotctc_holocron.obj
 0002:00002164       ??_C@_0P@ICNNHLHM@?$FO5Empty?5file?$CB?6?$AA@ 2011d164     aotctc_holocron.obj
 0002:00002174       ??_C@_0BM@NGINCGAF@?$FO5No?5file?5exists?$CB?5?$CI?$FO3?$CFs?$FO5?$CJ?6?$AA@ 2011d174     aotctc_holocron.obj
 0002:00002190       ??_C@_0O@JFMIOEAP@?5?$FO3FAILED?$CB?$CB?$CB?6?$AA@ 2011d190     aotctc_holocron.obj
 0002:000021a0       ??_C@_0BK@PHKHHECP@holocron_positions?1?$CFs?4hpf?$AA@ 2011d1a0     aotctc_holocron.obj
 0002:000021bc       ??_C@_0CF@BPOAJDDJ@?$FO5Loading?5holocron?5position?5tabl@ 2011d1bc     aotctc_holocron.obj
 0002:000021e8       ??_C@_0ED@JNBKBMKF@?$FO7Holocron?5Position?5table?5saved?5@ 2011d1e8     aotctc_holocron.obj
 0002:0000222c       ??_C@_09KPNFNMCB@?$CFf?5?$CFf?5?$CFf?5?$AA@ 2011d22c     aotctc_holocron.obj
 0002:00002238       ??_C@_03JLNFKLOC@?$CFi?5?$AA@ 2011d238     aotctc_holocron.obj
 0002:0000223c       ??_C@_0CD@LKAJFDDB@?$FO7Saving?5holocron?5position?5table@ 2011d23c     aotctc_holocron.obj
 0002:00002260       ??_C@_0O@LCGNHCAP@misc_holocron?$AA@ 2011d260     aotctc_holocron.obj
 0002:00002270       ??_C@_07BNEEMBEL@?$CKr_hand?$AA@ 2011d270     bg_g2_utils.obj
 0002:00002278       ??_C@_08MCJJKOHJ@jaw_bone?$AA@ 2011d278     bg_g2_utils.obj
 0002:00002284       ??_C@_06EGLMLMG@?$CKmouth?$AA@ 2011d284     bg_g2_utils.obj
 0002:0000228c       ??_C@_04DJCABLIL@?$CFs?$CFc?$AA@ 2011d28c     bg_g2_utils.obj
 0002:00002294       ??_C@_0BG@LLNBCDKB@EV_PLAY_EFFECT_BOLTED?$AA@ 2011d294     bg_misc.obj
 0002:000022ac       ??_C@_08GBKLDCBE@EV_TAUNT?$AA@ 2011d2ac     bg_misc.obj
 0002:000022b8       ??_C@_0BF@EAHNFOOG@EV_STARTLOOPINGSOUND?$AA@ 2011d2b8     bg_misc.obj
 0002:000022d0       ??_C@_0BE@OHJHDFJH@EV_STOPLOOPINGSOUND?$AA@ 2011d2d0     bg_misc.obj
 0002:000022e4       ??_C@_0M@LDAKOPJP@EV_TESTLINE?$AA@ 2011d2e4     bg_misc.obj
 0002:000022f0       ??_C@_0O@PBPAKHP@EV_DEBUG_LINE?$AA@ 2011d2f0     bg_misc.obj
 0002:00002300       ??_C@_0O@CBLOOGHB@EV_SHIELD_HIT?$AA@ 2011d300     bg_misc.obj
 0002:00002310       ??_C@_0BF@LLJHJACN@EV_WEAPON_CHARGE_ALT?$AA@ 2011d310     bg_misc.obj
 0002:00002328       ??_C@_0BB@HAHOHAKJ@EV_WEAPON_CHARGE?$AA@ 2011d328     bg_misc.obj
 0002:0000233c       ??_C@_0BF@KFICFFCM@EV_SET_FORCE_DISABLE?$AA@ 2011d33c     bg_misc.obj
 0002:00002354       ??_C@_0BC@DDJADHAK@EV_SET_FREE_SABER?$AA@ 2011d354     bg_misc.obj
 0002:00002368       ??_C@_0BB@JIHOLMBD@EV_GIVE_NEW_RANK?$AA@ 2011d368     bg_misc.obj
 0002:0000237c       ??_C@_0BI@CEGPCIEH@EV_DESTROY_WEAPON_MODEL?$AA@ 2011d37c     bg_misc.obj
 0002:00002394       ??_C@_0BL@DNICLAEN@EV_DESTROY_GHOUL2_INSTANCE?$AA@ 2011d394     bg_misc.obj
 0002:000023b0       ??_C@_0BL@CGBBFEIE@EV_SIEGE_OBJECTIVECOMPLETE?$AA@ 2011d3b0     bg_misc.obj
 0002:000023cc       ??_C@_0BD@LACADBAO@EV_SIEGE_ROUNDOVER?$AA@ 2011d3cc     bg_misc.obj
 0002:000023e0       ??_C@_0M@GBGEMMKK@EV_BODYFADE?$AA@ 2011d3e0     bg_misc.obj
 0002:000023ec       ??_C@_0O@NEHCEMNJ@EV_CTFMESSAGE?$AA@ 2011d3ec     bg_misc.obj
 0002:000023fc       ??_C@_0N@GAJBP@EV_SCOREPLUM?$AA@ 2011d3fc     bg_misc.obj
 0002:0000240c       ??_C@_0O@JLGFLKBE@EV_GIB_PLAYER?$AA@ 2011d40c     bg_misc.obj
 0002:0000241c       ??_C@_0BB@KGMADNKO@EV_FORCE_DRAINED?$AA@ 2011d41c     bg_misc.obj
 0002:00002430       ??_C@_0BG@CHAMNADK@EV_POWERUP_BATTLESUIT?$AA@ 2011d430     bg_misc.obj
 0002:00002448       ??_C@_0BA@HLHGHIIE@EV_POWERUP_QUAD?$AA@ 2011d448     bg_misc.obj
 0002:00002458       ??_C@_0M@PPLCDPP@EV_OBITUARY?$AA@ 2011d458     bg_misc.obj
 0002:00002464       ??_C@_09KNGHBIAK@EV_DEATH3?$AA@ 2011d464     bg_misc.obj
 0002:00002470       ??_C@_09LEHMCJEL@EV_DEATH2?$AA@ 2011d470     bg_misc.obj
 0002:0000247c       ??_C@_09JPFBHKII@EV_DEATH1?$AA@ 2011d47c     bg_misc.obj
 0002:00002488       ??_C@_07EMHHKOOH@EV_PAIN?$AA@ 2011d488     bg_misc.obj
 0002:00002490       ??_C@_09ICDIPKFJ@EV_BULLET?$AA@ 2011d490     bg_misc.obj
 0002:0000249c       ??_C@_0BG@LPAHEABB@EV_MISSILE_MISS_METAL?$AA@ 2011d49c     bg_misc.obj
 0002:000024b4       ??_C@_0BA@CAHALNAE@EV_MISSILE_MISS?$AA@ 2011d4b4     bg_misc.obj
 0002:000024c4       ??_C@_0P@JFMFNBMO@EV_MISSILE_HIT?$AA@ 2011d4c4     bg_misc.obj
 0002:000024d4       ??_C@_0BD@PIOAMKHB@EV_CONC_ALT_IMPACT?$AA@ 2011d4d4     bg_misc.obj
 0002:000024e8       ??_C@_0BC@MLGOBNCG@EV_MISC_MODEL_EXP?$AA@ 2011d4e8     bg_misc.obj
 0002:000024fc       ??_C@_09KLJDDMJG@EV_DEBRIS?$AA@ 2011d4fc     bg_misc.obj
 0002:00002508       ??_C@_0BB@HHFJBAND@EV_GLASS_SHATTER?$AA@ 2011d508     bg_misc.obj
 0002:0000251c       ??_C@_0N@BEKJCCJE@EV_PLAY_ROFF?$AA@ 2011d51c     bg_misc.obj
 0002:0000252c       ??_C@_0BA@LLJGBFCE@EV_ENTITY_SOUND?$AA@ 2011d52c     bg_misc.obj
 0002:0000253c       ??_C@_0BF@DDOIKLHD@EV_GLOBAL_TEAM_SOUND?$AA@ 2011d53c     bg_misc.obj
 0002:00002554       ??_C@_0BA@JAMKLOPJ@EV_GLOBAL_SOUND?$AA@ 2011d554     bg_misc.obj
 0002:00002564       ??_C@_0BB@LJGGMAII@EV_GENERAL_SOUND?$AA@ 2011d564     bg_misc.obj
 0002:00002578       ??_C@_0BC@GMNGJAOD@EV_VOICECMD_SOUND?$AA@ 2011d578     bg_misc.obj
 0002:0000258c       ??_C@_0O@JHBKAOKG@EV_MUTE_SOUND?$AA@ 2011d58c     bg_misc.obj
 0002:0000259c       ??_C@_0BA@EGLCGAMO@EV_BMODEL_SOUND?$AA@ 2011d59c     bg_misc.obj
 0002:000025ac       ??_C@_0BF@BLAPJAMF@EV_PLAYDOORLOOPSOUND?$AA@ 2011d5ac     bg_misc.obj
 0002:000025c4       ??_C@_0BB@OGNONJKP@EV_PLAYDOORSOUND?$AA@ 2011d5c4     bg_misc.obj
 0002:000025d8       ??_C@_0BJ@CGDHKBCK@EV_PLAY_PORTAL_EFFECT_ID?$AA@ 2011d5d8     bg_misc.obj
 0002:000025f4       ??_C@_0BC@LCOMFDPL@EV_PLAY_EFFECT_ID?$AA@ 2011d5f4     bg_misc.obj
 0002:00002608       ??_C@_0P@PLIFONPM@EV_PLAY_EFFECT?$AA@ 2011d608     bg_misc.obj
 0002:00002618       ??_C@_0BB@JGOOAGDJ@EV_MISSILE_STICK?$AA@ 2011d618     bg_misc.obj
 0002:0000262c       ??_C@_0BC@ECIIAFLJ@EV_GRENADE_BOUNCE?$AA@ 2011d62c     bg_misc.obj
 0002:00002640       ??_C@_0BH@FNNILPIN@EV_PLAYER_TELEPORT_OUT?$AA@ 2011d640     bg_misc.obj
 0002:00002658       ??_C@_0BG@HBBJKNDP@EV_PLAYER_TELEPORT_IN?$AA@ 2011d658     bg_misc.obj
 0002:00002670       ??_C@_0M@ECGFPIMP@EV_ITEM_POP?$AA@ 2011d670     bg_misc.obj
 0002:0000267c       ??_C@_0BA@GJNCODNG@EV_ITEM_RESPAWN?$AA@ 2011d67c     bg_misc.obj
 0002:0000268c       ??_C@_0P@JFHCOBFC@EV_ITEMUSEFAIL?$AA@ 2011d68c     bg_misc.obj
 0002:0000269c       ??_C@_0O@HHGOLJPJ@EV_USE_ITEM15?$AA@ 2011d69c     bg_misc.obj
 0002:000026ac       ??_C@_0O@GOHFIILI@EV_USE_ITEM14?$AA@ 2011d6ac     bg_misc.obj
 0002:000026bc       ??_C@_0O@CBDEBOHP@EV_USE_ITEM13?$AA@ 2011d6bc     bg_misc.obj
 0002:000026cc       ??_C@_0O@DICPCPDO@EV_USE_ITEM12?$AA@ 2011d6cc     bg_misc.obj
 0002:000026dc       ??_C@_0O@BDACHMPN@EV_USE_ITEM11?$AA@ 2011d6dc     bg_misc.obj
 0002:000026ec       ??_C@_0O@KBJENLM@EV_USE_ITEM10?$AA@ 2011d6ec     bg_misc.obj
 0002:000026fc       ??_C@_0N@PHODCBCK@EV_USE_ITEM9?$AA@ 2011d6fc     bg_misc.obj
 0002:0000270c       ??_C@_0N@OOPIBAGL@EV_USE_ITEM8?$AA@ 2011d70c     bg_misc.obj
 0002:0000271c       ??_C@_0N@GJGAAMKE@EV_USE_ITEM7?$AA@ 2011d71c     bg_misc.obj
 0002:0000272c       ??_C@_0N@HAHLDNOF@EV_USE_ITEM6?$AA@ 2011d72c     bg_misc.obj
 0002:0000273c       ??_C@_0N@FLFGGOCG@EV_USE_ITEM5?$AA@ 2011d73c     bg_misc.obj
 0002:0000274c       ??_C@_0N@ECENFPGH@EV_USE_ITEM4?$AA@ 2011d74c     bg_misc.obj
 0002:0000275c       ??_C@_0N@NAMMJKA@EV_USE_ITEM3?$AA@ 2011d75c     bg_misc.obj
 0002:0000276c       ??_C@_0N@BEBHPIOB@EV_USE_ITEM2?$AA@ 2011d76c     bg_misc.obj
 0002:0000277c       ??_C@_0N@DPDKKLCC@EV_USE_ITEM1?$AA@ 2011d77c     bg_misc.obj
 0002:0000278c       ??_C@_0N@CGCBJKGD@EV_USE_ITEM0?$AA@ 2011d78c     bg_misc.obj
 0002:0000279c       ??_C@_06LBDBNJG@EV_USE?$AA@ 2011d79c     bg_misc.obj
 0002:000027a4       ??_C@_0O@GLOAIHAI@EV_LOCALTIMER?$AA@ 2011d7a4     bg_misc.obj
 0002:000027b4       ??_C@_0P@EIHBPBOL@EV_SCREENSHAKE?$AA@ 2011d7b4     bg_misc.obj
 0002:000027c4       ??_C@_0O@GMONIJJI@EV_TEAM_POWER?$AA@ 2011d7c4     bg_misc.obj
 0002:000027d4       ??_C@_0P@MDPKBHNH@EV_PREDEFSOUND?$AA@ 2011d7d4     bg_misc.obj
 0002:000027e4       ??_C@_0BH@GCPNKPAL@EV_DISRUPTOR_ZOOMSOUND?$AA@ 2011d7e4     bg_misc.obj
 0002:000027fc       ??_C@_0BB@JNGCFFFI@EV_DISRUPTOR_HIT?$AA@ 2011d7fc     bg_misc.obj
 0002:00002810       ??_C@_0BJ@POMLOPMI@EV_DISRUPTOR_SNIPER_MISS?$AA@ 2011d810     bg_misc.obj
 0002:0000282c       ??_C@_0BJ@MDNKGNJN@EV_DISRUPTOR_SNIPER_SHOT?$AA@ 2011d82c     bg_misc.obj
 0002:00002848       ??_C@_0BH@KDGLLAMO@EV_DISRUPTOR_MAIN_SHOT?$AA@ 2011d848     bg_misc.obj
 0002:00002860       ??_C@_0BF@MBILLJJH@EV_BECOME_JEDIMASTER?$AA@ 2011d860     bg_misc.obj
 0002:00002878       ??_C@_0BD@FFJMPGGA@EV_SABER_UNHOLSTER?$AA@ 2011d878     bg_misc.obj
 0002:0000288c       ??_C@_0BE@HNEOPGEL@EV_SABER_CLASHFLARE?$AA@ 2011d88c     bg_misc.obj
 0002:000028a0       ??_C@_0P@MNCBBKHB@EV_SABER_BLOCK?$AA@ 2011d8a0     bg_misc.obj
 0002:000028b0       ??_C@_0N@IKFBFHKB@EV_SABER_HIT?$AA@ 2011d8b0     bg_misc.obj
 0002:000028c0       ??_C@_0BA@FJAFFDLF@EV_SABER_ATTACK?$AA@ 2011d8c0     bg_misc.obj
 0002:000028d0       ??_C@_0M@LKPOHPHC@EV_ALT_FIRE?$AA@ 2011d8d0     bg_misc.obj
 0002:000028dc       ??_C@_0P@PFJPAFGH@EV_FIRE_WEAPON?$AA@ 2011d8dc     bg_misc.obj
 0002:000028ec       ??_C@_0BB@ENKPHJLP@EV_CHANGE_WEAPON?$AA@ 2011d8ec     bg_misc.obj
 0002:00002900       ??_C@_09NMIICG@EV_NOAMMO?$AA@ 2011d900     bg_misc.obj
 0002:0000290c       ??_C@_0M@MNGOLNFL@EV_VEH_FIRE?$AA@ 2011d90c     bg_misc.obj
 0002:00002918       ??_C@_0BG@KFILGAMN@EV_GLOBAL_ITEM_PICKUP?$AA@ 2011d918     bg_misc.obj
 0002:00002930       ??_C@_0P@BGIOEPCB@EV_ITEM_PICKUP?$AA@ 2011d930     bg_misc.obj
 0002:00002940       ??_C@_0P@NIPCJOBG@EV_WATER_CLEAR?$AA@ 2011d940     bg_misc.obj
 0002:00002950       ??_C@_0P@MIAIODEJ@EV_WATER_UNDER?$AA@ 2011d950     bg_misc.obj
 0002:00002960       ??_C@_0P@LHDMOIIG@EV_WATER_LEAVE?$AA@ 2011d960     bg_misc.obj
 0002:00002970       ??_C@_0P@GCDBKPMP@EV_WATER_TOUCH?$AA@ 2011d970     bg_misc.obj
 0002:00002980       ??_C@_07OCJFCKNN@EV_ROLL?$AA@ 2011d980     bg_misc.obj
 0002:00002988       ??_C@_07GKBEHGAP@EV_JUMP?$AA@ 2011d988     bg_misc.obj
 0002:00002990       ??_C@_0BA@NCAJLGNF@EV_PRIVATE_DUEL?$AA@ 2011d990     bg_misc.obj
 0002:000029a0       ??_C@_0P@MHGGNABN@EV_GLOBAL_DUEL?$AA@ 2011d9a0     bg_misc.obj
 0002:000029b0       ??_C@_0P@BMAPLDAL@EV_GHOUL2_MARK?$AA@ 2011d9b0     bg_misc.obj
 0002:000029c0       ??_C@_0M@BPNFGBOJ@EV_JUMP_PAD?$AA@ 2011d9c0     bg_misc.obj
 0002:000029cc       ??_C@_07JHCKGMKM@EV_FALL?$AA@ 2011d9cc     bg_misc.obj
 0002:000029d4       ??_C@_0L@HOOIOPKF@EV_STEP_16?$AA@ 2011d9d4     bg_misc.obj
 0002:000029e0       ??_C@_0L@BKIECKKB@EV_STEP_12?$AA@ 2011d9e0     bg_misc.obj
 0002:000029ec       ??_C@_09EHOLDGNN@EV_STEP_8?$AA@ 2011d9ec     bg_misc.obj
 0002:000029f8       ??_C@_09OLFOHJNB@EV_STEP_4?$AA@ 2011d9f8     bg_misc.obj
 0002:00002a04       ??_C@_07FFIIIPLH@EV_SWIM?$AA@ 2011da04     bg_misc.obj
 0002:00002a0c       ??_C@_0M@NPJBGELA@EV_FOOTWADE?$AA@ 2011da0c     bg_misc.obj
 0002:00002a18       ??_C@_0O@HLJHKIDH@EV_FOOTSPLASH?$AA@ 2011da18     bg_misc.obj
 0002:00002a28       ??_C@_0BC@DIJMAMMI@EV_FOOTSTEP_METAL?$AA@ 2011da28     bg_misc.obj
 0002:00002a3c       ??_C@_0M@HLKBOJPO@EV_FOOTSTEP?$AA@ 2011da3c     bg_misc.obj
 0002:00002a48       ??_C@_0O@JHBAELOC@EV_CLIENTJOIN?$AA@ 2011da48     bg_misc.obj
 0002:00002a58       ??_C@_07JFMDDPHJ@EV_NONE?$AA@ 2011da58     bg_misc.obj
 0002:00002a60       ??_C@_0BB@JKNLMJAB@icons?1iconh_borb?$AA@ 2011da60     bg_misc.obj
 0002:00002a74       ??_C@_0BO@CMJEFEFK@models?1powerups?1orb?1b_orb?4md3?$AA@ 2011da74     bg_misc.obj
 0002:00002a94       ??_C@_0O@NHDOFNIN@item_bluecube?$AA@ 2011da94     bg_misc.obj
 0002:00002aa4       ??_C@_0BB@PKDLFOID@icons?1iconh_rorb?$AA@ 2011daa4     bg_misc.obj
 0002:00002ab8       ??_C@_0BO@LDKNFLC@models?1powerups?1orb?1r_orb?4md3?$AA@ 2011dab8     bg_misc.obj
 0002:00002ad8       ??_C@_0N@IDOEINCB@item_redcube?$AA@ 2011dad8     bg_misc.obj
 0002:00002ae8       ??_C@_0BF@OGGGKBMJ@icons?1iconf_neutral1?$AA@ 2011dae8     bg_misc.obj
 0002:00002b00       ??_C@_0BI@FAJILPEC@models?1flags?1n_flag?4md3?$AA@ 2011db00     bg_misc.obj
 0002:00002b18       ??_C@_0BF@NFGOPKAE@team_CTF_neutralflag?$AA@ 2011db18     bg_misc.obj
 0002:00002b30       ??_C@_0BC@JDBDOHJA@gfx?1hud?1mpi_bflag?$AA@ 2011db30     bg_misc.obj
 0002:00002b44       ??_C@_0BN@NABGHIBA@models?1flags?1b_flag_ysal?4md3?$AA@ 2011db44     bg_misc.obj
 0002:00002b64       ??_C@_0BI@FKICCNIF@models?1flags?1b_flag?4md3?$AA@ 2011db64     bg_misc.obj
 0002:00002b7c       ??_C@_0BC@JAMFOFAL@gfx?1hud?1mpi_rflag?$AA@ 2011db7c     bg_misc.obj
 0002:00002b90       ??_C@_0BN@DGDBEGIO@models?1flags?1r_flag_ysal?4md3?$AA@ 2011db90     bg_misc.obj
 0002:00002bb0       ??_C@_0BI@PEHEOJEO@models?1flags?1r_flag?4md3?$AA@ 2011dbb0     bg_misc.obj
 0002:00002bc8       ??_C@_0BJ@DIDDNCPE@models?1items?1battery?4md3?$AA@ 2011dbc8     bg_misc.obj
 0002:00002be4       ??_C@_08LLJPIFOF@ammo_all?$AA@ 2011dbe4     bg_misc.obj
 0002:00002bf0       ??_C@_0BE@IIEBFJHN@gfx?1mp?1ammo_rockets?$AA@ 2011dbf0     bg_misc.obj
 0002:00002c04       ??_C@_0BJ@BCBNBFGD@models?1items?1rockets?4md3?$AA@ 2011dc04     bg_misc.obj
 0002:00002c20       ??_C@_0N@CLEPKBOE@ammo_rockets?$AA@ 2011dc20     bg_misc.obj
 0002:00002c30       ??_C@_0BL@IPLJCMOM@gfx?1mp?1ammo_metallic_bolts?$AA@ 2011dc30     bg_misc.obj
 0002:00002c4c       ??_C@_0CA@POKDMLNN@models?1items?1metallic_bolts?4md3?$AA@ 2011dc4c     bg_misc.obj
 0002:00002c6c       ??_C@_0BE@OMMGIMPN@ammo_metallic_bolts?$AA@ 2011dc6c     bg_misc.obj
 0002:00002c80       ??_C@_0BH@KBMOAFPH@gfx?1mp?1ammo_power_cell?$AA@ 2011dc80     bg_misc.obj
 0002:00002c98       ??_C@_0BM@GDMBBHDI@models?1items?1power_cell?4md3?$AA@ 2011dc98     bg_misc.obj
 0002:00002cb4       ??_C@_0P@GBMHNHF@ammo_powercell?$AA@ 2011dcb4     bg_misc.obj
 0002:00002cc4       ??_C@_0BH@MFDMPLPM@gfx?1hud?1i_icon_battery?$AA@ 2011dcc4     bg_misc.obj
 0002:00002cdc       ??_C@_0N@JHBODPOG@ammo_blaster?$AA@ 2011dcdc     bg_misc.obj
 0002:00002cec       ??_C@_0BN@BKBHFNLE@models?1items?1energy_cell?4md3?$AA@ 2011dcec     bg_misc.obj
 0002:00002d0c       ??_C@_0BO@EBHMDMMM@sound?1player?1pickupenergy?4wav?$AA@ 2011dd0c     bg_misc.obj
 0002:00002d2c       ??_C@_0L@GKDELMG@ammo_force?$AA@ 2011dd2c     bg_misc.obj
 0002:00002d38       ??_C@_0BA@EENDCNMH@weapon_turretwp?$AA@ 2011dd38     bg_misc.obj
 0002:00002d48       ??_C@_0BA@PHDHEKAE@weapon_emplaced?$AA@ 2011dd48     bg_misc.obj
 0002:00002d58       ??_C@_0BA@DBJEACCG@weapon_det_pack?$AA@ 2011dd58     bg_misc.obj
 0002:00002d68       ??_C@_0BB@KBIODFKP@weapon_trip_mine?$AA@ 2011dd68     bg_misc.obj
 0002:00002d7c       ??_C@_0P@OJLAIIJD@weapon_thermal?$AA@ 2011dd7c     bg_misc.obj
 0002:00002d8c       ??_C@_0BM@MOLHJNKH@?$EAMENUS_A_DETONATION_PACK_IS?$AA@ 2011dd8c     bg_misc.obj
 0002:00002da8       ??_C@_0BH@EBPPNJFB@gfx?1hud?1w_icon_detpack?$AA@ 2011dda8     bg_misc.obj
 0002:00002dc0       ??_C@_0CF@NONMEFGL@models?1weapons2?1detpack?1det_pack@ 2011ddc0     bg_misc.obj
 0002:00002de8       ??_C@_0CH@KPFPNMHO@models?1weapons2?1detpack?1det_pack@ 2011dde8     bg_misc.obj
 0002:00002e10       ??_C@_0CK@CDFEGPDE@models?1weapons2?1detpack?1det_pack@ 2011de10     bg_misc.obj
 0002:00002e3c       ??_C@_0CI@CBJMGLP@models?1weapons2?1detpack?1det_pack@ 2011de3c     bg_misc.obj
 0002:00002e64       ??_C@_0N@CIBIOIEN@ammo_detpack?$AA@ 2011de64     bg_misc.obj
 0002:00002e74       ??_C@_0BN@CMMDBNGF@?$EAMENUS_TRIP_MINES_CONSIST_OF?$AA@ 2011de74     bg_misc.obj
 0002:00002e94       ??_C@_0BI@HEJGEJJK@gfx?1hud?1w_icon_tripmine?$AA@ 2011de94     bg_misc.obj
 0002:00002eac       ??_C@_0CK@BPCANEAG@models?1weapons2?1laser_trap?1laser@ 2011deac     bg_misc.obj
 0002:00002ed8       ??_C@_0CM@PIAEKLLK@models?1weapons2?1laser_trap?1laser@ 2011ded8     bg_misc.obj
 0002:00002f04       ??_C@_0CN@JOEHJLGB@models?1weapons2?1laser_trap?1laser@ 2011df04     bg_misc.obj
 0002:00002f34       ??_C@_0O@GAPOPCOE@ammo_tripmine?$AA@ 2011df34     bg_misc.obj
 0002:00002f44       ??_C@_0BN@FMFLLCGL@?$EAMENUS_THE_THERMAL_DETONATOR?$AA@ 2011df44     bg_misc.obj
 0002:00002f64       ??_C@_0BH@OIMKPGPF@gfx?1hud?1w_icon_thermal?$AA@ 2011df64     bg_misc.obj
 0002:00002f7c       ??_C@_0CE@PJGNCPEG@models?1weapons2?1thermal?1thermal?4@ 2011df7c     bg_misc.obj
 0002:00002fa0       ??_C@_0CG@CCBCCJGG@models?1weapons2?1thermal?1thermal_@ 2011dfa0     bg_misc.obj
 0002:00002fc8       ??_C@_0CH@BBPIBDBM@models?1weapons2?1thermal?1thermal_@ 2011dfc8     bg_misc.obj
 0002:00002ff0       ??_C@_0N@IBCNMHOJ@ammo_thermal?$AA@ 2011dff0     bg_misc.obj
 0002:00003000       ??_C@_0CC@EJOKBHDJ@?$EAMENUS_THE_PLX_2M_IS_AN_EXTREMEL@ 2011e000     bg_misc.obj
 0002:00003024       ??_C@_0BI@DDNFEDEJ@gfx?1hud?1w_icon_merrsonn?$AA@ 2011e024     bg_misc.obj
 0002:0000303c       ??_C@_0CI@CPIMDKHH@models?1weapons2?1merr_sonn?1merr_s@ 2011e03c     bg_misc.obj
 0002:00003064       ??_C@_0CK@IJJCBMNO@models?1weapons2?1merr_sonn?1merr_s@ 2011e064     bg_misc.obj
 0002:00003090       ??_C@_0BH@CFPMIEJH@weapon_rocket_launcher?$AA@ 2011e090     bg_misc.obj
 0002:000030a8       ??_C@_0CE@HHDMNMLP@?$EAMENUS_WIDELY_USED_BY_THE_CORPOR@ 2011e0a8     bg_misc.obj
 0002:000030cc       ??_C@_0BJ@PJJJCKNF@gfx?1hud?1w_icon_flechette?$AA@ 2011e0cc     bg_misc.obj
 0002:000030e8       ??_C@_0CK@CNAHGKMH@models?1weapons2?1golan_arms?1golan@ 2011e0e8     bg_misc.obj
 0002:00003114       ??_C@_0CM@GDMOBBJ@models?1weapons2?1golan_arms?1golan@ 2011e114     bg_misc.obj
 0002:00003140       ??_C@_0BB@HNIDLLLF@weapon_flechette?$AA@ 2011e140     bg_misc.obj
 0002:00003154       ??_C@_0BM@BCDPDFEB@?$EAMENUS_COMMONLY_REFERRED_TO?$AA@ 2011e154     bg_misc.obj
 0002:00003170       ??_C@_0BF@BPEBOIFE@gfx?1hud?1w_icon_demp2?$AA@ 2011e170     bg_misc.obj
 0002:00003188       ??_C@_0CA@PKACJAPI@models?1weapons2?1demp2?1demp2?4md3?$AA@ 2011e188     bg_misc.obj
 0002:000031a8       ??_C@_0CC@DIKAHCC@models?1weapons2?1demp2?1demp2_w?4gl@ 2011e1a8     bg_misc.obj
 0002:000031cc       ??_C@_0N@MBLCNHPF@weapon_demp2?$AA@ 2011e1cc     bg_misc.obj
 0002:000031dc       ??_C@_0CD@FCKGGFFG@?$EAMENUS_THIS_DESTRUCTIVE_PROJECTI@ 2011e1dc     bg_misc.obj
 0002:00003200       ??_C@_0BI@LOPKELCD@gfx?1hud?1w_icon_repeater?$AA@ 2011e200     bg_misc.obj
 0002:00003218       ??_C@_0DC@FAHGABEB@models?1weapons2?1heavy_repeater?1h@ 2011e218     bg_misc.obj
 0002:0000324c       ??_C@_0DE@LBIFBLHF@models?1weapons2?1heavy_repeater?1h@ 2011e24c     bg_misc.obj
 0002:00003280       ??_C@_0BA@BKCKPFDA@weapon_repeater?$AA@ 2011e280     bg_misc.obj
 0002:00003290       ??_C@_0BM@MHHBLDA@?$EAMENUS_THIS_ARCHAIC_LOOKING?$AA@ 2011e290     bg_misc.obj
 0002:000032ac       ??_C@_0BJ@CHKJPOAH@gfx?1hud?1w_icon_bowcaster?$AA@ 2011e2ac     bg_misc.obj
 0002:000032c8       ??_C@_0CI@MANABGJH@models?1weapons2?1bowcaster?1bowcas@ 2011e2c8     bg_misc.obj
 0002:000032f0       ??_C@_0CK@OFDEGMIN@models?1weapons2?1bowcaster?1bowcas@ 2011e2f0     bg_misc.obj
 0002:0000331c       ??_C@_0BB@KDLDGPGH@weapon_bowcaster?$AA@ 2011e31c     bg_misc.obj
 0002:00003330       ??_C@_0BN@PDALGMFE@?$EAMENUS_THIS_NEFARIOUS_WEAPON?$AA@ 2011e330     bg_misc.obj
 0002:00003350       ??_C@_0BJ@MODONBMB@gfx?1hud?1w_icon_disruptor?$AA@ 2011e350     bg_misc.obj
 0002:0000336c       ??_C@_0CI@KNAINLEF@models?1weapons2?1disruptor?1disrup@ 2011e36c     bg_misc.obj
 0002:00003394       ??_C@_0CK@LDOPBIMF@models?1weapons2?1disruptor?1disrup@ 2011e394     bg_misc.obj
 0002:000033c0       ??_C@_0BB@EKCEEAKB@weapon_disruptor?$AA@ 2011e3c0     bg_misc.obj
 0002:000033d4       ??_C@_0BN@KLDCJACF@?$EAMENUS_THE_PRIMARY_WEAPON_OF?$AA@ 2011e3d4     bg_misc.obj
 0002:000033f4       ??_C@_0BH@POPJAOPK@gfx?1hud?1w_icon_blaster?$AA@ 2011e3f4     bg_misc.obj
 0002:0000340c       ??_C@_0CG@IJILPHPH@models?1weapons2?1blaster_r?1blaste@ 2011e40c     bg_misc.obj
 0002:00003434       ??_C@_0CI@FHMEJMJP@models?1weapons2?1blaster_r?1blaste@ 2011e434     bg_misc.obj
 0002:0000345c       ??_C@_0P@PPIDHAJM@weapon_blaster?$AA@ 2011e45c     bg_misc.obj
 0002:0000346c       ??_C@_0BK@JHPMONHL@?$EASP_INGAME_BLASTER_PISTOL?$AA@ 2011e46c     bg_misc.obj
 0002:00003488       ??_C@_0BF@HJCHFBMO@gfx?1hud?1w_icon_briar?$AA@ 2011e488     bg_misc.obj
 0002:000034a0       ??_C@_0CO@LMBDAEMJ@models?1weapons2?1briar_pistol?1bri@ 2011e4a0     bg_misc.obj
 0002:000034d0       ??_C@_0DA@DCLFBBNM@models?1weapons2?1briar_pistol?1bri@ 2011e4d0     bg_misc.obj
 0002:00003500       ??_C@_0BE@NCEGAEHJ@weapon_bryar_pistol?$AA@ 2011e500     bg_misc.obj
 0002:00003514       ??_C@_0BH@OEFKMKID@?$EAMENUS_CONC_RIFLE_DESC?$AA@ 2011e514     bg_misc.obj
 0002:0000352c       ??_C@_0BH@PEIIGOLA@gfx?1hud?1w_icon_c_rifle?$AA@ 2011e52c     bg_misc.obj
 0002:00003544       ??_C@_0CH@PIBGBJPN@models?1weapons2?1concussion?1c_rif@ 2011e544     bg_misc.obj
 0002:0000356c       ??_C@_0CJ@OKJJMKPH@models?1weapons2?1concussion?1c_rif@ 2011e56c     bg_misc.obj
 0002:00003598       ??_C@_0BI@JFLEEDJH@weapon_concussion_rifle?$AA@ 2011e598     bg_misc.obj
 0002:000035b0       ??_C@_0BL@EJPJHBLO@?$EAMENUS_BLASTER_PISTOL_DESC?$AA@ 2011e5b0     bg_misc.obj
 0002:000035cc       ??_C@_0BO@EGOADNOO@gfx?1hud?1w_icon_blaster_pistol?$AA@ 2011e5cc     bg_misc.obj
 0002:000035ec       ??_C@_0DC@EGNBDNKO@models?1weapons2?1blaster_pistol?1b@ 2011e5ec     bg_misc.obj
 0002:00003620       ??_C@_0DE@EHAMJOHG@models?1weapons2?1blaster_pistol?1b@ 2011e620     bg_misc.obj
 0002:00003654       ??_C@_0BG@JEHALHIL@weapon_blaster_pistol?$AA@ 2011e654     bg_misc.obj
 0002:0000366c       ??_C@_0BN@GPMHMMHO@?$EAMENUS_AN_ELEGANT_WEAPON_FOR?$AA@ 2011e66c     bg_misc.obj
 0002:0000368c       ??_C@_0BK@DENAAEJI@gfx?1hud?1w_icon_lightsaber?$AA@ 2011e68c     bg_misc.obj
 0002:000036a8       ??_C@_0CC@LELHOPDH@models?1weapons2?1saber?1saber_w?4md@ 2011e6a8     bg_misc.obj
 0002:000036cc       ??_C@_0CC@PBCBCODB@models?1weapons2?1saber?1saber_w?4gl@ 2011e6cc     bg_misc.obj
 0002:000036f0       ??_C@_0N@JIBGHNNO@weapon_saber?$AA@ 2011e6f0     bg_misc.obj
 0002:00003700       ??_C@_0BC@CEFBGLCB@?$EAMENUS_MELEE_DESC?$AA@ 2011e700     bg_misc.obj
 0002:00003714       ??_C@_0BF@GPOFHEPB@gfx?1hud?1w_icon_melee?$AA@ 2011e714     bg_misc.obj
 0002:0000372c       ??_C@_0N@LBBGELFA@weapon_melee?$AA@ 2011e72c     bg_misc.obj
 0002:0000373c       ??_C@_0BJ@JFPGMAAH@gfx?1hud?1w_icon_stunbaton?$AA@ 2011e73c     bg_misc.obj
 0002:00003758       ??_C@_0CF@INEBKGM@models?1weapons2?1stun_baton?1baton@ 2011e758     bg_misc.obj
 0002:00003780       ??_C@_0CH@BLMKNANE@models?1weapons2?1stun_baton?1baton@ 2011e780     bg_misc.obj
 0002:000037a8       ??_C@_0BC@EJEDEKOE@weapon_stun_baton?$AA@ 2011e7a8     bg_misc.obj
 0002:000037bc       ??_C@_0BE@OEFHDNBF@gfx?1hud?1mpi_ysamari?$AA@ 2011e7bc     bg_misc.obj
 0002:000037d0       ??_C@_0CE@KCIGBHIN@models?1map_objects?1mp?1ysalimari?4@ 2011e7d0     bg_misc.obj
 0002:000037f4       ??_C@_0BL@LEFKKCEP@sound?1player?1ysalimari?4wav?$AA@ 2011e7f4     bg_misc.obj
 0002:00003810       ??_C@_0BC@DEOLDKOL@gfx?1hud?1mpi_fboon?$AA@ 2011e810     bg_misc.obj
 0002:00003824       ??_C@_0CF@JPDLAKMB@models?1map_objects?1mp?1force_boon@ 2011e824     bg_misc.obj
 0002:0000384c       ??_C@_0BG@GFIPDGIH@sound?1player?1boon?4wav?$AA@ 2011e84c     bg_misc.obj
 0002:00003864       ??_C@_0BE@NFHAGLDO@gfx?1hud?1mpi_dklight?$AA@ 2011e864     bg_misc.obj
 0002:00003878       ??_C@_0CL@IJLGBCPL@models?1map_objects?1mp?1dk_enlight@ 2011e878     bg_misc.obj
 0002:000038a4       ??_C@_0BD@MPGMMGMB@gfx?1hud?1mpi_jlight?$AA@ 2011e8a4     bg_misc.obj
 0002:000038b8       ??_C@_0CN@DIMKCGKC@models?1map_objects?1mp?1jedi_enlig@ 2011e8b8     bg_misc.obj
 0002:000038e8       ??_C@_0BP@GFNNPIJO@sound?1player?1enlightenment?4wav?$AA@ 2011e8e8     bg_misc.obj
 0002:00003908       ??_C@_0BC@GHMKCCIP@?$EAMENUS_CLOAK_DESC?$AA@ 2011e908     bg_misc.obj
 0002:0000391c       ??_C@_0BF@JNCBPHCG@gfx?1hud?1i_icon_cloak?$AA@ 2011e91c     bg_misc.obj
 0002:00003934       ??_C@_0L@LGDPDIAF@item_cloak?$AA@ 2011e934     bg_misc.obj
 0002:00003940       ??_C@_0BB@BOLMLFOH@?$EAMENUS_EWEB_DESC?$AA@ 2011e940     bg_misc.obj
 0002:00003954       ??_C@_0BE@HACMCHO@gfx?1hud?1i_icon_eweb?$AA@ 2011e954     bg_misc.obj
 0002:00003968       ??_C@_0CH@FJBCGPDI@models?1map_objects?1hoth?1eweb_mod@ 2011e968     bg_misc.obj
 0002:00003990       ??_C@_0CA@PCDIFNM@sound?1interface?1shieldcon_empty?$AA@ 2011e990     bg_misc.obj
 0002:000039b0       ??_C@_0BD@FNDPGFNF@item_eweb_holdable?$AA@ 2011e9b0     bg_misc.obj
 0002:000039c4       ??_C@_0BI@NJGLIFAN@gfx?1hud?1i_icon_ammodisp?$AA@ 2011e9c4     bg_misc.obj
 0002:000039dc       ??_C@_0O@FFANILHN@item_ammodisp?$AA@ 2011e9dc     bg_misc.obj
 0002:000039ec       ??_C@_0BK@CIGOJBM@gfx?1hud?1i_icon_healthdisp?$AA@ 2011e9ec     bg_misc.obj
 0002:00003a08       ??_C@_0BA@MKABDBIL@item_healthdisp?$AA@ 2011ea08     bg_misc.obj
 0002:00003a18       ??_C@_0BE@JOMGFMAF@?$EAMENUS_JETPACK_DESC?$AA@ 2011ea18     bg_misc.obj
 0002:00003a30       ??_C@_0FD@EDGCAKBF@sound?1chars?1boba?1JETON?4wav?5sound@ 2011ea30     bg_misc.obj
 0002:00003a84       ??_C@_0BF@CHFBNMLA@effects?1boba?1jet?4efx?$AA@ 2011ea84     bg_misc.obj
 0002:00003a9c       ??_C@_0BH@PNGEEMFJ@gfx?1hud?1i_icon_jetpack?$AA@ 2011ea9c     bg_misc.obj
 0002:00003ab4       ??_C@_0N@EIBGMPAH@item_jetpack?$AA@ 2011eab4     bg_misc.obj
 0002:00003ac4       ??_C@_0BN@MFHKBDDJ@?$EAMENUS_THIS_DEADLY_WEAPON_IS?$AA@ 2011eac4     bg_misc.obj
 0002:00003ae4       ??_C@_0BJ@JKBMBJCM@gfx?1hud?1i_icon_sentrygun?$AA@ 2011eae4     bg_misc.obj
 0002:00003b00       ??_C@_0BH@PFALJFOC@models?1items?1psgun?4glm?$AA@ 2011eb00     bg_misc.obj
 0002:00003b18       ??_C@_0BL@PADDACKM@?$EASP_INGAME_LA_GOGGLES_DESC?$AA@ 2011eb18     bg_misc.obj
 0002:00003b34       ??_C@_0BE@PKBACEEE@gfx?1hud?1i_icon_zoom?$AA@ 2011eb34     bg_misc.obj
 0002:00003b48       ??_C@_0BM@HNHCIOH@models?1items?1binoculars?4md3?$AA@ 2011eb48     bg_misc.obj
 0002:00003b64       ??_C@_0BA@KBLOKIGM@item_binoculars?$AA@ 2011eb64     bg_misc.obj
 0002:00003b74       ??_C@_0BJ@DMMPEJNE@gfx?1hud?1i_icon_big_bacta?$AA@ 2011eb74     bg_misc.obj
 0002:00003b90       ??_C@_0BL@HEJMELJJ@models?1items?1big_bacta?4md3?$AA@ 2011eb90     bg_misc.obj
 0002:00003bac       ??_C@_0BA@JADGBDOO@item_medpac_big?$AA@ 2011ebac     bg_misc.obj
 0002:00003bbc       ??_C@_0BG@BFJBNBGL@?$EASP_INGAME_BACTA_DESC?$AA@ 2011ebbc     bg_misc.obj
 0002:00003bd4       ??_C@_0BF@EDJNGJL@gfx?1hud?1i_icon_bacta?$AA@ 2011ebd4     bg_misc.obj
 0002:00003bec       ??_C@_0CA@COCFAODK@models?1map_objects?1mp?1bacta?4md3?$AA@ 2011ebec     bg_misc.obj
 0002:00003c0c       ??_C@_0BO@HHEDFEHB@?$EAMENUS_THIS_STATIONARY_ENERGY?$AA@ 2011ec0c     bg_misc.obj
 0002:00003c30       ??_C@_0KM@PHBHELNF@sound?1weapons?1detpack?1stick?4wav?5@ 2011ec30     bg_misc.obj
 0002:00003cdc       ??_C@_0BK@OODCPGGP@gfx?1hud?1i_icon_shieldwall?$AA@ 2011ecdc     bg_misc.obj
 0002:00003cf8       ??_C@_0CB@EAKHAPIK@models?1map_objects?1mp?1shield?4md3@ 2011ecf8     bg_misc.obj
 0002:00003d1c       ??_C@_0BP@JJMOPAPI@?$EAMENUS_AN_ATTACK_DRONE_SIMILAR?$AA@ 2011ed1c     bg_misc.obj
 0002:00003d3c       ??_C@_0BG@KANLKHLH@gfx?1hud?1i_icon_seeker?$AA@ 2011ed3c     bg_misc.obj
 0002:00003d54       ??_C@_0BI@PEKMFNBP@models?1items?1remote?4md3?$AA@ 2011ed54     bg_misc.obj
 0002:00003d6c       ??_C@_0BJ@IBMECGJM@sound?1weapons?1w_pkup?4wav?$AA@ 2011ed6c     bg_misc.obj
 0002:00003d88       ??_C@_0BG@PFBKDHHG@gfx?1hud?1i_icon_medkit?$AA@ 2011ed88     bg_misc.obj
 0002:00003da0       ??_C@_0CB@PABPOCJH@models?1map_objects?1mp?1medpac?4md3@ 2011eda0     bg_misc.obj
 0002:00003dc4       ??_C@_0BO@NIGJKPEE@sound?1player?1pickuphealth?4wav?$AA@ 2011edc4     bg_misc.obj
 0002:00003de4       ??_C@_0BE@MEFMIHAD@item_medpak_instant?$AA@ 2011ede4     bg_misc.obj
 0002:00003df8       ??_C@_0BE@JKBNBKPH@gfx?1mp?1large_shield?$AA@ 2011edf8     bg_misc.obj
 0002:00003e0c       ??_C@_0BO@JPJCNECL@models?1map_objects?1mp?1psd?4md3?$AA@ 2011ee0c     bg_misc.obj
 0002:00003e2c       ??_C@_0BI@HGJKGJEB@item_shield_lrg_instant?$AA@ 2011ee2c     bg_misc.obj
 0002:00003e44       ??_C@_0BE@GPDHMLPP@gfx?1mp?1small_shield?$AA@ 2011ee44     bg_misc.obj
 0002:00003e58       ??_C@_0CB@FFNAAGJJ@models?1map_objects?1mp?1psd_sm?4md3@ 2011ee58     bg_misc.obj
 0002:00003e7c       ??_C@_0BO@CHCEMMJK@sound?1player?1pickupshield?4wav?$AA@ 2011ee7c     bg_misc.obj
 0002:00003e9c       ??_C@_0BH@DINJFPKN@item_shield_sm_instant?$AA@ 2011ee9c     bg_misc.obj
 0002:00003eb3       ??_C@_00CNPNBAHC@?$AA@     2011eeb3     bg_misc.obj
 0002:00003eb4       ??_C@_08FEEDNBKC@MASTERY7?$AA@ 2011eeb4     bg_misc.obj
 0002:00003ec0       ??_C@_08ENFIOAOD@MASTERY6?$AA@ 2011eec0     bg_misc.obj
 0002:00003ecc       ??_C@_08GGHFLDCA@MASTERY5?$AA@ 2011eecc     bg_misc.obj
 0002:00003ed8       ??_C@_08HPGOICGB@MASTERY4?$AA@ 2011eed8     bg_misc.obj
 0002:00003ee4       ??_C@_08DACPBEKG@MASTERY3?$AA@ 2011eee4     bg_misc.obj
 0002:00003ef0       ??_C@_08CJDECFOH@MASTERY2?$AA@ 2011eef0     bg_misc.obj
 0002:00003efc       ??_C@_08CBJHGCE@MASTERY1?$AA@ 2011eefc     bg_misc.obj
 0002:00003f08       ??_C@_08BLACEHGF@MASTERY0?$AA@ 2011ef08     bg_misc.obj
 0002:00003f14       ??_C@_0O@GKPNHIOC@?$CKtac_together?$AA@ 2011ef14     bg_misc.obj
 0002:00003f24       ??_C@_0L@MGMJIMAF@?$CKtac_split?$AA@ 2011ef24     bg_misc.obj
 0002:00003f30       ??_C@_09DINJJNAI@?$CKtac_hold?$AA@ 2011ef30     bg_misc.obj
 0002:00003f3c       ??_C@_0M@PABJGNLG@?$CKtac_follow?$AA@ 2011ef3c     bg_misc.obj
 0002:00003f48       ??_C@_0O@NFGMPNBH@?$CKtac_fallback?$AA@ 2011ef48     bg_misc.obj
 0002:00003f58       ??_C@_0L@EHELGHNE@?$CKtac_cover?$AA@ 2011ef58     bg_misc.obj
 0002:00003f64       ??_C@_0N@KDPAKEEJ@?$CKspot_troops?$AA@ 2011ef64     bg_misc.obj
 0002:00003f74       ??_C@_0N@JGIPLKJE@?$CKspot_sniper?$AA@ 2011ef74     bg_misc.obj
 0002:00003f84       ??_C@_0P@LLDGJFLE@?$CKspot_emplaced?$AA@ 2011ef84     bg_misc.obj
 0002:00003f94       ??_C@_0P@ILGDCGKG@?$CKspot_defenses?$AA@ 2011ef94     bg_misc.obj
 0002:00003fa4       ??_C@_09KPOPDKGM@?$CKspot_air?$AA@ 2011efa4     bg_misc.obj
 0002:00003fb0       ??_C@_09FCIMPFEJ@?$CKreq_tech?$AA@ 2011efb0     bg_misc.obj
 0002:00003fbc       ??_C@_08EHGAEMIC@?$CKreq_sup?$AA@ 2011efbc     bg_misc.obj
 0002:00003fc8       ??_C@_0L@PJEOEMHI@?$CKreq_medic?$AA@ 2011efc8     bg_misc.obj
 0002:00003fd4       ??_C@_08BDPMJJAM@?$CKreq_hvy?$AA@ 2011efd4     bg_misc.obj
 0002:00003fe0       ??_C@_09HHLDNJAG@?$CKreq_demo?$AA@ 2011efe0     bg_misc.obj
 0002:00003fec       ??_C@_0M@MJLNGIKA@?$CKreq_assist?$AA@ 2011efec     bg_misc.obj
 0002:00003ff8       ??_C@_0L@DOBCHHPE@?$CKreply_yes?$AA@ 2011eff8     bg_misc.obj
 0002:00004004       ??_C@_0M@PJKELJII@?$CKreply_stay?$AA@ 2011f004     bg_misc.obj
 0002:00004010       ??_C@_09FGIKFCBO@?$CKreply_no?$AA@ 2011f010     bg_misc.obj
 0002:0000401c       ??_C@_09FJFLGJJB@?$CKreply_go?$AA@ 2011f01c     bg_misc.obj
 0002:00004028       ??_C@_0O@LCDECPIN@?$CKreply_coming?$AA@ 2011f028     bg_misc.obj
 0002:00004038       ??_C@_0M@HJCGMPNN@?$CKdef_second?$AA@ 2011f038     bg_misc.obj
 0002:00004044       ??_C@_0N@LBIDFACI@?$CKdef_primary?$AA@ 2011f044     bg_misc.obj
 0002:00004054       ??_C@_0O@EGEINPEB@?$CKdef_position?$AA@ 2011f054     bg_misc.obj
 0002:00004064       ??_C@_09PJJIIOPG@?$CKdef_guns?$AA@ 2011f064     bg_misc.obj
 0002:00004070       ??_C@_0M@ECCLODLO@?$CKatt_second?$AA@ 2011f070     bg_misc.obj
 0002:0000407c       ??_C@_0N@GFADGNOG@?$CKatt_primary?$AA@ 2011f07c     bg_misc.obj
 0002:0000408c       ??_C@_0M@MHLPAMFK@?$CKatt_attack?$AA@ 2011f08c     bg_misc.obj
 0002:00004098       ??_C@_0N@ODJGPHCM@force_shield?$AA@ 2011f098     bg_misc.obj
 0002:000040a8       ??_C@_0BI@KPCBHBOL@head_light_blaster_cann?$AA@ 2011f0a8     bg_misc.obj
 0002:000040c0       ??_C@_0BI@FPANAMDK@head_concussion_charger?$AA@ 2011f0c0     bg_misc.obj
 0002:000040d8       ??_C@_04NEODDMOL@head?$AA@ 2011f0d8     bg_misc.obj
 0002:000040e0       ??_C@_06BCDCLMEB@helmet?$AA@ 2011f0e0     bg_misc.obj
 0002:000040e8       ??_C@_06INLMLPMC@r_hand?$AA@ 2011f0e8     bg_misc.obj
 0002:000040f0       ??_C@_06LKFNFIFB@l_hand?$AA@ 2011f0f0     bg_misc.obj
 0002:000040f8       ??_C@_05DAKMKCAJ@blah5?$AA@ 2011f0f8     bg_misc.obj
 0002:00004100       ??_C@_05CJLHJDEI@blah4?$AA@ 2011f100     bg_misc.obj
 0002:00004108       ??_C@_04DCKHGPHA@nose?$AA@ 2011f108     bg_misc.obj
 0002:00004110       ??_C@_06KAKLKKDN@l_gear?$AA@ 2011f110     bg_misc.obj
 0002:00004118       ??_C@_06JHEKENKO@r_gear?$AA@ 2011f118     bg_misc.obj
 0002:00004120       ??_C@_07DBBACNJN@l_wing2?$AA@ 2011f120     bg_misc.obj
 0002:00004128       ??_C@_07BKDNHOFO@l_wing1?$AA@ 2011f128     bg_misc.obj
 0002:00004130       ??_C@_07FICBAOIE@r_wing2?$AA@ 2011f130     bg_misc.obj
 0002:00004138       ??_C@_07HDAMFNEH@r_wing1?$AA@ 2011f138     bg_misc.obj
 0002:00004140       ??_C@_0N@FODOKFMD@torso_collar?$AA@ 2011f140     bg_misc.obj
 0002:00004150       ??_C@_0BB@FPOHHKLE@torso_galaktorso?$AA@ 2011f150     bg_misc.obj
 0002:00004164       ??_C@_0N@IFENOPML@torso_shield?$AA@ 2011f164     bg_misc.obj
 0002:00004174       ??_C@_05IPPEPANF@l_arm?$AA@ 2011f174     bg_misc.obj
 0002:0000417c       ??_C@_05LGCIJDDO@r_arm?$AA@ 2011f17c     bg_misc.obj
 0002:00004184       ??_C@_0M@HACAOHEH@torso_tube6?$AA@ 2011f184     bg_misc.obj
 0002:00004190       ??_C@_0M@FLANLEIE@torso_tube5?$AA@ 2011f190     bg_misc.obj
 0002:0000419c       ??_C@_0M@ECBGIFMF@torso_tube4?$AA@ 2011f19c     bg_misc.obj
 0002:000041a8       ??_C@_0M@NFHBDAC@torso_tube3?$AA@ 2011f1a8     bg_misc.obj
 0002:000041b4       ??_C@_0M@BEEMCCED@torso_tube2?$AA@ 2011f1b4     bg_misc.obj
 0002:000041c0       ??_C@_0M@DPGBHBIA@torso_tube1?$AA@ 2011f1c0     bg_misc.obj
 0002:000041cc       ??_C@_0BA@DHJPAGAH@torso_canister3?$AA@ 2011f1cc     bg_misc.obj
 0002:000041dc       ??_C@_0BA@COIEDHEG@torso_canister2?$AA@ 2011f1dc     bg_misc.obj
 0002:000041ec       ??_C@_0BA@FKJGEIF@torso_canister1?$AA@ 2011f1ec     bg_misc.obj
 0002:000041fc       ??_C@_09EPBMGDBP@l_arm_key?$AA@ 2011f1fc     bg_misc.obj
 0002:00004208       _bgToggleableSurfaceDebris 2011f208     bg_misc.obj
 0002:00004284       ??_C@_08OEKJENGB@?$CFf?5?$CFf?5?$CFf?$AA@ 2011f284     bg_misc.obj
 0002:00004290       ??_C@_02IKAHHCAI@?$CFi?$AA@ 2011f290     bg_misc.obj
 0002:00004294       ??_C@_03COHLNFKP@?$CFi?9?$AA@ 2011f294     bg_misc.obj
 0002:00004298       ??_C@_0BH@HKHNICAI@7?91?9032330000000001333?$AA@ 2011f298     bg_misc.obj
 0002:000042b0       __real@43870000            2011f2b0     bg_misc.obj
 0002:000042b8       __real@400921fb60000000    2011f2b8     bg_misc.obj
 0002:000042c0       __real@4066800000000000    2011f2c0     bg_misc.obj
 0002:000042c8       ??_C@_0BH@MFGKJDLM@HoldableItem?5not?5found?$AA@ 2011f2c8     bg_misc.obj
 0002:000042e0       ??_C@_0CB@DEACFJO@Couldn?8t?5find?5item?5for?5weapon?5?$CFi@ 2011f2e0     bg_misc.obj
 0002:00004304       ??_C@_0BP@LHPKGFBO@Couldn?8t?5find?5item?5for?5ammo?5?$CFi?$AA@ 2011f304     bg_misc.obj
 0002:00004324       ??_C@_0BM@NECGLAIF@BG_CanItemBeGrabbed?3?5IT_BAD?$AA@ 2011f324     bg_misc.obj
 0002:00004340       ??_C@_0CI@MFONMA@BG_CanItemBeGrabbed?3?5index?5out?5o@ 2011f340     bg_misc.obj
 0002:00004368       ??_C@_0DG@OJMFOFAA@BG_EvaluateTrajectory?3?5?$FLGAME?5SID@ 2011f368     bg_misc.obj
 0002:000043a0       __real@3f50624de0000000    2011f3a0     bg_misc.obj
 0002:000043a8       __real@4056800000000000    2011f3a8     bg_misc.obj
 0002:000043b0       ??_C@_0CP@MCFPOIMF@BG_EvaluateTrajectoryDelta?3?5unkn@ 2011f3b0     bg_misc.obj
 0002:000043e0       ??_C@_05LKGOKJFG@fpls3?$AA@ 2011f3e0     bg_misc.obj
 0002:000043e8       ??_C@_05KDHFJIBH@fpls2?$AA@ 2011f3e8     bg_misc.obj
 0002:000043f0       ??_C@_04BEPDCOC@fpls?$AA@  2011f3f0     bg_misc.obj
 0002:000043f8       ??_C@_04JIEPAMAO@kyle?$AA@ 2011f3f8     bg_misc.obj
 0002:00004400       ??_C@_04EEIGNHLG@menu?$AA@ 2011f400     bg_misc.obj
 0002:00004408       ??_C@_05GLFHLNLB@_blue?$AA@ 2011f408     bg_misc.obj
 0002:00004410       ??_C@_0CA@ODGGEHPP@models?1players?1?$CFs?1model_?$CFs?4skin?$AA@ 2011f410     bg_misc.obj
 0002:00004430       ??_C@_04NCFJPIH@_red?$AA@  2011f430     bg_misc.obj
 0002:00004438       ??_C@_07DLHCIBDH@default?$AA@ 2011f438     bg_misc.obj
 0002:00004440       ??_C@_04OBGPFBCN@blue?$AA@ 2011f440     bg_misc.obj
 0002:00004448       ??_C@_03FAAAOPJM@red?$AA@  2011f448     bg_misc.obj
 0002:0000444c       ??_C@_05HIOBFLDN@jedi_?$AA@ 2011f44c     bg_misc.obj
 0002:00004454       ??_C@_0CJ@BDGLLNGN@BG_Alloc?3?5buffer?5exceeded?5tail?5?$CI@ 2011f454     bg_misc.obj
 0002:00004480       ??_C@_0CN@JLGNNLBK@BG_TempAlloc?3?5buffer?5exceeded?5he@ 2011f480     bg_misc.obj
 0002:000044b0       ??_C@_0CO@IIHBNEDD@BG_TempFree?3?5tail?5greater?5than?5s@ 2011f4b0     bg_misc.obj
 0002:000044e0       __real@c042000000000000    2011f4e0     bg_misc.obj
 0002:000044e8       __real@4042000000000000    2011f4e8     bg_misc.obj
 0002:000044f0       __real@c049000000000000    2011f4f0     bg_misc.obj
 0002:000044f8       __real@4046000000000000    2011f4f8     bg_misc.obj
 0002:00004500       ??_C@_0M@JAIOEHIF@BOTH_CIN_50?$AA@ 2011f500     bg_panimate.obj
 0002:0000450c       ??_C@_0M@EAIOJGPL@BOTH_CIN_49?$AA@ 2011f50c     bg_panimate.obj
 0002:00004518       ??_C@_0M@FJJFKHLK@BOTH_CIN_48?$AA@ 2011f518     bg_panimate.obj
 0002:00004524       ??_C@_0M@NOANLLHF@BOTH_CIN_47?$AA@ 2011f524     bg_panimate.obj
 0002:00004530       ??_C@_0M@MHBGIKDE@BOTH_CIN_46?$AA@ 2011f530     bg_panimate.obj
 0002:0000453c       ??_C@_0M@OMDLNJPH@BOTH_CIN_45?$AA@ 2011f53c     bg_panimate.obj
 0002:00004548       ??_C@_0M@PFCAOILG@BOTH_CIN_44?$AA@ 2011f548     bg_panimate.obj
 0002:00004554       ??_C@_0M@LKGBHOHB@BOTH_CIN_43?$AA@ 2011f554     bg_panimate.obj
 0002:00004560       ??_C@_0M@KDHKEPDA@BOTH_CIN_42?$AA@ 2011f560     bg_panimate.obj
 0002:0000456c       ??_C@_0M@IIFHBMPD@BOTH_CIN_41?$AA@ 2011f56c     bg_panimate.obj
 0002:00004578       ??_C@_0M@JBEMCNLC@BOTH_CIN_40?$AA@ 2011f578     bg_panimate.obj
 0002:00004584       ??_C@_0M@EFMBIAHO@BOTH_CIN_39?$AA@ 2011f584     bg_panimate.obj
 0002:00004590       ??_C@_0M@FMNKLBDP@BOTH_CIN_38?$AA@ 2011f590     bg_panimate.obj
 0002:0000459c       ??_C@_0M@NLECKNPA@BOTH_CIN_37?$AA@ 2011f59c     bg_panimate.obj
 0002:000045a8       ??_C@_0M@MCFJJMLB@BOTH_CIN_36?$AA@ 2011f5a8     bg_panimate.obj
 0002:000045b4       ??_C@_0M@OJHEMPHC@BOTH_CIN_35?$AA@ 2011f5b4     bg_panimate.obj
 0002:000045c0       ??_C@_0M@PAGPPODD@BOTH_CIN_34?$AA@ 2011f5c0     bg_panimate.obj
 0002:000045cc       ??_C@_0M@LPCOGIPE@BOTH_CIN_33?$AA@ 2011f5cc     bg_panimate.obj
 0002:000045d8       ??_C@_0M@KGDFFJLF@BOTH_CIN_32?$AA@ 2011f5d8     bg_panimate.obj
 0002:000045e4       ??_C@_0M@INBIAKHG@BOTH_CIN_31?$AA@ 2011f5e4     bg_panimate.obj
 0002:000045f0       ??_C@_0M@JEADDLDH@BOTH_CIN_30?$AA@ 2011f5f0     bg_panimate.obj
 0002:000045fc       ??_C@_0M@EEADOKEJ@BOTH_CIN_29?$AA@ 2011f5fc     bg_panimate.obj
 0002:00004608       ??_C@_0M@FNBINLAI@BOTH_CIN_28?$AA@ 2011f608     bg_panimate.obj
 0002:00004614       ??_C@_0M@NKIAMHMH@BOTH_CIN_27?$AA@ 2011f614     bg_panimate.obj
 0002:00004620       ??_C@_0M@MDJLPGIG@BOTH_CIN_26?$AA@ 2011f620     bg_panimate.obj
 0002:0000462c       ??_C@_0M@OILGKFEF@BOTH_CIN_25?$AA@ 2011f62c     bg_panimate.obj
 0002:00004638       ??_C@_0M@PBKNJEAE@BOTH_CIN_24?$AA@ 2011f638     bg_panimate.obj
 0002:00004644       ??_C@_0M@LOOMACMD@BOTH_CIN_23?$AA@ 2011f644     bg_panimate.obj
 0002:00004650       ??_C@_0M@KHPHDDIC@BOTH_CIN_22?$AA@ 2011f650     bg_panimate.obj
 0002:0000465c       ??_C@_0M@IMNKGAEB@BOTH_CIN_21?$AA@ 2011f65c     bg_panimate.obj
 0002:00004668       ??_C@_0M@JFMBFBAA@BOTH_CIN_20?$AA@ 2011f668     bg_panimate.obj
 0002:00004674       ??_C@_0M@EGEFFEBA@BOTH_CIN_19?$AA@ 2011f674     bg_panimate.obj
 0002:00004680       ??_C@_0M@FPFOGFFB@BOTH_CIN_18?$AA@ 2011f680     bg_panimate.obj
 0002:0000468c       ??_C@_0M@NIMGHJJO@BOTH_CIN_17?$AA@ 2011f68c     bg_panimate.obj
 0002:00004698       ??_C@_0M@MBNNEINP@BOTH_CIN_16?$AA@ 2011f698     bg_panimate.obj
 0002:000046a4       ??_C@_0M@OKPABLBM@BOTH_CIN_15?$AA@ 2011f6a4     bg_panimate.obj
 0002:000046b0       ??_C@_0M@PDOLCKFN@BOTH_CIN_14?$AA@ 2011f6b0     bg_panimate.obj
 0002:000046bc       ??_C@_0M@LMKKLMJK@BOTH_CIN_13?$AA@ 2011f6bc     bg_panimate.obj
 0002:000046c8       ??_C@_0M@KFLBINNL@BOTH_CIN_12?$AA@ 2011f6c8     bg_panimate.obj
 0002:000046d4       ??_C@_0M@IOJMNOBI@BOTH_CIN_11?$AA@ 2011f6d4     bg_panimate.obj
 0002:000046e0       ??_C@_0M@JHIHOPFJ@BOTH_CIN_10?$AA@ 2011f6e0     bg_panimate.obj
 0002:000046ec       ??_C@_0L@LLDGGLKP@BOTH_CIN_9?$AA@ 2011f6ec     bg_panimate.obj
 0002:000046f8       ??_C@_0L@KCCNFKOO@BOTH_CIN_8?$AA@ 2011f6f8     bg_panimate.obj
 0002:00004704       ??_C@_0L@CFLFEGCB@BOTH_CIN_7?$AA@ 2011f704     bg_panimate.obj
 0002:00004710       ??_C@_0L@DMKOHHGA@BOTH_CIN_6?$AA@ 2011f710     bg_panimate.obj
 0002:0000471c       ??_C@_0L@BHIDCEKD@BOTH_CIN_5?$AA@ 2011f71c     bg_panimate.obj
 0002:00004728       ??_C@_0L@OJIBFOC@BOTH_CIN_4?$AA@ 2011f728     bg_panimate.obj
 0002:00004734       ??_C@_0L@EBNJIDCF@BOTH_CIN_3?$AA@ 2011f734     bg_panimate.obj
 0002:00004740       ??_C@_0L@FIMCLCGE@BOTH_CIN_2?$AA@ 2011f740     bg_panimate.obj
 0002:0000474c       ??_C@_0L@HDOPOBKH@BOTH_CIN_1?$AA@ 2011f74c     bg_panimate.obj
 0002:00004758       ??_C@_0N@MEGKIHKK@LEGS_TURN180?$AA@ 2011f758     bg_panimate.obj
 0002:00004768       ??_C@_0N@EEPPLEKL@LEGS_S7_RUP5?$AA@ 2011f768     bg_panimate.obj
 0002:00004778       ??_C@_0N@FNOEIFOK@LEGS_S7_RUP4?$AA@ 2011f778     bg_panimate.obj
 0002:00004788       ??_C@_0N@BCKFBDCN@LEGS_S7_RUP3?$AA@ 2011f788     bg_panimate.obj
 0002:00004798       ??_C@_0N@LLOCCGM@LEGS_S7_RUP2?$AA@ 2011f798     bg_panimate.obj
 0002:000047a8       ??_C@_0N@CAJDHBKP@LEGS_S7_RUP1?$AA@ 2011f7a8     bg_panimate.obj
 0002:000047b8       ??_C@_0N@JLCPJNEI@LEGS_S7_LUP5?$AA@ 2011f7b8     bg_panimate.obj
 0002:000047c8       ??_C@_0N@ICDEKMAJ@LEGS_S7_LUP4?$AA@ 2011f7c8     bg_panimate.obj
 0002:000047d8       ??_C@_0N@MNHFDKMO@LEGS_S7_LUP3?$AA@ 2011f7d8     bg_panimate.obj
 0002:000047e8       ??_C@_0N@NEGOALIP@LEGS_S7_LUP2?$AA@ 2011f7e8     bg_panimate.obj
 0002:000047f8       ??_C@_0N@PPEDFIEM@LEGS_S7_LUP1?$AA@ 2011f7f8     bg_panimate.obj
 0002:00004808       ??_C@_0N@OCIILPBP@LEGS_S6_RUP5?$AA@ 2011f808     bg_panimate.obj
 0002:00004818       ??_C@_0N@PLJDIOFO@LEGS_S6_RUP4?$AA@ 2011f818     bg_panimate.obj
 0002:00004828       ??_C@_0N@LENCBIJJ@LEGS_S6_RUP3?$AA@ 2011f828     bg_panimate.obj
 0002:00004838       ??_C@_0N@KNMJCJNI@LEGS_S6_RUP2?$AA@ 2011f838     bg_panimate.obj
 0002:00004848       ??_C@_0N@IGOEHKBL@LEGS_S6_RUP1?$AA@ 2011f848     bg_panimate.obj
 0002:00004858       ??_C@_0N@DNFIJGPM@LEGS_S6_LUP5?$AA@ 2011f858     bg_panimate.obj
 0002:00004868       ??_C@_0N@CEEDKHLN@LEGS_S6_LUP4?$AA@ 2011f868     bg_panimate.obj
 0002:00004878       ??_C@_0N@GLACDBHK@LEGS_S6_LUP3?$AA@ 2011f878     bg_panimate.obj
 0002:00004888       ??_C@_0N@HCBJAADL@LEGS_S6_LUP2?$AA@ 2011f888     bg_panimate.obj
 0002:00004898       ??_C@_0N@FJDEFDPI@LEGS_S6_LUP1?$AA@ 2011f898     bg_panimate.obj
 0002:000048a8       ??_C@_0N@NDGAKFIC@LEGS_S5_RUP5?$AA@ 2011f8a8     bg_panimate.obj
 0002:000048b8       ??_C@_0N@MKHLJEMD@LEGS_S5_RUP4?$AA@ 2011f8b8     bg_panimate.obj
 0002:000048c8       ??_C@_0N@IFDKACAE@LEGS_S5_RUP3?$AA@ 2011f8c8     bg_panimate.obj
 0002:000048d8       ??_C@_0N@JMCBDDEF@LEGS_S5_RUP2?$AA@ 2011f8d8     bg_panimate.obj
 0002:000048e8       ??_C@_0N@LHAMGAIG@LEGS_S5_RUP1?$AA@ 2011f8e8     bg_panimate.obj
 0002:000048f8       ??_C@_0N@MLAIMGB@LEGS_S5_LUP5?$AA@ 2011f8f8     bg_panimate.obj
 0002:00004908       ??_C@_0N@BFKLLNCA@LEGS_S5_LUP4?$AA@ 2011f908     bg_panimate.obj
 0002:00004918       ??_C@_0N@FKOKCLOH@LEGS_S5_LUP3?$AA@ 2011f918     bg_panimate.obj
 0002:00004928       ??_C@_0N@EDPBBKKG@LEGS_S5_LUP2?$AA@ 2011f928     bg_panimate.obj
 0002:00004938       ??_C@_0N@GINMEJGF@LEGS_S5_LUP1?$AA@ 2011f938     bg_panimate.obj
 0002:00004948       ??_C@_0N@HFBHKODG@LEGS_S4_RUP5?$AA@ 2011f948     bg_panimate.obj
 0002:00004958       ??_C@_0N@GMAMJPHH@LEGS_S4_RUP4?$AA@ 2011f958     bg_panimate.obj
 0002:00004968       ??_C@_0N@CDENAJLA@LEGS_S4_RUP3?$AA@ 2011f968     bg_panimate.obj
 0002:00004978       ??_C@_0N@DKFGDIPB@LEGS_S4_RUP2?$AA@ 2011f978     bg_panimate.obj
 0002:00004988       ??_C@_0N@BBHLGLDC@LEGS_S4_RUP1?$AA@ 2011f988     bg_panimate.obj
 0002:00004998       ??_C@_0N@KKMHIHNF@LEGS_S4_LUP5?$AA@ 2011f998     bg_panimate.obj
 0002:000049a8       ??_C@_0N@LDNMLGJE@LEGS_S4_LUP4?$AA@ 2011f9a8     bg_panimate.obj
 0002:000049b8       ??_C@_0N@PMJNCAFD@LEGS_S4_LUP3?$AA@ 2011f9b8     bg_panimate.obj
 0002:000049c8       ??_C@_0N@OFIGBBBC@LEGS_S4_LUP2?$AA@ 2011f9c8     bg_panimate.obj
 0002:000049d8       ??_C@_0N@MOKLECNB@LEGS_S4_LUP1?$AA@ 2011f9d8     bg_panimate.obj
 0002:000049e8       ??_C@_0N@LALAJALI@LEGS_S3_RUP5?$AA@ 2011f9e8     bg_panimate.obj
 0002:000049f8       ??_C@_0N@KJKLKBPJ@LEGS_S3_RUP4?$AA@ 2011f9f8     bg_panimate.obj
 0002:00004a08       ??_C@_0N@OGOKDHDO@LEGS_S3_RUP3?$AA@ 2011fa08     bg_panimate.obj
 0002:00004a18       ??_C@_0N@PPPBAGHP@LEGS_S3_RUP2?$AA@ 2011fa18     bg_panimate.obj
 0002:00004a28       ??_C@_0N@NENMFFLM@LEGS_S3_RUP1?$AA@ 2011fa28     bg_panimate.obj
 0002:00004a38       ??_C@_0N@GPGALJFL@LEGS_S3_LUP5?$AA@ 2011fa38     bg_panimate.obj
 0002:00004a48       ??_C@_0N@HGHLIIBK@LEGS_S3_LUP4?$AA@ 2011fa48     bg_panimate.obj
 0002:00004a58       ??_C@_0N@DJDKBONN@LEGS_S3_LUP3?$AA@ 2011fa58     bg_panimate.obj
 0002:00004a68       ??_C@_0N@CACBCPJM@LEGS_S3_LUP2?$AA@ 2011fa68     bg_panimate.obj
 0002:00004a78       ??_C@_0N@LAMHMFP@LEGS_S3_LUP1?$AA@ 2011fa78     bg_panimate.obj
 0002:00004a88       ??_C@_0N@CHCPIBJB@LEGS_S1_RUP5?$AA@ 2011fa88     bg_panimate.obj
 0002:00004a98       ??_C@_0N@DODELANA@LEGS_S1_RUP4?$AA@ 2011fa98     bg_panimate.obj
 0002:00004aa8       ??_C@_0N@HBHFCGBH@LEGS_S1_RUP3?$AA@ 2011faa8     bg_panimate.obj
 0002:00004ab8       ??_C@_0N@GIGOBHFG@LEGS_S1_RUP2?$AA@ 2011fab8     bg_panimate.obj
 0002:00004ac8       ??_C@_0N@EDEDEEJF@LEGS_S1_RUP1?$AA@ 2011fac8     bg_panimate.obj
 0002:00004ad8       ??_C@_0N@PIPPKIHC@LEGS_S1_LUP5?$AA@ 2011fad8     bg_panimate.obj
 0002:00004ae8       ??_C@_0N@OBOEJJDD@LEGS_S1_LUP4?$AA@ 2011fae8     bg_panimate.obj
 0002:00004af8       ??_C@_0N@KOKFAPPE@LEGS_S1_LUP3?$AA@ 2011faf8     bg_panimate.obj
 0002:00004b08       ??_C@_0N@LHLODOLF@LEGS_S1_LUP2?$AA@ 2011fb08     bg_panimate.obj
 0002:00004b18       ??_C@_0N@JMJDGNHG@LEGS_S1_LUP1?$AA@ 2011fb18     bg_panimate.obj
 0002:00004b28       ??_C@_0O@PPAOPDJO@LEGS_RIGHTUP5?$AA@ 2011fb28     bg_panimate.obj
 0002:00004b38       ??_C@_0O@OGBFMCNP@LEGS_RIGHTUP4?$AA@ 2011fb38     bg_panimate.obj
 0002:00004b48       ??_C@_0O@KJFEFEBI@LEGS_RIGHTUP3?$AA@ 2011fb48     bg_panimate.obj
 0002:00004b58       ??_C@_0O@LAEPGFFJ@LEGS_RIGHTUP2?$AA@ 2011fb58     bg_panimate.obj
 0002:00004b68       ??_C@_0O@JLGCDGJK@LEGS_RIGHTUP1?$AA@ 2011fb68     bg_panimate.obj
 0002:00004b78       ??_C@_0N@DBAKPANN@LEGS_LEFTUP5?$AA@ 2011fb78     bg_panimate.obj
 0002:00004b88       ??_C@_0N@CIBBMBJM@LEGS_LEFTUP4?$AA@ 2011fb88     bg_panimate.obj
 0002:00004b98       ??_C@_0N@GHFAFHFL@LEGS_LEFTUP3?$AA@ 2011fb98     bg_panimate.obj
 0002:00004ba8       ??_C@_0N@HOELGGBK@LEGS_LEFTUP2?$AA@ 2011fba8     bg_panimate.obj
 0002:00004bb8       ??_C@_0N@FFGGDFNJ@LEGS_LEFTUP1?$AA@ 2011fbb8     bg_panimate.obj
 0002:00004bc8       ??_C@_0O@FPAJGKKH@LEGS_CHOKING1?$AA@ 2011fbc8     bg_panimate.obj
 0002:00004bd8       ??_C@_0BB@HCNNJMLM@LEGS_LEAN_RIGHT1?$AA@ 2011fbd8     bg_panimate.obj
 0002:00004bec       ??_C@_0BA@MCADBFIF@LEGS_LEAN_LEFT1?$AA@ 2011fbec     bg_panimate.obj
 0002:00004bfc       ??_C@_0L@BFOCDDKC@LEGS_TURN2?$AA@ 2011fbfc     bg_panimate.obj
 0002:00004c08       ??_C@_0L@DOMPGAGB@LEGS_TURN1?$AA@ 2011fc08     bg_panimate.obj
 0002:00004c14       ??_C@_0BC@FAHFKMOC@TORSO_HANDSIGNAL5?$AA@ 2011fc14     bg_panimate.obj
 0002:00004c28       ??_C@_0BC@EJGOJNKD@TORSO_HANDSIGNAL4?$AA@ 2011fc28     bg_panimate.obj
 0002:00004c3c       ??_C@_0BC@GCPALGE@TORSO_HANDSIGNAL3?$AA@ 2011fc3c     bg_panimate.obj
 0002:00004c50       ??_C@_0BC@BPDEDKCF@TORSO_HANDSIGNAL2?$AA@ 2011fc50     bg_panimate.obj
 0002:00004c64       ??_C@_0BC@DEBJGJOG@TORSO_HANDSIGNAL1?$AA@ 2011fc64     bg_panimate.obj
 0002:00004c78       ??_C@_0P@EDGDJEAA@TORSO_CHOKING1?$AA@ 2011fc78     bg_panimate.obj
 0002:00004c88       ??_C@_0BF@CAMHOBIG@TORSO_SURRENDER_STOP?$AA@ 2011fc88     bg_panimate.obj
 0002:00004ca0       ??_C@_0BG@DJHHNKPJ@TORSO_SURRENDER_START?$AA@ 2011fca0     bg_panimate.obj
 0002:00004cb8       ??_C@_0BD@IPNKJOGP@TORSO_WEAPONIDLE10?$AA@ 2011fcb8     bg_panimate.obj
 0002:00004ccc       ??_C@_0BC@OEKOFEDF@TORSO_WEAPONIDLE4?$AA@ 2011fccc     bg_panimate.obj
 0002:00004ce0       ??_C@_0BC@KLOPMCPC@TORSO_WEAPONIDLE3?$AA@ 2011fce0     bg_panimate.obj
 0002:00004cf4       ??_C@_0BC@LCPEPDLD@TORSO_WEAPONIDLE2?$AA@ 2011fcf4     bg_panimate.obj
 0002:00004d08       ??_C@_0BE@PLMMDJNI@TORSO_WEAPONREADY10?$AA@ 2011fd08     bg_panimate.obj
 0002:00004d1c       ??_C@_0BD@EDNLHJLG@TORSO_WEAPONREADY4?$AA@ 2011fd1c     bg_panimate.obj
 0002:00004d30       ??_C@_0BD@MJKOPHB@TORSO_WEAPONREADY3?$AA@ 2011fd30     bg_panimate.obj
 0002:00004d44       ??_C@_0BD@BFIBNODA@TORSO_WEAPONREADY2?$AA@ 2011fd44     bg_panimate.obj
 0002:00004d58       ??_C@_0BD@DOKMINPD@TORSO_WEAPONREADY1?$AA@ 2011fd58     bg_panimate.obj
 0002:00004d6c       ??_C@_0BB@JNFLGAHH@TORSO_RAISEWEAP4?$AA@ 2011fd6c     bg_panimate.obj
 0002:00004d80       ??_C@_0BB@OACMJEDC@TORSO_RAISEWEAP1?$AA@ 2011fd80     bg_panimate.obj
 0002:00004d94       ??_C@_0BA@CHPACHPA@TORSO_DROPWEAP4?$AA@ 2011fd94     bg_panimate.obj
 0002:00004da4       ??_C@_0BA@FKIHNDLF@TORSO_DROPWEAP1?$AA@ 2011fda4     bg_panimate.obj
 0002:00004db4       ??_C@_09LOFMHEDG@BOTH_SIT7?$AA@ 2011fdb4     bg_panimate.obj
 0002:00004dc0       ??_C@_09KHEHEFHH@BOTH_SIT6?$AA@ 2011fdc0     bg_panimate.obj
 0002:00004dcc       ??_C@_0BA@KMDIIEBA@BOTH_SIT5_TALK3?$AA@ 2011fdcc     bg_panimate.obj
 0002:00004ddc       ??_C@_0BA@LFCDLFFB@BOTH_SIT5_TALK2?$AA@ 2011fddc     bg_panimate.obj
 0002:00004dec       ??_C@_0BA@JOAOOGJC@BOTH_SIT5_TALK1?$AA@ 2011fdec     bg_panimate.obj
 0002:00004dfc       ??_C@_09IMGKBGLE@BOTH_SIT5?$AA@ 2011fdfc     bg_panimate.obj
 0002:00004e08       ??_C@_09JFHBCHPF@BOTH_SIT4?$AA@ 2011fe08     bg_panimate.obj
 0002:00004e14       ??_C@_0BC@HMBKLJMI@BOTH_STAND1_TALK3?$AA@ 2011fe14     bg_panimate.obj
 0002:00004e28       ??_C@_0BC@GFABIIIJ@BOTH_STAND1_TALK2?$AA@ 2011fe28     bg_panimate.obj
 0002:00004e3c       ??_C@_0BC@EOCMNLEK@BOTH_STAND1_TALK1?$AA@ 2011fe3c     bg_panimate.obj
 0002:00004e50       ??_C@_0BF@EILOIEKG@BOTH_STAND10TOSTAND1?$AA@ 2011fe50     bg_panimate.obj
 0002:00004e68       ??_C@_0BD@BPMBLEGP@BOTH_STAND10_TALK2?$AA@ 2011fe68     bg_panimate.obj
 0002:00004e7c       ??_C@_0BD@DEOMOHKM@BOTH_STAND10_TALK1?$AA@ 2011fe7c     bg_panimate.obj
 0002:00004e90       ??_C@_0N@EGCBKCBH@BOTH_STAND10?$AA@ 2011fe90     bg_panimate.obj
 0002:00004ea0       ??_C@_0BD@KFKLMKIP@BOTH_SONICPAIN_END?$AA@ 2011fea0     bg_panimate.obj
 0002:00004eb4       ??_C@_0BE@KHIIENBG@BOTH_SONICPAIN_HOLD?$AA@ 2011feb4     bg_panimate.obj
 0002:00004ec8       ??_C@_0BF@LOEEPGJI@BOTH_SONICPAIN_START?$AA@ 2011fec8     bg_panimate.obj
 0002:00004ee0       ??_C@_0BB@JEOPOJAL@BOTH_COWER1_STOP?$AA@ 2011fee0     bg_panimate.obj
 0002:00004ef4       ??_C@_0M@EAAAAKHE@BOTH_COWER1?$AA@ 2011fef4     bg_panimate.obj
 0002:00004f00       ??_C@_0BC@KKMKANGM@BOTH_COWER1_START?$AA@ 2011ff00     bg_panimate.obj
 0002:00004f14       ??_C@_0BC@KDENGKBK@BOTH_TUSKENTAUNT1?$AA@ 2011ff14     bg_panimate.obj
 0002:00004f28       ??_C@_0BC@BIOHNIGA@BOTH_TUSKENLUNGE1?$AA@ 2011ff28     bg_panimate.obj
 0002:00004f3c       ??_C@_0BD@NFLDJLNC@BOTH_TUSKENATTACK3?$AA@ 2011ff3c     bg_panimate.obj
 0002:00004f50       ??_C@_0BD@MMKIKKJD@BOTH_TUSKENATTACK2?$AA@ 2011ff50     bg_panimate.obj
 0002:00004f64       ??_C@_0BD@OHIFPJFA@BOTH_TUSKENATTACK1?$AA@ 2011ff64     bg_panimate.obj
 0002:00004f78       ??_C@_0BE@OBEECCKH@BOTH_KNEEL_TO_STAND?$AA@ 2011ff78     bg_panimate.obj
 0002:00004f8c       ??_C@_0BE@FLPJEFCO@BOTH_STAND_TO_KNEEL?$AA@ 2011ff8c     bg_panimate.obj
 0002:00004fa0       ??_C@_09FOHPNOGF@BOTH_WIND?$AA@ 2011ffa0     bg_panimate.obj
 0002:00004fac       ??_C@_0BI@GLAHPFBH@BOTH_FORCE_PROTECT_FAST?$AA@ 2011ffac     bg_panimate.obj
 0002:00004fc4       ??_C@_0BD@FFPOEFNG@BOTH_FORCE_PROTECT?$AA@ 2011ffc4     bg_panimate.obj
 0002:00004fd8       ??_C@_0BG@CBNCOJEH@BOTH_FORCE_ABSORB_END?$AA@ 2011ffd8     bg_panimate.obj
 0002:00004ff0       ??_C@_0BI@BPAAFONF@BOTH_FORCE_ABSORB_START?$AA@ 2011fff0     bg_panimate.obj
 0002:00005008       ??_C@_0BC@HHGANHBC@BOTH_FORCE_ABSORB?$AA@ 20120008     bg_panimate.obj
 0002:0000501c       ??_C@_0BJ@GKPDEPNJ@BOTH_FORCE_DRAIN_GRABBED?$AA@ 2012001c     bg_panimate.obj
 0002:00005038       ??_C@_0BK@POJHMFNL@BOTH_FORCE_DRAIN_GRAB_END?$AA@ 20120038     bg_panimate.obj
 0002:00005054       ??_C@_0BL@MLNFOEPE@BOTH_FORCE_DRAIN_GRAB_HOLD?$AA@ 20120054     bg_panimate.obj
 0002:00005070       ??_C@_0BM@PACMCIGF@BOTH_FORCE_DRAIN_GRAB_START?$AA@ 20120070     bg_panimate.obj
 0002:0000508c       ??_C@_0BJ@OBGKFMHF@BOTH_FORCE_DRAIN_RELEASE?$AA@ 2012008c     bg_panimate.obj
 0002:000050a8       ??_C@_0BG@JCLNDPPK@BOTH_FORCE_DRAIN_HOLD?$AA@ 201200a8     bg_panimate.obj
 0002:000050c0       ??_C@_0BH@BHMNGNLJ@BOTH_FORCE_DRAIN_START?$AA@ 201200c0     bg_panimate.obj
 0002:000050d8       ??_C@_0BB@NHPCBMHH@BOTH_FORCE_DRAIN?$AA@ 201200d8     bg_panimate.obj
 0002:000050ec       ??_C@_0CE@NFLNPDNI@BOTH_FORCE_2HANDEDLIGHTNING_RELE@ 201200ec     bg_panimate.obj
 0002:00005110       ??_C@_0CB@MNKHBDGA@BOTH_FORCE_2HANDEDLIGHTNING_HOLD@ 20120110     bg_panimate.obj
 0002:00005134       ??_C@_0CC@HEIANMP@BOTH_FORCE_2HANDEDLIGHTNING_STAR@ 20120134     bg_panimate.obj
 0002:00005158       ??_C@_0BM@OPHDEJED@BOTH_FORCE_2HANDEDLIGHTNING?$AA@ 20120158     bg_panimate.obj
 0002:00005174       ??_C@_0BA@GLJOFMJL@BOTH_FORCE_RAGE?$AA@ 20120174     bg_panimate.obj
 0002:00005184       ??_C@_0L@GCDIADMB@BOTH_TOSS2?$AA@ 20120184     bg_panimate.obj
 0002:00005190       ??_C@_0L@EJBFFAAC@BOTH_TOSS1?$AA@ 20120190     bg_panimate.obj
 0002:0000519c       ??_C@_0BH@JFCMGCAP@BOTH_FORCEGRIP_RELEASE?$AA@ 2012019c     bg_panimate.obj
 0002:000051b4       ??_C@_0BE@JLIMFCGH@BOTH_FORCEGRIP_HOLD?$AA@ 201201b4     bg_panimate.obj
 0002:000051c8       ??_C@_0BF@BAAGEEBG@BOTH_FORCEGRIP3THROW?$AA@ 201201c8     bg_panimate.obj
 0002:000051e0       ??_C@_0BA@CBKDJPAH@BOTH_FORCEGRIP3?$AA@ 201201e0     bg_panimate.obj
 0002:000051f0       ??_C@_0BA@BDJFPNIF@BOTH_FORCEGRIP1?$AA@ 201201f0     bg_panimate.obj
 0002:00005200       ??_C@_0P@PONJILD@BOTH_SABERPULL?$AA@ 20120200     bg_panimate.obj
 0002:00005210       ??_C@_0BF@DKJODMIL@BOTH_FORCEHEAL_QUICK?$AA@ 20120210     bg_panimate.obj
 0002:00005228       ??_C@_0BE@GNHNNEFM@BOTH_FORCEHEAL_STOP?$AA@ 20120228     bg_panimate.obj
 0002:0000523c       ??_C@_0BF@FPDMFLAG@BOTH_FORCEHEAL_START?$AA@ 2012023c     bg_panimate.obj
 0002:00005254       ??_C@_0BM@GCBAKCPL@BOTH_FORCELIGHTNING_RELEASE?$AA@ 20120254     bg_panimate.obj
 0002:00005270       ??_C@_0BJ@KCFBGHIB@BOTH_FORCELIGHTNING_HOLD?$AA@ 20120270     bg_panimate.obj
 0002:0000528c       ??_C@_0BK@NACKCJFF@BOTH_FORCELIGHTNING_START?$AA@ 2012028c     bg_panimate.obj
 0002:000052a8       ??_C@_0BE@OEAHGILF@BOTH_FORCELIGHTNING?$AA@ 201202a8     bg_panimate.obj
 0002:000052bc       ??_C@_0BA@KMPKOPAN@BOTH_MINDTRICK2?$AA@ 201202bc     bg_panimate.obj
 0002:000052cc       ??_C@_0BA@IHNHLMMO@BOTH_MINDTRICK1?$AA@ 201202cc     bg_panimate.obj
 0002:000052dc       ??_C@_0P@HBADPLP@BOTH_FORCEPULL?$AA@ 201202dc     bg_panimate.obj
 0002:000052ec       ??_C@_0P@HEAGBOPG@BOTH_FORCEPUSH?$AA@ 201202ec     bg_panimate.obj
 0002:000052fc       ??_C@_0BA@IBNLMMOO@BOTH_RESISTPUSH?$AA@ 201202fc     bg_panimate.obj
 0002:0000530c       ??_C@_0BE@BFLOBGOL@BOTH_BUTTON_RELEASE?$AA@ 2012030c     bg_panimate.obj
 0002:00005320       ??_C@_0BB@FCMBEPCD@BOTH_BUTTON_HOLD?$AA@ 20120320     bg_panimate.obj
 0002:00005334       ??_C@_0N@JDJGEOPD@BOTH_BUTTON2?$AA@ 20120334     bg_panimate.obj
 0002:00005344       ??_C@_0N@LILLBNDA@BOTH_BUTTON1?$AA@ 20120344     bg_panimate.obj
 0002:00005354       ??_C@_0N@JAALPHCL@BOTH_TURNOFF?$AA@ 20120354     bg_panimate.obj
 0002:00005364       ??_C@_0M@ODIMNEKC@BOTH_TURNON?$AA@ 20120364     bg_panimate.obj
 0002:00005370       ??_C@_0O@CAGOCCAO@BOTH_POWERUP1?$AA@ 20120370     bg_panimate.obj
 0002:00005380       ??_C@_0M@MGBFEGML@BOTH_CHOKE3?$AA@ 20120380     bg_panimate.obj
 0002:0000538c       ??_C@_0M@NPAOHHIK@BOTH_CHOKE2?$AA@ 2012038c     bg_panimate.obj
 0002:00005398       ??_C@_0M@PECDCEEJ@BOTH_CHOKE1?$AA@ 20120398     bg_panimate.obj
 0002:000053a4       ??_C@_0BF@ICMFFJIF@BOTH_CHOKE1STARTHOLD?$AA@ 201203a4     bg_panimate.obj
 0002:000053bc       ??_C@_0BB@OFKGJANF@BOTH_CHOKE1START?$AA@ 201203bc     bg_panimate.obj
 0002:000053d0       ??_C@_0BC@NPNJMHGC@BOTH_SLEEP1GETUP2?$AA@ 201203d0     bg_panimate.obj
 0002:000053e4       ??_C@_0BB@HBPPPACM@BOTH_SLEEP1GETUP?$AA@ 201203e4     bg_panimate.obj
 0002:000053f8       ??_C@_0BA@CINKHNGE@BOTH_SLEEP6STOP?$AA@ 201203f8     bg_panimate.obj
 0002:00005408       ??_C@_0BB@HHHLEEDB@BOTH_SLEEP6START?$AA@ 20120408     bg_panimate.obj
 0002:0000541c       ??_C@_0M@LIOOPEJI@BOTH_SLEEP1?$AA@ 2012041c     bg_panimate.obj
 0002:00005428       ??_C@_0BC@LJIHFCKB@BOTH_SWIMBACKWARD?$AA@ 20120428     bg_panimate.obj
 0002:0000543c       ??_C@_0BB@FOFCFDFI@BOTH_SWIMFORWARD?$AA@ 2012043c     bg_panimate.obj
 0002:00005450       ??_C@_0BA@PIGFMLPF@BOTH_SWIM_IDLE1?$AA@ 20120450     bg_panimate.obj
 0002:00005460       ??_C@_0BC@ODIBALPH@BOTH_FLY_SHIELDED?$AA@ 20120460     bg_panimate.obj
 0002:00005474       ??_C@_0BB@OMHFJNGP@BOTH_LADDER_IDLE?$AA@ 20120474     bg_panimate.obj
 0002:00005488       ??_C@_0BB@BOJOMJDD@BOTH_LADDER_DWN1?$AA@ 20120488     bg_panimate.obj
 0002:0000549c       ??_C@_0BA@ILKIBIOO@BOTH_LADDER_UP1?$AA@ 2012049c     bg_panimate.obj
 0002:000054ac       ??_C@_09PPDGHFCD@BOTH_HIT1?$AA@ 201204ac     bg_panimate.obj
 0002:000054b8       ??_C@_0P@EHILJFLF@BOTH_HANG_PAIN?$AA@ 201204b8     bg_panimate.obj
 0002:000054c8       ??_C@_0BB@CKCHJINN@BOTH_HANG_ATTACK?$AA@ 201204c8     bg_panimate.obj
 0002:000054dc       ??_C@_0P@PIJKILFE@BOTH_HANG_IDLE?$AA@ 201204dc     bg_panimate.obj
 0002:000054ec       ??_C@_0O@LAAPIANC@BOTH_RELEASED?$AA@ 201204ec     bg_panimate.obj
 0002:000054fc       ??_C@_0N@CFDAGGFP@BOTH_GRABBED?$AA@ 201204fc     bg_panimate.obj
 0002:0000550c       ??_C@_0P@PLIENJJJ@BOTH_HOLD_DROP?$AA@ 2012050c     bg_panimate.obj
 0002:0000551c       ??_C@_0BA@KJAIIPAE@BOTH_HOLD_SNIFF?$AA@ 2012051c     bg_panimate.obj
 0002:0000552c       ??_C@_0BB@EFCJFPCD@BOTH_HOLD_ATTACK?$AA@ 2012052c     bg_panimate.obj
 0002:00005540       ??_C@_0O@HFIKEJBB@BOTH_HOLD_END?$AA@ 20120540     bg_panimate.obj
 0002:00005550       ??_C@_0P@EDJFENCG@BOTH_HOLD_IDLE?$AA@ 20120550     bg_panimate.obj
 0002:00005560       ??_C@_0P@EPJNGCKB@BOTH_HOLD_MISS?$AA@ 20120560     bg_panimate.obj
 0002:00005570       ??_C@_0BA@CFDHFDLH@BOTH_HOLD_START?$AA@ 20120570     bg_panimate.obj
 0002:00005580       ??_C@_0BA@NKEMKFLI@BOTH_BUCK_RIDER?$AA@ 20120580     bg_panimate.obj
 0002:00005590       ??_C@_0BF@HCPCIHAG@BOTH_PLAYER_PA_3_FLY?$AA@ 20120590     bg_panimate.obj
 0002:000055a8       ??_C@_0BB@KIHONIOP@BOTH_PLAYER_PA_3?$AA@ 201205a8     bg_panimate.obj
 0002:000055bc       ??_C@_0P@OMCEAAPC@BOTH_KYLE_PA_3?$AA@ 201205bc     bg_panimate.obj
 0002:000055cc       ??_C@_0BD@BPPGNPKM@BOTH_PLAYER_PA_FLY?$AA@ 201205cc     bg_panimate.obj
 0002:000055e0       ??_C@_0BB@LBGFOJKO@BOTH_PLAYER_PA_2?$AA@ 201205e0     bg_panimate.obj
 0002:000055f4       ??_C@_0P@PFDPDBLD@BOTH_KYLE_PA_2?$AA@ 201205f4     bg_panimate.obj
 0002:00005604       ??_C@_0BB@JKEILKGN@BOTH_PLAYER_PA_1?$AA@ 20120604     bg_panimate.obj
 0002:00005618       ??_C@_0P@NOBCGCHA@BOTH_KYLE_PA_1?$AA@ 20120618     bg_panimate.obj
 0002:00005628       ??_C@_0P@NNAHOJON@BOTH_KYLE_MISS?$AA@ 20120628     bg_panimate.obj
 0002:00005638       ??_C@_0P@FMNEHFNM@BOTH_KYLE_GRAB?$AA@ 20120638     bg_panimate.obj
 0002:00005648       ??_C@_0BC@MELKBIFA@BOTH_SCEPTER_STOP?$AA@ 20120648     bg_panimate.obj
 0002:0000565c       ??_C@_0BC@HIHKAHFB@BOTH_SCEPTER_HOLD?$AA@ 2012065c     bg_panimate.obj
 0002:00005670       ??_C@_0BD@FGCDNAOB@BOTH_SCEPTER_START?$AA@ 20120670     bg_panimate.obj
 0002:00005684       ??_C@_0BH@HFIAAKKL@BOTH_TAVION_SWORDPOWER?$AA@ 20120684     bg_panimate.obj
 0002:0000569c       ??_C@_0BK@NBGHMOBL@BOTH_TAVION_SCEPTERGROUND?$AA@ 2012069c     bg_panimate.obj
 0002:000056b8       ??_C@_0P@ENOEHDDL@BOTH_ROSH_HEAL?$AA@ 201206b8     bg_panimate.obj
 0002:000056c8       ??_C@_0P@KODDALBF@BOTH_ROSH_PAIN?$AA@ 201206c8     bg_panimate.obj
 0002:000056d8       ??_C@_0BB@JJKGACDG@BOTH_ALORA_TAUNT?$AA@ 201206d8     bg_panimate.obj
 0002:000056ec       ??_C@_0BG@DCFBCKEL@BOTH_ALORA_SPIN_SLASH?$AA@ 201206ec     bg_panimate.obj
 0002:00005704       ??_C@_0BG@EABOBAMI@BOTH_ALORA_SPIN_THROW?$AA@ 20120704     bg_panimate.obj
 0002:0000571c       ??_C@_0BC@FIDADFOL@BOTH_ALORA_FLIP_B?$AA@ 2012071c     bg_panimate.obj
 0002:00005730       ??_C@_0BC@GOBEHNFM@BOTH_ALORA_FLIP_3?$AA@ 20120730     bg_panimate.obj
 0002:00005744       ??_C@_0BC@HHAPEMBN@BOTH_ALORA_FLIP_2?$AA@ 20120744     bg_panimate.obj
 0002:00005758       ??_C@_0BC@FMCCBPNO@BOTH_ALORA_FLIP_1?$AA@ 20120758     bg_panimate.obj
 0002:0000576c       ??_C@_0BA@IMOMKPBA@BOTH_ALORA_SPIN?$AA@ 2012076c     bg_panimate.obj
 0002:0000577c       ??_C@_0N@NLKPNJAP@BOTH_A7_HILT?$AA@ 2012077c     bg_panimate.obj
 0002:0000578c       ??_C@_0L@PNLACCAF@BOTH_A6_LR?$AA@ 2012078c     bg_panimate.obj
 0002:00005798       ??_C@_0L@LKOFLFIC@BOTH_A6_FB?$AA@ 20120798     bg_panimate.obj
 0002:000057a4       ??_C@_0BA@ECEJJOCF@BOTH_DUAL_TAUNT?$AA@ 201207a4     bg_panimate.obj
 0002:000057b4       ??_C@_0BB@IIJAHOAM@BOTH_STAFF_TAUNT?$AA@ 201207b4     bg_panimate.obj
 0002:000057c8       ??_C@_0BA@NPLLAIGE@BOTH_LOSE_SABER?$AA@ 201207c8     bg_panimate.obj
 0002:000057d8       ??_C@_0BC@BJEPANJA@BOTH_BACK_FLIP_UP?$AA@ 201207d8     bg_panimate.obj
 0002:000057ec       ??_C@_0BD@HFLMOBFH@BOTH_BUTTERFLY_FL1?$AA@ 201207ec     bg_panimate.obj
 0002:00005800       ??_C@_0BD@GDAEGPCN@BOTH_BUTTERFLY_FR1?$AA@ 20120800     bg_panimate.obj
 0002:00005814       ??_C@_0O@HINNODAG@BOTH_ARIAL_F1?$AA@ 20120814     bg_panimate.obj
 0002:00005824       ??_C@_0N@PBBFIKGE@BOTH_BASHED1?$AA@ 20120824     bg_panimate.obj
 0002:00005834       ??_C@_0BM@ELFFAKLF@BOTH_DEFLECTSLASH__R__L_FIN?$AA@ 20120834     bg_panimate.obj
 0002:00005850       ??_C@_0BJ@PHBNOEEM@BOTH_RIGHTHANDCHOPPEDOFF?$AA@ 20120850     bg_panimate.obj
 0002:0000586c       ??_C@_0BA@CDEAMOMG@BOTH_FJSS_TL_BR?$AA@ 2012086c     bg_panimate.obj
 0002:0000587c       ??_C@_0BA@CINBNIPK@BOTH_FJSS_TR_BL?$AA@ 2012087c     bg_panimate.obj
 0002:0000588c       ??_C@_0BC@GKKAPGJM@BOTH_CEILING_DROP?$AA@ 2012088c     bg_panimate.obj
 0002:000058a0       ??_C@_0BD@LHONGOKG@BOTH_CEILING_CLING?$AA@ 201208a0     bg_panimate.obj
 0002:000058b4       ??_C@_0L@JNPKOHDB@BOTH_SPIN1?$AA@ 201208b4     bg_panimate.obj
 0002:000058c0       ??_C@_0BF@ECAKIGBB@BOTH_WALL_FLIP_BACK2?$AA@ 201208c0     bg_panimate.obj
 0002:000058d8       ??_C@_0BF@GJCHNFNC@BOTH_WALL_FLIP_BACK1?$AA@ 201208d8     bg_panimate.obj
 0002:000058f0       ??_C@_0BD@EOHNHFLF@BOTH_GETUP_FROLL_R?$AA@ 201208f0     bg_panimate.obj
 0002:00005904       ??_C@_0BD@JKDMEKGK@BOTH_GETUP_FROLL_L?$AA@ 20120904     bg_panimate.obj
 0002:00005918       ??_C@_0BD@GANDKCOA@BOTH_GETUP_FROLL_F?$AA@ 20120918     bg_panimate.obj
 0002:0000592c       ??_C@_0BD@ELPGHOE@BOTH_GETUP_FROLL_B?$AA@ 2012092c     bg_panimate.obj
 0002:00005940       ??_C@_0BD@MKDHHLEP@BOTH_GETUP_BROLL_R?$AA@ 20120940     bg_panimate.obj
 0002:00005954       ??_C@_0BD@BOHGEEJA@BOTH_GETUP_BROLL_L?$AA@ 20120954     bg_panimate.obj
 0002:00005968       ??_C@_0BD@OEJJKMBK@BOTH_GETUP_BROLL_F?$AA@ 20120968     bg_panimate.obj
 0002:0000597c       ??_C@_0BD@IAPFGJBO@BOTH_GETUP_BROLL_B?$AA@ 2012097c     bg_panimate.obj
 0002:00005990       ??_C@_0BE@FMMHDLNN@BOTH_FORCE_GETUP_B6?$AA@ 20120990     bg_panimate.obj
 0002:000059a4       ??_C@_0BE@HHOKGIBO@BOTH_FORCE_GETUP_B5?$AA@ 201209a4     bg_panimate.obj
 0002:000059b8       ??_C@_0BE@GOPBFJFP@BOTH_FORCE_GETUP_B4?$AA@ 201209b8     bg_panimate.obj
 0002:000059cc       ??_C@_0BE@CBLAMPJI@BOTH_FORCE_GETUP_B3?$AA@ 201209cc     bg_panimate.obj
 0002:000059e0       ??_C@_0BE@DIKLPONJ@BOTH_FORCE_GETUP_B2?$AA@ 201209e0     bg_panimate.obj
 0002:000059f4       ??_C@_0BE@BDIGKNBK@BOTH_FORCE_GETUP_B1?$AA@ 201209f4     bg_panimate.obj
 0002:00005a08       ??_C@_0BE@DPKCFGAF@BOTH_FORCE_GETUP_F2?$AA@ 20120a08     bg_panimate.obj
 0002:00005a1c       ??_C@_0BE@BEIPAFMG@BOTH_FORCE_GETUP_F1?$AA@ 20120a1c     bg_panimate.obj
 0002:00005a30       ??_C@_0BF@MJANPMOM@BOTH_GETUP_CROUCH_B1?$AA@ 20120a30     bg_panimate.obj
 0002:00005a48       ??_C@_0BF@MOAEFEDA@BOTH_GETUP_CROUCH_F1?$AA@ 20120a48     bg_panimate.obj
 0002:00005a60       ??_C@_0M@GFIFDBCE@BOTH_GETUP5?$AA@ 20120a60     bg_panimate.obj
 0002:00005a6c       ??_C@_0M@HMJOAAGF@BOTH_GETUP4?$AA@ 20120a6c     bg_panimate.obj
 0002:00005a78       ??_C@_0M@DDNPJGKC@BOTH_GETUP3?$AA@ 20120a78     bg_panimate.obj
 0002:00005a84       ??_C@_0M@CKMEKHOD@BOTH_GETUP2?$AA@ 20120a84     bg_panimate.obj
 0002:00005a90       ??_C@_0M@BOJPECA@BOTH_GETUP1?$AA@ 20120a90     bg_panimate.obj
 0002:00005a9c       ??_C@_0BA@OGIFEPII@BOTH_KNOCKDOWN5?$AA@ 20120a9c     bg_panimate.obj
 0002:00005aac       ??_C@_0BA@PPJOHOMJ@BOTH_KNOCKDOWN4?$AA@ 20120aac     bg_panimate.obj
 0002:00005abc       ??_C@_0BA@LANPOIAO@BOTH_KNOCKDOWN3?$AA@ 20120abc     bg_panimate.obj
 0002:00005acc       ??_C@_0BA@KJMENJEP@BOTH_KNOCKDOWN2?$AA@ 20120acc     bg_panimate.obj
 0002:00005adc       ??_C@_0BA@ICOJIKIM@BOTH_KNOCKDOWN1?$AA@ 20120adc     bg_panimate.obj
 0002:00005aec       ??_C@_0BE@ILAKMJOK@BOTH_WALL_FLIP_LEFT?$AA@ 20120aec     bg_panimate.obj
 0002:00005b00       ??_C@_0BF@MPCPCKGE@BOTH_WALL_FLIP_RIGHT?$AA@ 20120b00     bg_panimate.obj
 0002:00005b18       ??_C@_0BI@ICEHPAIN@BOTH_WALL_RUN_LEFT_STOP?$AA@ 20120b18     bg_panimate.obj
 0002:00005b30       ??_C@_0BI@LLGHOLLN@BOTH_WALL_RUN_LEFT_FLIP?$AA@ 20120b30     bg_panimate.obj
 0002:00005b48       ??_C@_0BD@FOKEEMMD@BOTH_WALL_RUN_LEFT?$AA@ 20120b48     bg_panimate.obj
 0002:00005b5c       ??_C@_0BJ@KEGEKGBP@BOTH_WALL_RUN_RIGHT_STOP?$AA@ 20120b5c     bg_panimate.obj
 0002:00005b78       ??_C@_0BJ@JNEELNCP@BOTH_WALL_RUN_RIGHT_FLIP?$AA@ 20120b78     bg_panimate.obj
 0002:00005b94       ??_C@_0BE@INEIBMIN@BOTH_WALL_RUN_RIGHT?$AA@ 20120b94     bg_panimate.obj
 0002:00005ba8       ??_C@_0BF@JMFKBIFE@BOTH_BUTTERFLY_RIGHT?$AA@ 20120ba8     bg_panimate.obj
 0002:00005bc0       ??_C@_0BE@ENKLMJBI@BOTH_BUTTERFLY_LEFT?$AA@ 20120bc0     bg_panimate.obj
 0002:00005bd4       ??_C@_0BA@NNNINNPE@BOTH_FLIP_BACK3?$AA@ 20120bd4     bg_panimate.obj
 0002:00005be4       ??_C@_0BA@MEMDOMLF@BOTH_FLIP_BACK2?$AA@ 20120be4     bg_panimate.obj
 0002:00005bf4       ??_C@_0BA@OPOOLPHG@BOTH_FLIP_BACK1?$AA@ 20120bf4     bg_panimate.obj
 0002:00005c04       ??_C@_0P@JBLCLJDK@BOTH_FLIP_LEFT?$AA@ 20120c04     bg_panimate.obj
 0002:00005c14       ??_C@_0BF@NLFLOFGE@BOTH_CARTWHEEL_RIGHT?$AA@ 20120c14     bg_panimate.obj
 0002:00005c2c       ??_C@_0BE@POJJIGPG@BOTH_CARTWHEEL_LEFT?$AA@ 20120c2c     bg_panimate.obj
 0002:00005c40       ??_C@_0BB@HOMELNKD@BOTH_ARIAL_RIGHT?$AA@ 20120c40     bg_panimate.obj
 0002:00005c54       ??_C@_0BA@GLHECKNB@BOTH_ARIAL_LEFT?$AA@ 20120c54     bg_panimate.obj
 0002:00005c64       ??_C@_0BD@JOGFDMEG@BOTH_VICTORY_STAFF?$AA@ 20120c64     bg_panimate.obj
 0002:00005c78       ??_C@_0BC@OIFMFNP@BOTH_VICTORY_DUAL?$AA@ 20120c78     bg_panimate.obj
 0002:00005c8c       ??_C@_0BE@HEECKLDL@BOTH_VICTORY_STRONG?$AA@ 20120c8c     bg_panimate.obj
 0002:00005ca0       ??_C@_0BE@KLHOAEHD@BOTH_VICTORY_MEDIUM?$AA@ 20120ca0     bg_panimate.obj
 0002:00005cb4       ??_C@_0BC@DGIHLJDA@BOTH_VICTORY_FAST?$AA@ 20120cb4     bg_panimate.obj
 0002:00005cc8       ??_C@_0BD@PAPJANE@BOTH_SHOWOFF_STAFF?$AA@ 20120cc8     bg_panimate.obj
 0002:00005cdc       ??_C@_0BC@EFMAJB@BOTH_SHOWOFF_DUAL?$AA@ 20120cdc     bg_panimate.obj
 0002:00005cf0       ??_C@_0BE@GKNCDDPP@BOTH_SHOWOFF_STRONG?$AA@ 20120cf0     bg_panimate.obj
 0002:00005d04       ??_C@_0BE@LFOOJMLH@BOTH_SHOWOFF_MEDIUM?$AA@ 20120d04     bg_panimate.obj
 0002:00005d18       ??_C@_0BC@DIEHLMHO@BOTH_SHOWOFF_FAST?$AA@ 20120d18     bg_panimate.obj
 0002:00005d2c       ??_C@_0BC@DILNBIJM@BOTH_MEDITATE_END?$AA@ 20120d2c     bg_panimate.obj
 0002:00005d40       ??_C@_0O@NBLEPMIO@BOTH_MEDITATE?$AA@ 20120d40     bg_panimate.obj
 0002:00005d50       ??_C@_08CINMJMPG@BOTH_BOW?$AA@ 20120d50     bg_panimate.obj
 0002:00005d5c       ??_C@_0BB@EBJHHEMP@BOTH_ENGAGETAUNT?$AA@ 20120d5c     bg_panimate.obj
 0002:00005d70       ??_C@_0BC@GDJJMPG@BOTH_DODGE_HOLD_R?$AA@ 20120d70     bg_panimate.obj
 0002:00005d84       ??_C@_0BC@NCHIKDCJ@BOTH_DODGE_HOLD_L?$AA@ 20120d84     bg_panimate.obj
 0002:00005d98       ??_C@_0BD@MAHDPCBD@BOTH_DODGE_HOLD_BR?$AA@ 20120d98     bg_panimate.obj
 0002:00005dac       ??_C@_0BD@BEDCMNMM@BOTH_DODGE_HOLD_BL?$AA@ 20120dac     bg_panimate.obj
 0002:00005dc0       ??_C@_0BD@MHHKFKMP@BOTH_DODGE_HOLD_FR?$AA@ 20120dc0     bg_panimate.obj
 0002:00005dd4       ??_C@_0BD@BDDLGFBA@BOTH_DODGE_HOLD_FL?$AA@ 20120dd4     bg_panimate.obj
 0002:00005de8       ??_C@_0N@KFGFCJLJ@BOTH_DODGE_R?$AA@ 20120de8     bg_panimate.obj
 0002:00005df8       ??_C@_0N@HBCEBGGG@BOTH_DODGE_L?$AA@ 20120df8     bg_panimate.obj
 0002:00005e08       ??_C@_0O@CGLDPCKH@BOTH_DODGE_BR?$AA@ 20120e08     bg_panimate.obj
 0002:00005e18       ??_C@_0O@PCPCMNHI@BOTH_DODGE_BL?$AA@ 20120e18     bg_panimate.obj
 0002:00005e28       ??_C@_0O@CBLKFKHL@BOTH_DODGE_FR?$AA@ 20120e28     bg_panimate.obj
 0002:00005e38       ??_C@_0O@PFPLGFKE@BOTH_DODGE_FL?$AA@ 20120e38     bg_panimate.obj
 0002:00005e48       ??_C@_0L@GIHOPMAM@BOTH_HOP_R?$AA@ 20120e48     bg_panimate.obj
 0002:00005e54       ??_C@_0L@LMDPMDND@BOTH_HOP_L?$AA@ 20120e54     bg_panimate.obj
 0002:00005e60       ??_C@_0L@CCLMOOFN@BOTH_HOP_B?$AA@ 20120e60     bg_panimate.obj
 0002:00005e6c       ??_C@_0L@EGNACLFJ@BOTH_HOP_F?$AA@ 20120e6c     bg_panimate.obj
 0002:00005e78       ??_C@_0M@KNJJNPCA@BOTH_ROLL_R?$AA@ 20120e78     bg_panimate.obj
 0002:00005e84       ??_C@_0M@HJNIOAPP@BOTH_ROLL_L?$AA@ 20120e84     bg_panimate.obj
 0002:00005e90       ??_C@_0M@OHFLMNHB@BOTH_ROLL_B?$AA@ 20120e90     bg_panimate.obj
 0002:00005e9c       ??_C@_0M@IDDHAIHF@BOTH_ROLL_F?$AA@ 20120e9c     bg_panimate.obj
 0002:00005ea8       ??_C@_0M@GKLDHCAE@BOTH_FLIP_R?$AA@ 20120ea8     bg_panimate.obj
 0002:00005eb4       ??_C@_0M@LOPCENNL@BOTH_FLIP_L?$AA@ 20120eb4     bg_panimate.obj
 0002:00005ec0       ??_C@_0M@CAHBGAFF@BOTH_FLIP_B?$AA@ 20120ec0     bg_panimate.obj
 0002:00005ecc       ??_C@_0M@EEBNKFFB@BOTH_FLIP_F?$AA@ 20120ecc     bg_panimate.obj
 0002:00005ed8       ??_C@_0BF@GPIHFNCP@BOTH_FORCELANDRIGHT1?$AA@ 20120ed8     bg_panimate.obj
 0002:00005ef0       ??_C@_0BG@OPKMFNMD@BOTH_FORCEINAIRRIGHT1?$AA@ 20120ef0     bg_panimate.obj
 0002:00005f08       ??_C@_0BF@GIALLFOK@BOTH_FORCEJUMPRIGHT1?$AA@ 20120f08     bg_panimate.obj
 0002:00005f20       ??_C@_0BE@CPNCOCJF@BOTH_FORCELANDLEFT1?$AA@ 20120f20     bg_panimate.obj
 0002:00005f34       ??_C@_0BF@GBLFMFAA@BOTH_FORCEINAIRLEFT1?$AA@ 20120f34     bg_panimate.obj
 0002:00005f4c       ??_C@_0BE@MOPODOJB@BOTH_FORCEJUMPLEFT1?$AA@ 20120f4c     bg_panimate.obj
 0002:00005f60       ??_C@_0BE@MAPMDBFK@BOTH_FORCELANDBACK1?$AA@ 20120f60     bg_panimate.obj
 0002:00005f74       ??_C@_0BF@IOJLBGMP@BOTH_FORCEINAIRBACK1?$AA@ 20120f74     bg_panimate.obj
 0002:00005f8c       ??_C@_0BE@CBNAONFO@BOTH_FORCEJUMPBACK1?$AA@ 20120f8c     bg_panimate.obj
 0002:00005fa0       ??_C@_0BA@NIOKNDAB@BOTH_FORCELAND1?$AA@ 20120fa0     bg_panimate.obj
 0002:00005fb0       ??_C@_0BB@CIEHHKPA@BOTH_FORCEINAIR1?$AA@ 20120fb0     bg_panimate.obj
 0002:00005fc4       ??_C@_0BA@JCEJKFBM@BOTH_FORCEJUMP1?$AA@ 20120fc4     bg_panimate.obj
 0002:00005fd4       ??_C@_0BA@CAAEDJLF@BOTH_LANDRIGHT1?$AA@ 20120fd4     bg_panimate.obj
 0002:00005fe4       ??_C@_0BB@PPDJKEPN@BOTH_INAIRRIGHT1?$AA@ 20120fe4     bg_panimate.obj
 0002:00005ff8       ??_C@_0BA@CHIINBHA@BOTH_JUMPRIGHT1?$AA@ 20120ff8     bg_panimate.obj
 0002:00006008       ??_C@_0P@HDEECKDG@BOTH_LANDLEFT1?$AA@ 20121008     bg_panimate.obj
 0002:00006018       ??_C@_0BA@CODGKBJK@BOTH_INAIRLEFT1?$AA@ 20121018     bg_panimate.obj
 0002:00006028       ??_C@_0P@JCGIPGDC@BOTH_JUMPLEFT1?$AA@ 20121028     bg_panimate.obj
 0002:00006038       ??_C@_0P@JMGKPJPJ@BOTH_LANDBACK1?$AA@ 20121038     bg_panimate.obj
 0002:00006048       ??_C@_0BA@MBBIHCFF@BOTH_INAIRBACK1?$AA@ 20121048     bg_panimate.obj
 0002:00006058       ??_C@_0P@HNEGCFPN@BOTH_JUMPBACK1?$AA@ 20121058     bg_panimate.obj
 0002:00006068       ??_C@_0L@IJJHAHOB@BOTH_LAND2?$AA@ 20121068     bg_panimate.obj
 0002:00006074       ??_C@_0L@KCLKFECC@BOTH_LAND1?$AA@ 20121074     bg_panimate.obj
 0002:00006080       ??_C@_0M@IKFKFLAF@BOTH_INAIR1?$AA@ 20121080     bg_panimate.obj
 0002:0000608c       ??_C@_0L@OIBJCCDP@BOTH_JUMP1?$AA@ 2012108c     bg_panimate.obj
 0002:00006098       ??_C@_0O@GFMMDEIN@BOTH_RUNBACK2?$AA@ 20121098     bg_panimate.obj
 0002:000060a8       ??_C@_0O@EOOBGHEO@BOTH_RUNBACK1?$AA@ 201210a8     bg_panimate.obj
 0002:000060b8       ??_C@_0P@NMGEKHLB@BOTH_WALKBACK2?$AA@ 201210b8     bg_panimate.obj
 0002:000060c8       ??_C@_0P@PHEJPEHC@BOTH_WALKBACK1?$AA@ 201210c8     bg_panimate.obj
 0002:000060d8       ??_C@_0BB@PGPEJHBN@BOTH_TURNCROUCH1?$AA@ 201210d8     bg_panimate.obj
 0002:000060ec       ??_C@_0BA@KBOEGPN@BOTH_TURNSTAND5?$AA@ 201210ec     bg_panimate.obj
 0002:000060fc       ??_C@_0BA@BDAFHHLM@BOTH_TURNSTAND4?$AA@ 201210fc     bg_panimate.obj
 0002:0000610c       ??_C@_0BA@FMEEOBHL@BOTH_TURNSTAND3?$AA@ 2012110c     bg_panimate.obj
 0002:0000611c       ??_C@_0BA@EFFPNADK@BOTH_TURNSTAND2?$AA@ 2012111c     bg_panimate.obj
 0002:0000612c       ??_C@_0BA@GOHCIDPJ@BOTH_TURNSTAND1?$AA@ 2012112c     bg_panimate.obj
 0002:0000613c       ??_C@_0BB@NDKEEJJD@BOTH_TURN_RIGHT1?$AA@ 2012113c     bg_panimate.obj
 0002:00006150       ??_C@_0BA@GKEFEECE@BOTH_TURN_LEFT1?$AA@ 20121150     bg_panimate.obj
 0002:00006160       ??_C@_0BG@OGEKFCND@BOTH_RUNSTRAFE_RIGHT1?$AA@ 20121160     bg_panimate.obj
 0002:00006178       ??_C@_0BF@DBPGPOAM@BOTH_RUNSTRAFE_LEFT1?$AA@ 20121178     bg_panimate.obj
 0002:00006190       ??_C@_0BD@LFCECKKK@BOTH_STRAFE_RIGHT1?$AA@ 20121190     bg_panimate.obj
 0002:000061a4       ??_C@_0BC@OMBNLHPO@BOTH_STRAFE_LEFT1?$AA@ 201211a4     bg_panimate.obj
 0002:000061b8       ??_C@_0BC@KOJINEFM@BOTH_RUNBACK_DUAL?$AA@ 201211b8     bg_panimate.obj
 0002:000061cc       ??_C@_0O@NLDNHDFF@BOTH_RUN_DUAL?$AA@ 201211cc     bg_panimate.obj
 0002:000061dc       ??_C@_0BD@OKHEPDMN@BOTH_RUNBACK_STAFF?$AA@ 201211dc     bg_panimate.obj
 0002:000061f0       ??_C@_0P@JDNNOOMO@BOTH_RUN_STAFF?$AA@ 201211f0     bg_panimate.obj
 0002:00006200       ??_C@_09KDGPMAME@BOTH_RUN4?$AA@ 20121200     bg_panimate.obj
 0002:0000620c       ??_C@_0BA@DGLFAIMM@BOTH_RUN2TORUN1?$AA@ 2012120c     bg_panimate.obj
 0002:0000621c       ??_C@_0BA@JDBHFMOM@BOTH_RUN1TORUN2?$AA@ 2012121c     bg_panimate.obj
 0002:0000622c       ??_C@_09PFDFGHEC@BOTH_RUN2?$AA@ 2012122c     bg_panimate.obj
 0002:00006238       ??_C@_0O@GPFGEBNP@BOTH_RUN1STOP?$AA@ 20121238     bg_panimate.obj
 0002:00006248       ??_C@_0P@CLIPKCAJ@BOTH_RUN1START?$AA@ 20121248     bg_panimate.obj
 0002:00006258       ??_C@_09NOBIDEIB@BOTH_RUN1?$AA@ 20121258     bg_panimate.obj
 0002:00006264       ??_C@_0L@DMKEIOEK@BOTH_WALK7?$AA@ 20121264     bg_panimate.obj
 0002:00006270       ??_C@_0L@CFLPLPAL@BOTH_WALK6?$AA@ 20121270     bg_panimate.obj
 0002:0000627c       ??_C@_0L@OJCOMMI@BOTH_WALK5?$AA@ 2012127c     bg_panimate.obj
 0002:00006288       ??_C@_0BD@DPFDKICF@BOTH_WALKBACK_DUAL?$AA@ 20121288     bg_panimate.obj
 0002:0000629c       ??_C@_0P@GCJFOAGJ@BOTH_WALK_DUAL?$AA@ 2012129c     bg_panimate.obj
 0002:000062ac       ??_C@_0BE@MDDMPBCJ@BOTH_WALKBACK_STAFF?$AA@ 201212ac     bg_panimate.obj
 0002:000062c0       ??_C@_0BA@LMALDKNK@BOTH_WALK_STAFF?$AA@ 201212c0     bg_panimate.obj
 0002:000062d0       ??_C@_0L@EBNDHKAP@BOTH_WALK2?$AA@ 201212d0     bg_panimate.obj
 0002:000062dc       ??_C@_0L@GKPOCJMM@BOTH_WALK1?$AA@ 201212dc     bg_panimate.obj
 0002:000062e8       ??_C@_0P@OGCNLGGI@BOTH_KNEES2TO1?$AA@ 201212e8     bg_panimate.obj
 0002:000062f8       ??_C@_0M@IIHMGKKA@BOTH_KNEES2?$AA@ 201212f8     bg_panimate.obj
 0002:00006304       ??_C@_0M@KDFBDJGD@BOTH_KNEES1?$AA@ 20121304     bg_panimate.obj
 0002:00006310       ??_C@_0BD@FOKLKMPB@BOTH_DEATH14_SITUP?$AA@ 20121310     bg_panimate.obj
 0002:00006324       ??_C@_0BE@KHOKHMOE@BOTH_DEATH14_UNGRIP?$AA@ 20121324     bg_panimate.obj
 0002:00006338       ??_C@_0BB@KCBPOOGE@BOTH_WINGS_CLOSE?$AA@ 20121338     bg_panimate.obj
 0002:0000634c       ??_C@_0BA@FDONEPNA@BOTH_WINGS_OPEN?$AA@ 2012134c     bg_panimate.obj
 0002:0000635c       ??_C@_0BB@LDEBMNOM@BOTH_GEARS_CLOSE?$AA@ 2012135c     bg_panimate.obj
 0002:00006370       ??_C@_0BA@MMFJLAL@BOTH_GEARS_OPEN?$AA@ 20121370     bg_panimate.obj
 0002:00006380       ??_C@_0O@GFAOOOBE@BOTH_VT_ATF_G?$AA@ 20121380     bg_panimate.obj
 0002:00006390       ??_C@_0O@KLDAOHA@BOTH_VT_ATL_G?$AA@ 20121390     bg_panimate.obj
 0002:000063a0       ??_C@_0O@LKHFCONM@BOTH_VT_ATR_G?$AA@ 201213a0     bg_panimate.obj
 0002:000063b0       ??_C@_0BD@KBPDPJPM@BOTH_VT_ATL_TO_R_S?$AA@ 201213b0     bg_panimate.obj
 0002:000063c4       ??_C@_0BD@HFDHEALD@BOTH_VT_ATR_TO_L_S?$AA@ 201213c4     bg_panimate.obj
 0002:000063d8       ??_C@_0O@JENLPJIJ@BOTH_VT_ATR_S?$AA@ 201213d8     bg_panimate.obj
 0002:000063e8       ??_C@_0O@CEBNNJCF@BOTH_VT_ATL_S?$AA@ 201213e8     bg_panimate.obj
 0002:000063f8       ??_C@_0P@JDHAFDKN@BOTH_VT_IDLE_T?$AA@ 201213f8     bg_panimate.obj
 0002:00006408       ??_C@_0P@PCJPBCDP@BOTH_VT_IDLE_G?$AA@ 20121408     bg_panimate.obj
 0002:00006418       ??_C@_0P@NMDBMFGK@BOTH_VT_IDLE_S?$AA@ 20121418     bg_panimate.obj
 0002:00006428       ??_C@_0O@OONEODEJ@BOTH_VT_IDLE1?$AA@ 20121428     bg_panimate.obj
 0002:00006438       ??_C@_0N@ILFMGFDI@BOTH_VT_IDLE?$AA@ 20121438     bg_panimate.obj
 0002:00006448       ??_C@_0BA@CFDGIGFF@BOTH_VT_IDLE_SR?$AA@ 20121448     bg_panimate.obj
 0002:00006458       ??_C@_0BA@PBHHLJIK@BOTH_VT_IDLE_SL?$AA@ 20121458     bg_panimate.obj
 0002:00006468       ??_C@_0O@ICJCOGP@BOTH_VT_TURBO?$AA@ 20121468     bg_panimate.obj
 0002:00006478       ??_C@_0N@GOPNPPFF@BOTH_VT_LAND?$AA@ 20121478     bg_panimate.obj
 0002:00006488       ??_C@_0N@IBPGAOGA@BOTH_VT_BUCK?$AA@ 20121488     bg_panimate.obj
 0002:00006498       ??_C@_0O@IAAOOPLJ@BOTH_VT_STAND?$AA@ 20121498     bg_panimate.obj
 0002:000064a8       ??_C@_0P@CICNDPJE@BOTH_VT_DEATH1?$AA@ 201214a8     bg_panimate.obj
 0002:000064b8       ??_C@_0O@DJGGCALJ@BOTH_VT_PAIN1?$AA@ 201214b8     bg_panimate.obj
 0002:000064c8       ??_C@_0M@KDHKMBFE@BOTH_VT_ATB?$AA@ 201214c8     bg_panimate.obj
 0002:000064d4       ??_C@_0M@PNEGODCG@BOTH_VT_AIR?$AA@ 201214d4     bg_panimate.obj
 0002:000064e0       ??_C@_0P@KFJEKMCA@BOTH_VT_SLIDEF?$AA@ 201214e0     bg_panimate.obj
 0002:000064f0       ??_C@_0BC@GNCPOJGJ@BOTH_VT_RUN_FWD_R?$AA@ 201214f0     bg_panimate.obj
 0002:00006504       ??_C@_0BC@LJGONGLG@BOTH_VT_RUN_FWD_L?$AA@ 20121504     bg_panimate.obj
 0002:00006518       ??_C@_0BA@CMHLNAGB@BOTH_VT_RUN_REV?$AA@ 20121518     bg_panimate.obj
 0002:00006528       ??_C@_0BA@JEFGBHGE@BOTH_VT_RUN_FWD?$AA@ 20121528     bg_panimate.obj
 0002:00006538       ??_C@_0BD@KHNHPFPI@BOTH_VT_WALK_FWD_R?$AA@ 20121538     bg_panimate.obj
 0002:0000654c       ??_C@_0BD@HDJGMKCH@BOTH_VT_WALK_FWD_L?$AA@ 2012154c     bg_panimate.obj
 0002:00006560       ??_C@_0BB@EAPIENEI@BOTH_VT_WALK_REV?$AA@ 20121560     bg_panimate.obj
 0002:00006574       ??_C@_0BB@PINFIKEN@BOTH_VT_WALK_FWD?$AA@ 20121574     bg_panimate.obj
 0002:00006588       ??_C@_0BD@OJHHNNHG@BOTH_VT_DISMOUNT_R?$AA@ 20121588     bg_panimate.obj
 0002:0000659c       ??_C@_0BD@DNDGOCKJ@BOTH_VT_DISMOUNT_L?$AA@ 2012159c     bg_panimate.obj
 0002:000065b0       ??_C@_0BB@ICMLAFCL@BOTH_VT_DISMOUNT?$AA@ 201215b0     bg_panimate.obj
 0002:000065c4       ??_C@_0BA@GEKLNCCD@BOTH_VT_MOUNT_B?$AA@ 201215c4     bg_panimate.obj
 0002:000065d4       ??_C@_0BA@COGJMAHC@BOTH_VT_MOUNT_R?$AA@ 201215d4     bg_panimate.obj
 0002:000065e4       ??_C@_0BA@PKCIPPKN@BOTH_VT_MOUNT_L?$AA@ 201215e4     bg_panimate.obj
 0002:000065f4       ??_C@_0O@DDKDCJKA@BOTH_VS_PAIN1?$AA@ 201215f4     bg_panimate.obj
 0002:00006604       ??_C@_0O@GPMLOHAN@BOTH_VS_ATF_G?$AA@ 20121604     bg_panimate.obj
 0002:00006614       ??_C@_0O@HGAHGJ@BOTH_VS_ATL_G?$AA@ 20121614     bg_panimate.obj
 0002:00006624       ??_C@_0O@LALACHMF@BOTH_VS_ATR_G?$AA@ 20121624     bg_panimate.obj
 0002:00006634       ??_C@_0BD@NMIAPPKE@BOTH_VS_ATL_TO_R_S?$AA@ 20121634     bg_panimate.obj
 0002:00006648       ??_C@_0BD@IEEEGOL@BOTH_VS_ATR_TO_L_S?$AA@ 20121648     bg_panimate.obj
 0002:0000665c       ??_C@_0O@JOBOPAJA@BOTH_VS_ATR_S?$AA@ 2012165c     bg_panimate.obj
 0002:0000666c       ??_C@_0O@CONINADM@BOTH_VS_ATL_S?$AA@ 2012166c     bg_panimate.obj
 0002:0000667c       ??_C@_0BB@IEDLHMEE@BOTH_VS_LEANR_SR?$AA@ 2012167c     bg_panimate.obj
 0002:00006690       ??_C@_0BB@FAHKEDJL@BOTH_VS_LEANR_SL?$AA@ 20121690     bg_panimate.obj
 0002:000066a4       ??_C@_0BA@COPGHNJO@BOTH_VS_LEANR_G?$AA@ 201216a4     bg_panimate.obj
 0002:000066b4       ??_C@_0O@DJFDFNAL@BOTH_VS_LEANR?$AA@ 201216b4     bg_panimate.obj
 0002:000066c4       ??_C@_0BB@FLOLFFKH@BOTH_VS_LEANL_SR?$AA@ 201216c4     bg_panimate.obj
 0002:000066d8       ??_C@_0BB@IPKKGKHI@BOTH_VS_LEANL_SL?$AA@ 201216d8     bg_panimate.obj
 0002:000066ec       ??_C@_0BA@JODAFNDC@BOTH_VS_LEANL_G?$AA@ 201216ec     bg_panimate.obj
 0002:000066fc       ??_C@_0O@ONBCGCNE@BOTH_VS_LEANL?$AA@ 201216fc     bg_panimate.obj
 0002:0000670c       ??_C@_0BA@MHOKJNCM@BOTH_VS_IDLE_SR?$AA@ 2012170c     bg_panimate.obj
 0002:0000671c       ??_C@_0BA@BDKLKCPD@BOTH_VS_IDLE_SL?$AA@ 2012171c     bg_panimate.obj
 0002:0000672c       ??_C@_0P@JGPOHPPG@BOTH_VS_IDLE_G?$AA@ 2012172c     bg_panimate.obj
 0002:0000673c       ??_C@_0N@EOPLFLLG@BOTH_VS_IDLE?$AA@ 2012173c     bg_panimate.obj
 0002:0000674c       ??_C@_0BA@KNJKDEFE@BOTH_VS_LAND_SR?$AA@ 2012174c     bg_panimate.obj
 0002:0000675c       ??_C@_0BA@HJNLALIL@BOTH_VS_LAND_SL?$AA@ 2012175c     bg_panimate.obj
 0002:0000676c       ??_C@_0P@FGHHPFOH@BOTH_VS_LAND_G?$AA@ 2012176c     bg_panimate.obj
 0002:0000677c       ??_C@_0N@KLFKMBNL@BOTH_VS_LAND?$AA@ 2012177c     bg_panimate.obj
 0002:0000678c       ??_C@_0P@MHFEKDCH@BOTH_VS_AIR_SR?$AA@ 2012178c     bg_panimate.obj
 0002:0000679c       ??_C@_0P@BDBFJMPI@BOTH_VS_AIR_SL?$AA@ 2012179c     bg_panimate.obj
 0002:000067ac       ??_C@_0O@CIMAHEPG@BOTH_VS_AIR_G?$AA@ 201217ac     bg_panimate.obj
 0002:000067bc       ??_C@_0M@OAEDNDJO@BOTH_VS_AIR?$AA@ 201217bc     bg_panimate.obj
 0002:000067c8       ??_C@_0M@MPJJBHIP@BOTH_VS_REV?$AA@ 201217c8     bg_panimate.obj
 0002:000067d4       ??_C@_0O@COMCHHG@BOTH_VS_TURBO?$AA@ 201217d4     bg_panimate.obj
 0002:000067e4       ??_C@_0BC@FMBEBFOC@BOTH_VS_LOOKRIGHT?$AA@ 201217e4     bg_panimate.obj
 0002:000067f8       ??_C@_0BB@LJMKNCGH@BOTH_VS_LOOKLEFT?$AA@ 201217f8     bg_panimate.obj
 0002:0000680c       ??_C@_0BF@IKPLNBPC@BOTH_VS_MOUNTTHROWEE?$AA@ 2012180c     bg_panimate.obj
 0002:00006824       ??_C@_0BF@JOMJHDMC@BOTH_VS_MOUNTTHROW_R?$AA@ 20121824     bg_panimate.obj
 0002:0000683c       ??_C@_0BF@EKIIEMBN@BOTH_VS_MOUNTTHROW_L?$AA@ 2012183c     bg_panimate.obj
 0002:00006854       ??_C@_0BD@HKDNANFN@BOTH_VS_MOUNTTHROW?$AA@ 20121854     bg_panimate.obj
 0002:00006868       ??_C@_0BE@CFBMPALJ@BOTH_VS_MOUNTJUMP_L?$AA@ 20121868     bg_panimate.obj
 0002:0000687c       ??_C@_0BD@JEAENLCO@BOTH_VS_DISMOUNT_R?$AA@ 2012187c     bg_panimate.obj
 0002:00006890       ??_C@_0BA@MMLFNLAL@BOTH_VS_MOUNT_R?$AA@ 20121890     bg_panimate.obj
 0002:000068a0       ??_C@_0BD@EAEFOEPB@BOTH_VS_DISMOUNT_L?$AA@ 201218a0     bg_panimate.obj
 0002:000068b4       ??_C@_0BA@BIPEOENE@BOTH_VS_MOUNT_L?$AA@ 201218b4     bg_panimate.obj
 0002:000068c4       ??_C@_0N@NEOMJHMD@BOTH_GUNSIT1?$AA@ 201218c4     bg_panimate.obj
 0002:000068d4       ??_C@_0P@FBKMEIKP@BOTH_UNCROUCH4?$AA@ 201218d4     bg_panimate.obj
 0002:000068e4       ??_C@_0N@NGOLMPIH@BOTH_CROUCH4?$AA@ 201218e4     bg_panimate.obj
 0002:000068f4       ??_C@_0P@BOONNOGI@BOTH_UNCROUCH3?$AA@ 201218f4     bg_panimate.obj
 0002:00006904       ??_C@_0N@JJKKFJEA@BOTH_CROUCH3?$AA@ 20121904     bg_panimate.obj
 0002:00006914       ??_C@_0BF@OBDEHHPH@BOTH_CROUCH2TOSTAND1?$AA@ 20121914     bg_panimate.obj
 0002:0000692c       ??_C@_0P@CMNLLMOK@BOTH_UNCROUCH1?$AA@ 2012192c     bg_panimate.obj
 0002:0000693c       ??_C@_0BF@IKEOFDBF@BOTH_CROUCH1WALKBACK?$AA@ 2012193c     bg_panimate.obj
 0002:00006954       ??_C@_0BB@KLBMFNGD@BOTH_CROUCH1WALK?$AA@ 20121954     bg_panimate.obj
 0002:00006968       ??_C@_0BB@NNJBKJDM@BOTH_CROUCH1IDLE?$AA@ 20121968     bg_panimate.obj
 0002:0000697c       ??_C@_0N@KLJMDLMC@BOTH_CROUCH1?$AA@ 2012197c     bg_panimate.obj
 0002:0000698c       ??_C@_0BC@BHAOLAOM@BOTH_SIT3TOSTAND5?$AA@ 2012198c     bg_panimate.obj
 0002:000069a0       ??_C@_0BA@LICOGNPB@BOTH_SIT2TOSIT4?$AA@ 201219a0     bg_panimate.obj
 0002:000069b0       ??_C@_0BC@LANJPAEM@BOTH_STAND5TOSIT2?$AA@ 201219b0     bg_panimate.obj
 0002:000069c4       ??_C@_0BC@PIMMNLNC@BOTH_SIT2TOSTAND5?$AA@ 201219c4     bg_panimate.obj
 0002:000069d8       ??_C@_09NKDALBDC@BOTH_SIT3?$AA@ 201219d8     bg_panimate.obj
 0002:000069e4       ??_C@_09MDCLIAHD@BOTH_SIT2?$AA@ 201219e4     bg_panimate.obj
 0002:000069f0       ??_C@_09OIAGNDLA@BOTH_SIT1?$AA@ 201219f0     bg_panimate.obj
 0002:000069fc       ??_C@_0BF@IPAEPPNA@BOTH_SABERTHROW2STOP?$AA@ 201219fc     bg_panimate.obj
 0002:00006a14       ??_C@_0BG@LLNAONCG@BOTH_SABERTHROW2START?$AA@ 20121a14     bg_panimate.obj
 0002:00006a2c       ??_C@_0BF@JJAINHO@BOTH_SABERTHROW1STOP?$AA@ 20121a2c     bg_panimate.obj
 0002:00006a44       ??_C@_0BG@IKDIPHLL@BOTH_SABERTHROW1START?$AA@ 20121a44     bg_panimate.obj
 0002:00006a5c       ??_C@_0BB@OHEDMGHA@BOTH_HUGGEESTOP1?$AA@ 20121a5c     bg_panimate.obj
 0002:00006a70       ??_C@_0N@OIJBJDBK@BOTH_HUGGEE1?$AA@ 20121a70     bg_panimate.obj
 0002:00006a80       ??_C@_0BB@EFDKGEDA@BOTH_HUGGERSTOP1?$AA@ 20121a80     bg_panimate.obj
 0002:00006a94       ??_C@_0N@PBPICGOP@BOTH_HUGGER1?$AA@ 20121a94     bg_panimate.obj
 0002:00006aa4       ??_C@_0BC@DNFCOFMA@BOTH_SABERKILLEE1?$AA@ 20121aa4     bg_panimate.obj
 0002:00006ab8       ??_C@_0BC@CEDLFADF@BOTH_SABERKILLER1?$AA@ 20121ab8     bg_panimate.obj
 0002:00006acc       ??_C@_0BE@LPKJJENM@BOTH_REACHFORSABER1?$AA@ 20121acc     bg_panimate.obj
 0002:00006ae0       ??_C@_0BF@HGBIDKLM@BOTH_SILENCEGESTURE1?$AA@ 20121ae0     bg_panimate.obj
 0002:00006af8       ??_C@_0BE@EEMNDGPF@BOTH_STEADYSELF1END?$AA@ 20121af8     bg_panimate.obj
 0002:00006b0c       ??_C@_0BB@BHOCMBMP@BOTH_STEADYSELF1?$AA@ 20121b0c     bg_panimate.obj
 0002:00006b20       ??_C@_0O@KHABGCAK@BOTH_COME_ON1?$AA@ 20121b20     bg_panimate.obj
 0002:00006b30       ??_C@_0BA@MHPGDDPE@BOTH_REACH1STOP?$AA@ 20121b30     bg_panimate.obj
 0002:00006b40       ??_C@_0BB@IHJLPLDL@BOTH_REACH1START?$AA@ 20121b40     bg_panimate.obj
 0002:00006b54       ??_C@_0BH@KHIEGBCO@BOTH_SIT2HEADTILTLSTOP?$AA@ 20121b54     bg_panimate.obj
 0002:00006b6c       ??_C@_0BI@OBPNLCKD@BOTH_SIT2HEADTILTLSTART?$AA@ 20121b6c     bg_panimate.obj
 0002:00006b84       ??_C@_0P@DFINNNBF@BOTH_HEADSHAKE?$AA@ 20121b84     bg_panimate.obj
 0002:00006b94       ??_C@_0N@JGGIBJHN@BOTH_HEADNOD?$AA@ 20121b94     bg_panimate.obj
 0002:00006ba4       ??_C@_0BD@CBEOFNED@BOTH_HEADTILTRSTOP?$AA@ 20121ba4     bg_panimate.obj
 0002:00006bb8       ??_C@_0BE@NCHIGFHK@BOTH_HEADTILTRSTART?$AA@ 20121bb8     bg_panimate.obj
 0002:00006bcc       ??_C@_0BD@BIJCDOKI@BOTH_HEADTILTLSTOP?$AA@ 20121bcc     bg_panimate.obj
 0002:00006be0       ??_C@_0BE@OFJJICOJ@BOTH_HEADTILTLSTART?$AA@ 20121be0     bg_panimate.obj
 0002:00006bf4       ??_C@_0BC@HDFGDEIC@BOTH_TALKGESTURE1?$AA@ 20121bf4     bg_panimate.obj
 0002:00006c08       ??_C@_0BD@KGADCINA@BOTH_TALKCOMM1STOP?$AA@ 20121c08     bg_panimate.obj
 0002:00006c1c       ??_C@_0P@IMEACJDE@BOTH_TALKCOMM1?$AA@ 20121c1c     bg_panimate.obj
 0002:00006c2c       ??_C@_0BE@LLPJOKPB@BOTH_TALKCOMM1START?$AA@ 20121c2c     bg_panimate.obj
 0002:00006c40       ??_C@_0L@MHEHAIKB@BOTH_TALK2?$AA@ 20121c40     bg_panimate.obj
 0002:00006c4c       ??_C@_0L@OMGKFLGC@BOTH_TALK1?$AA@ 20121c4c     bg_panimate.obj
 0002:00006c58       ??_C@_0BE@OAMCANFF@BOTH_WALK1TALKCOMM1?$AA@ 20121c58     bg_panimate.obj
 0002:00006c6c       ??_C@_0O@FLPNDCKC@BOTH_GESTURE2?$AA@ 20121c6c     bg_panimate.obj
 0002:00006c7c       ??_C@_0O@HANAGBGB@BOTH_GESTURE1?$AA@ 20121c7c     bg_panimate.obj
 0002:00006c8c       ??_C@_0BB@LLGPJFGM@BOTH_GUARD_IDLE1?$AA@ 20121c8c     bg_panimate.obj
 0002:00006ca0       ??_C@_0BH@IIALJNIM@BOTH_GUARD_LOOKAROUND1?$AA@ 20121ca0     bg_panimate.obj
 0002:00006cb8       ??_C@_0BJ@PHBEHMKF@BOTH_CONSOLE2HOLDCOMSTOP?$AA@ 20121cb8     bg_panimate.obj
 0002:00006cd4       ??_C@_0BK@JLMHHIBG@BOTH_CONSOLE2HOLDCOMSTART?$AA@ 20121cd4     bg_panimate.obj
 0002:00006cf0       ??_C@_0BC@JKGILGAP@BOTH_CONSOLE2STOP?$AA@ 20121cf0     bg_panimate.obj
 0002:00006d04       ??_C@_0O@BGELBNFP@BOTH_CONSOLE2?$AA@ 20121d04     bg_panimate.obj
 0002:00006d14       ??_C@_0BD@KNKJEOCK@BOTH_CONSOLE2START?$AA@ 20121d14     bg_panimate.obj
 0002:00006d28       ??_C@_0BC@BMPMMEKB@BOTH_CONSOLE1STOP?$AA@ 20121d28     bg_panimate.obj
 0002:00006d3c       ??_C@_0O@DNGGEOJM@BOTH_CONSOLE1?$AA@ 20121d3c     bg_panimate.obj
 0002:00006d4c       ??_C@_0BD@JMEBFELH@BOTH_CONSOLE1START?$AA@ 20121d4c     bg_panimate.obj
 0002:00006d60       ??_C@_0BL@HDGAEFLK@BOTH_STAND5LOOK180LEFTSTOP?$AA@ 20121d60     bg_panimate.obj
 0002:00006d7c       ??_C@_0BM@BGELABNK@BOTH_STAND5LOOK180LEFTSTART?$AA@ 20121d7c     bg_panimate.obj
 0002:00006d98       ??_C@_0BJ@HFICOBLF@BOTH_STAND5TURNRIGHTSTOP?$AA@ 20121d98     bg_panimate.obj
 0002:00006db4       ??_C@_0BK@IGPCPOOP@BOTH_STAND5TURNRIGHTSTART?$AA@ 20121db4     bg_panimate.obj
 0002:00006dd0       ??_C@_0BI@JADJJLGI@BOTH_STAND5TURNLEFTSTOP?$AA@ 20121dd0     bg_panimate.obj
 0002:00006de8       ??_C@_0BJ@HOHFOLPM@BOTH_STAND5TURNLEFTSTART?$AA@ 20121de8     bg_panimate.obj
 0002:00006e04       ??_C@_0BL@EHCDGJJ@BOTH_STAND5SHIFTWEIGHTSTOP?$AA@ 20121e04     bg_panimate.obj
 0002:00006e20       ??_C@_0BM@LEFLGCNL@BOTH_STAND5SHIFTWEIGHTSTART?$AA@ 20121e20     bg_panimate.obj
 0002:00006e3c       ??_C@_0BH@LKALMHBN@BOTH_STAND5SHIFTWEIGHT?$AA@ 20121e3c     bg_panimate.obj
 0002:00006e54       ??_C@_0BB@NHGNFEJF@BOTH_STAND9IDLE1?$AA@ 20121e54     bg_panimate.obj
 0002:00006e68       ??_C@_0M@KGBMNEAL@BOTH_STAND9?$AA@ 20121e68     bg_panimate.obj
 0002:00006e74       ??_C@_0BE@PHIMDIEF@BOTH_STAND8TOSTAND5?$AA@ 20121e74     bg_panimate.obj
 0002:00006e88       ??_C@_0BE@LDCJBNIF@BOTH_STAND7TOSTAND8?$AA@ 20121e88     bg_panimate.obj
 0002:00006e9c       ??_C@_0BE@LHNMMNLI@BOTH_STAND5TOSTAND8?$AA@ 20121e9c     bg_panimate.obj
 0002:00006eb0       ??_C@_0BO@JCPBABCF@BOTH_STARTLEDLOOKLEFTTOSTAND5?$AA@ 20121eb0     bg_panimate.obj
 0002:00006ed0       ??_C@_0BM@LKMKNIB@BOTH_STAND5STARTLEDLOOKLEFT?$AA@ 20121ed0     bg_panimate.obj
 0002:00006eec       ??_C@_0BB@KAKPAJPG@BOTH_STAND5TOAIM?$AA@ 20121eec     bg_panimate.obj
 0002:00006f00       ??_C@_0BE@GGBOHGPB@BOTH_STAND5TOSTAND1?$AA@ 20121f00     bg_panimate.obj
 0002:00006f14       ??_C@_0BE@LJJBDIP@BOTH_STAND1TOSTAND5?$AA@ 20121f14     bg_panimate.obj
 0002:00006f28       ??_C@_0BC@KJMCMBAN@BOTH_STAND5TOSIT3?$AA@ 20121f28     bg_panimate.obj
 0002:00006f3c       ??_C@_0O@JCHGFLGA@BOTH_STANDUP2?$AA@ 20121f3c     bg_panimate.obj
 0002:00006f4c       ??_C@_0BF@MNEGLANN@BOTH_STAND4TOATTACK2?$AA@ 20121f4c     bg_panimate.obj
 0002:00006f64       ??_C@_0P@NHEJHBNL@BOTH_STAND4TO2?$AA@ 20121f64     bg_panimate.obj
 0002:00006f74       ??_C@_0P@OFDCDPN@BOTH_STAND2TO4?$AA@ 20121f74     bg_panimate.obj
 0002:00006f84       ??_C@_0P@HDCENHLI@BOTH_STAND2TO1?$AA@ 20121f84     bg_panimate.obj
 0002:00006f94       ??_C@_0P@BPKJPOKL@BOTH_STAND1TO2?$AA@ 20121f94     bg_panimate.obj
 0002:00006fa4       ??_C@_0M@LPAHOFEK@BOTH_STAND8?$AA@ 20121fa4     bg_panimate.obj
 0002:00006fb0       ??_C@_0M@CBIEMIME@BOTH_STAND6?$AA@ 20121fb0     bg_panimate.obj
 0002:00006fbc       ??_C@_0BB@BAMNDOOB@BOTH_STAND5IDLE1?$AA@ 20121fbc     bg_panimate.obj
 0002:00006fd0       ??_C@_0M@KKJJLAH@BOTH_STAND5?$AA@ 20121fd0     bg_panimate.obj
 0002:00006fdc       ??_C@_0M@BDLCKKEG@BOTH_STAND4?$AA@ 20121fdc     bg_panimate.obj
 0002:00006fe8       ??_C@_0BB@HDBNALNL@BOTH_STAND3IDLE1?$AA@ 20121fe8     bg_panimate.obj
 0002:00006ffc       ??_C@_0M@FMPDDMIB@BOTH_STAND3?$AA@ 20121ffc     bg_panimate.obj
 0002:00007008       ??_C@_0BB@POEHFDKM@BOTH_STAND2IDLE2?$AA@ 20122008     bg_panimate.obj
 0002:0000701c       ??_C@_0BB@NFGKAAGP@BOTH_STAND2IDLE1?$AA@ 2012201c     bg_panimate.obj
 0002:00007030       ??_C@_0M@EFOIANMA@BOTH_STAND2?$AA@ 20122030     bg_panimate.obj
 0002:0000703c       ??_C@_0BB@OEICBKPC@BOTH_STAND1IDLE1?$AA@ 2012203c     bg_panimate.obj
 0002:00007050       ??_C@_0M@GOMFFOAD@BOTH_STAND1?$AA@ 20122050     bg_panimate.obj
 0002:0000705c       ??_C@_0P@HNCGMPEI@BOTH_ROLL_STAB?$AA@ 2012205c     bg_panimate.obj
 0002:0000706c       ??_C@_0BA@PJPEDJMA@BOTH_A3_SPECIAL?$AA@ 2012206c     bg_panimate.obj
 0002:0000707c       ??_C@_0BA@BGDGFCPO@BOTH_A2_SPECIAL?$AA@ 2012207c     bg_panimate.obj
 0002:0000708c       ??_C@_0BA@PNABOJPN@BOTH_A1_SPECIAL?$AA@ 2012208c     bg_panimate.obj
 0002:0000709c       ??_C@_0BA@IPLCAALD@BOTH_A7_SOULCAL?$AA@ 2012209c     bg_panimate.obj
 0002:000070ac       ??_C@_0BF@JKDHMCK@BOTH_A6_SABERPROTECT?$AA@ 201220ac     bg_panimate.obj
 0002:000070c4       ??_C@_0BD@FCALGDP@BOTH_STABDOWN_DUAL?$AA@ 201220c4     bg_panimate.obj
 0002:000070d8       ??_C@_0BE@DOGEHLEN@BOTH_STABDOWN_STAFF?$AA@ 201220d8     bg_panimate.obj
 0002:000070ec       ??_C@_0O@FMNFAMJP@BOTH_STABDOWN?$AA@ 201220ec     bg_panimate.obj
 0002:000070fc       ??_C@_0BE@NCOEMLED@BOTH_PULLED_INAIR_F?$AA@ 201220fc     bg_panimate.obj
 0002:00007110       ??_C@_0BE@LGIIAOEH@BOTH_PULLED_INAIR_B?$AA@ 20122110     bg_panimate.obj
 0002:00007124       ??_C@_0BH@ENKMMKI@BOTH_PULL_IMPALE_SWING?$AA@ 20122124     bg_panimate.obj
 0002:0000713c       ??_C@_0BG@FJEBNIOP@BOTH_PULL_IMPALE_STAB?$AA@ 2012213c     bg_panimate.obj
 0002:00007154       ??_C@_0P@FKABGNIE@BOTH_FLIP_LAND?$AA@ 20122154     bg_panimate.obj
 0002:00007164       ??_C@_0BA@PECANCJM@BOTH_FLIP_HOLD7?$AA@ 20122164     bg_panimate.obj
 0002:00007174       ??_C@_0BC@OAEPKLIJ@BOTH_FLIP_ATTACK7?$AA@ 20122174     bg_panimate.obj
 0002:00007188       ??_C@_0BD@MBINELLK@BOTH_A7_KICK_L_AIR?$AA@ 20122188     bg_panimate.obj
 0002:0000719c       ??_C@_0BD@PIFBCIFB@BOTH_A7_KICK_R_AIR?$AA@ 2012219c     bg_panimate.obj
 0002:000071b0       ??_C@_0BD@PLIHCKMK@BOTH_A7_KICK_B_AIR?$AA@ 201221b0     bg_panimate.obj
 0002:000071c4       ??_C@_0BD@GABGGINM@BOTH_A7_KICK_F_AIR?$AA@ 201221c4     bg_panimate.obj
 0002:000071d8       ??_C@_0BA@CADMNHIP@BOTH_A7_KICK_RL?$AA@ 201221d8     bg_panimate.obj
 0002:000071e8       ??_C@_0BF@OPHCPADF@BOTH_A7_KICK_BF_STOP?$AA@ 201221e8     bg_panimate.obj
 0002:00007200       ??_C@_0BA@MGPFJMHF@BOTH_A7_KICK_BF?$AA@ 20122200     bg_panimate.obj
 0002:00007210       ??_C@_0P@DFCDAAIP@BOTH_A7_KICK_S?$AA@ 20122210     bg_panimate.obj
 0002:00007220       ??_C@_0P@PIHJAOBB@BOTH_A7_KICK_L?$AA@ 20122220     bg_panimate.obj
 0002:00007230       ??_C@_0P@CMDIDBMO@BOTH_A7_KICK_R?$AA@ 20122230     bg_panimate.obj
 0002:00007240       ??_C@_0P@GGPKCDJP@BOTH_A7_KICK_B?$AA@ 20122240     bg_panimate.obj
 0002:00007250       ??_C@_0P@CJGOGJL@BOTH_A7_KICK_F?$AA@ 20122250     bg_panimate.obj
 0002:00007260       ??_C@_0BM@OHENEONK@BOTH_FORCEWALLRELEASE_RIGHT?$AA@ 20122260     bg_panimate.obj
 0002:0000727c       ??_C@_0BL@BABFAMJB@BOTH_FORCEWALLRELEASE_BACK?$AA@ 2012227c     bg_panimate.obj
 0002:00007298       ??_C@_0BL@OLNGOJNC@BOTH_FORCEWALLRELEASE_LEFT?$AA@ 20122298     bg_panimate.obj
 0002:000072b4       ??_C@_0BO@FMNDOIKN@BOTH_FORCEWALLRELEASE_FORWARD?$AA@ 201222b4     bg_panimate.obj
 0002:000072d4       ??_C@_0BJ@CCJINKMK@BOTH_FORCEWALLHOLD_RIGHT?$AA@ 201222d4     bg_panimate.obj
 0002:000072f0       ??_C@_0BI@HPLKKCCJ@BOTH_FORCEWALLHOLD_BACK?$AA@ 201222f0     bg_panimate.obj
 0002:00007308       ??_C@_0BI@IEHJEHGK@BOTH_FORCEWALLHOLD_LEFT?$AA@ 20122308     bg_panimate.obj
 0002:00007320       ??_C@_0BL@OBHDGIHE@BOTH_FORCEWALLHOLD_FORWARD?$AA@ 20122320     bg_panimate.obj
 0002:0000733c       ??_C@_0BM@FDLDEBGK@BOTH_FORCEWALLREBOUND_RIGHT?$AA@ 2012233c     bg_panimate.obj
 0002:00007358       ??_C@_0BL@OFKEILGN@BOTH_FORCEWALLREBOUND_BACK?$AA@ 20122358     bg_panimate.obj
 0002:00007374       ??_C@_0BL@BOGHGOCO@BOTH_FORCEWALLREBOUND_LEFT?$AA@ 20122374     bg_panimate.obj
 0002:00007390       ??_C@_0BO@CIKJOPHK@BOTH_FORCEWALLREBOUND_FORWARD?$AA@ 20122390     bg_panimate.obj
 0002:000073b0       ??_C@_0BK@KJKIIGOD@BOTH_FORCEWALLRUNFLIP_ALT?$AA@ 201223b0     bg_panimate.obj
 0002:000073cc       ??_C@_0BK@GPIMNHIL@BOTH_FORCEWALLRUNFLIP_END?$AA@ 201223cc     bg_panimate.obj
 0002:000073e8       ??_C@_0BM@LJCOJFGC@BOTH_FORCEWALLRUNFLIP_START?$AA@ 201223e8     bg_panimate.obj
 0002:00007404       ??_C@_0BI@MHONAGNG@BOTH_FORCELONGLEAP_LAND?$AA@ 20122404     bg_panimate.obj
 0002:0000741c       ??_C@_0BK@HABCCIOP@BOTH_FORCELONGLEAP_ATTACK?$AA@ 2012241c     bg_panimate.obj
 0002:00007438       ??_C@_0BJ@KLOIGFJP@BOTH_FORCELONGLEAP_START?$AA@ 20122438     bg_panimate.obj
 0002:00007454       ??_C@_0L@NHGEHEAM@BOTH_S7_S1?$AA@ 20122454     bg_panimate.obj
 0002:00007460       ??_C@_0L@OHOCGCK@BOTH_S1_S7?$AA@ 20122460     bg_panimate.obj
 0002:0000746c       ??_C@_0L@OKAEFNLM@BOTH_S6_S1?$AA@ 2012246c     bg_panimate.obj
 0002:00007478       ??_C@_0L@BHGFBHGL@BOTH_S1_S6?$AA@ 20122478     bg_panimate.obj
 0002:00007484       ??_C@_0BB@KFONEAEN@BOTH_SPINATTACK7?$AA@ 20122484     bg_panimate.obj
 0002:00007498       ??_C@_0BB@LMPGHBAM@BOTH_SPINATTACK6?$AA@ 20122498     bg_panimate.obj
 0002:000074ac       ??_C@_0BB@CIOCACPL@BOTH_JUMPATTACK7?$AA@ 201224ac     bg_panimate.obj
 0002:000074c0       ??_C@_0BB@DBPJDDLK@BOTH_JUMPATTACK6?$AA@ 201224c0     bg_panimate.obj
 0002:000074d4       ??_C@_0BH@INLIBEMO@BOTH_CROUCHATTACKBACK1?$AA@ 201224d4     bg_panimate.obj
 0002:000074ec       ??_C@_0BC@BEBALKBG@BOTH_LUNGE2_B__T_?$AA@ 201224ec     bg_panimate.obj
 0002:00007500       ??_C@_0BG@CELCKDAN@BOTH_FORCELEAP2_T__B_?$AA@ 20122500     bg_panimate.obj
 0002:00007518       ??_C@_0BG@BFMBDODP@BOTH_JUMPFLIPSTABDOWN?$AA@ 20122518     bg_panimate.obj
 0002:00007530       ??_C@_0BI@HBGICLGG@BOTH_JUMPFLIPSLASHDOWN1?$AA@ 20122530     bg_panimate.obj
 0002:00007548       ??_C@_0BB@CBLKELKF@BOTH_ATTACK_BACK?$AA@ 20122548     bg_panimate.obj
 0002:0000755c       ??_C@_0BC@PILNDLJJ@BOTH_A2_STABBACK1?$AA@ 2012255c     bg_panimate.obj
 0002:00007570       ??_C@_0BH@BDCLHPPP@BOTH_SABERSTAFF_STANCE?$AA@ 20122570     bg_panimate.obj
 0002:00007588       ??_C@_0BG@HKMBABJH@BOTH_SABERDUAL_STANCE?$AA@ 20122588     bg_panimate.obj
 0002:000075a0       ??_C@_0BG@OHKGBDLF@BOTH_SABERSLOW_STANCE?$AA@ 201225a0     bg_panimate.obj
 0002:000075b8       ??_C@_0BG@LMJGJJPN@BOTH_SABERFAST_STANCE?$AA@ 201225b8     bg_panimate.obj
 0002:000075d0       ??_C@_0BD@KOAOCCAN@BOTH_CCWCIRCLELOCK?$AA@ 201225d0     bg_panimate.obj
 0002:000075e4       ??_C@_0BC@KJPAFMDI@BOTH_CWCIRCLELOCK?$AA@ 201225e4     bg_panimate.obj
 0002:000075f8       ??_C@_0BE@OHBEAMBI@BOTH_CCWCIRCLEBREAK?$AA@ 201225f8     bg_panimate.obj
 0002:0000760c       ??_C@_0BD@LBKADGEF@BOTH_CWCIRCLEBREAK?$AA@ 2012260c     bg_panimate.obj
 0002:00007620       ??_C@_0BI@CIMIIHDK@BOTH_CCWCIRCLE_A2__R__L?$AA@ 20122620     bg_panimate.obj
 0002:00007638       ??_C@_0BH@DBGDLJEC@BOTH_CWCIRCLE_A2__L__R?$AA@ 20122638     bg_panimate.obj
 0002:00007650       ??_C@_0BI@PBNOCOLC@BOTH_CCWCIRCLE_R2__L_S1?$AA@ 20122650     bg_panimate.obj
 0002:00007668       ??_C@_0BH@DMDECPBF@BOTH_CWCIRCLE_R2__R_S1?$AA@ 20122668     bg_panimate.obj
 0002:00007680       ??_C@_0N@DLCMNLOG@BOTH_BF1LOCK?$AA@ 20122680     bg_panimate.obj
 0002:00007690       ??_C@_0O@NAFJBFBB@BOTH_BF1BREAK?$AA@ 20122690     bg_panimate.obj
 0002:000076a0       ??_C@_0P@OMJLFDIE@BOTH_BF1RETURN?$AA@ 201226a0     bg_panimate.obj
 0002:000076b0       ??_C@_0N@LNLIKJEI@BOTH_BF2LOCK?$AA@ 201226b0     bg_panimate.obj
 0002:000076c0       ??_C@_0O@OBLBAPIM@BOTH_BF2BREAK?$AA@ 201226c0     bg_panimate.obj
 0002:000076d0       ??_C@_0P@GCBEFEGH@BOTH_BF2RETURN?$AA@ 201226d0     bg_panimate.obj
 0002:000076e0       ??_C@_0BE@DOCAGAEJ@BOTH_LK_ST_ST_T_L_2?$AA@ 201226e0     bg_panimate.obj
 0002:000076f4       ??_C@_0BE@CDCFFAPB@BOTH_LK_ST_ST_S_L_2?$AA@ 201226f4     bg_panimate.obj
 0002:00007708       ??_C@_0BE@DFGKEEJC@BOTH_LK_DL_DL_T_L_2?$AA@ 20122708     bg_panimate.obj
 0002:0000771c       ??_C@_0BE@CIGPHECK@BOTH_LK_DL_DL_S_L_2?$AA@ 2012271c     bg_panimate.obj
 0002:00007730       ??_C@_0BC@NOIODFFL@BOTH_LK_S_S_T_L_2?$AA@ 20122730     bg_panimate.obj
 0002:00007744       ??_C@_0BC@MDILAFOD@BOTH_LK_S_S_S_L_2?$AA@ 20122744     bg_panimate.obj
 0002:00007758       ??_C@_0BG@DGNDNELM@BOTH_LK_ST_S_T_SB_1_W?$AA@ 20122758     bg_panimate.obj
 0002:00007770       ??_C@_0BG@JPOFBPCG@BOTH_LK_ST_S_T_SB_1_L?$AA@ 20122770     bg_panimate.obj
 0002:00007788       ??_C@_0BD@DOGCPFDO@BOTH_LK_ST_S_T_L_1?$AA@ 20122788     bg_panimate.obj
 0002:0000779c       ??_C@_0BF@CEACOAOC@BOTH_LK_ST_S_T_B_1_W?$AA@ 2012279c     bg_panimate.obj
 0002:000077b4       ??_C@_0BF@INDECLHI@BOTH_LK_ST_S_T_B_1_L?$AA@ 201227b4     bg_panimate.obj
 0002:000077cc       ??_C@_0BG@FCLCLJHF@BOTH_LK_ST_S_S_SB_1_W?$AA@ 201227cc     bg_panimate.obj
 0002:000077e4       ??_C@_0BG@PLIEHCOP@BOTH_LK_ST_S_S_SB_1_L?$AA@ 201227e4     bg_panimate.obj
 0002:000077fc       ??_C@_0BD@CDGHMFIG@BOTH_LK_ST_S_S_L_1?$AA@ 201227fc     bg_panimate.obj
 0002:00007810       ??_C@_0BF@COMHOJPL@BOTH_LK_ST_S_S_B_1_W?$AA@ 20122810     bg_panimate.obj
 0002:00007828       ??_C@_0BF@IHPBCCGB@BOTH_LK_ST_S_S_B_1_L?$AA@ 20122828     bg_panimate.obj
 0002:00007840       ??_C@_0BH@LECJIOFK@BOTH_LK_ST_ST_T_SB_1_W?$AA@ 20122840     bg_panimate.obj
 0002:00007858       ??_C@_0BH@BNBPEFMA@BOTH_LK_ST_ST_T_SB_1_L?$AA@ 20122858     bg_panimate.obj
 0002:00007870       ??_C@_0BE@BFANDDIK@BOTH_LK_ST_ST_T_L_1?$AA@ 20122870     bg_panimate.obj
 0002:00007884       ??_C@_0BG@NGKMMHLE@BOTH_LK_ST_ST_T_B_1_W?$AA@ 20122884     bg_panimate.obj
 0002:0000789c       ??_C@_0BG@HPJKAMCO@BOTH_LK_ST_ST_T_B_1_L?$AA@ 2012289c     bg_panimate.obj
 0002:000078b4       ??_C@_0BH@NAEIODJD@BOTH_LK_ST_ST_S_SB_1_W?$AA@ 201228b4     bg_panimate.obj
 0002:000078cc       ??_C@_0BH@HJHOCIAJ@BOTH_LK_ST_ST_S_SB_1_L?$AA@ 201228cc     bg_panimate.obj
 0002:000078e4       ??_C@_0BE@IAIADDC@BOTH_LK_ST_ST_S_L_1?$AA@ 201228e4     bg_panimate.obj
 0002:000078f8       ??_C@_0BG@NMGJMOKN@BOTH_LK_ST_ST_S_B_1_W?$AA@ 201228f8     bg_panimate.obj
 0002:00007910       ??_C@_0BG@HFFPAFDH@BOTH_LK_ST_ST_S_B_1_L?$AA@ 20122910     bg_panimate.obj
 0002:00007928       ??_C@_0BH@NIJMKPKH@BOTH_LK_ST_DL_T_SB_1_W?$AA@ 20122928     bg_panimate.obj
 0002:00007940       ??_C@_0BH@HBKKGEDN@BOTH_LK_ST_DL_T_SB_1_L?$AA@ 20122940     bg_panimate.obj
 0002:00007958       ??_C@_0BE@HCPCDGKM@BOTH_LK_ST_DL_T_L_1?$AA@ 20122958     bg_panimate.obj
 0002:0000796c       ??_C@_0BG@GFBINHOA@BOTH_LK_ST_DL_T_B_1_W?$AA@ 2012296c     bg_panimate.obj
 0002:00007984       ??_C@_0BG@MMCOBMHK@BOTH_LK_ST_DL_T_B_1_L?$AA@ 20122984     bg_panimate.obj
 0002:0000799c       ??_C@_0BH@LMPNMCGO@BOTH_LK_ST_DL_S_SB_1_W?$AA@ 2012299c     bg_panimate.obj
 0002:000079b4       ??_C@_0BH@BFMLAJPE@BOTH_LK_ST_DL_S_SB_1_L?$AA@ 201229b4     bg_panimate.obj
 0002:000079cc       ??_C@_0BE@GPPHAGBE@BOTH_LK_ST_DL_S_L_1?$AA@ 201229cc     bg_panimate.obj
 0002:000079e0       ??_C@_0BG@GPNNNOPJ@BOTH_LK_ST_DL_S_B_1_W?$AA@ 201229e0     bg_panimate.obj
 0002:000079f8       ??_C@_0BG@MGOLBFGD@BOTH_LK_ST_DL_S_B_1_L?$AA@ 201229f8     bg_panimate.obj
 0002:00007a10       ??_C@_0BG@NLKIDHKH@BOTH_LK_DL_S_T_SB_1_W?$AA@ 20122a10     bg_panimate.obj
 0002:00007a28       ??_C@_0BG@HCJOPMDN@BOTH_LK_DL_S_T_SB_1_L?$AA@ 20122a28     bg_panimate.obj
 0002:00007a40       ??_C@_0BD@INNGOFGK@BOTH_LK_DL_S_T_L_1?$AA@ 20122a40     bg_panimate.obj
 0002:00007a54       ??_C@_0BF@OHGCNLGC@BOTH_LK_DL_S_T_B_1_W?$AA@ 20122a54     bg_panimate.obj
 0002:00007a6c       ??_C@_0BF@EOFEBAPI@BOTH_LK_DL_S_T_B_1_L?$AA@ 20122a6c     bg_panimate.obj
 0002:00007a84       ??_C@_0BG@LPMJFKGO@BOTH_LK_DL_S_S_SB_1_W?$AA@ 20122a84     bg_panimate.obj
 0002:00007a9c       ??_C@_0BG@BGPPJBPE@BOTH_LK_DL_S_S_SB_1_L?$AA@ 20122a9c     bg_panimate.obj
 0002:00007ab4       ??_C@_0BD@JANDNFNC@BOTH_LK_DL_S_S_L_1?$AA@ 20122ab4     bg_panimate.obj
 0002:00007ac8       ??_C@_0BF@ONKHNCHL@BOTH_LK_DL_S_S_B_1_W?$AA@ 20122ac8     bg_panimate.obj
 0002:00007ae0       ??_C@_0BF@EEJBBJOB@BOTH_LK_DL_S_S_B_1_L?$AA@ 20122ae0     bg_panimate.obj
 0002:00007af8       ??_C@_0BH@DOKBDMFF@BOTH_LK_DL_ST_T_SB_1_W?$AA@ 20122af8     bg_panimate.obj
 0002:00007b10       ??_C@_0BH@JHJHPHMP@BOTH_LK_DL_ST_T_SB_1_L?$AA@ 20122b10     bg_panimate.obj
 0002:00007b28       ??_C@_0BE@HJLIBCHH@BOTH_LK_DL_ST_T_L_1?$AA@ 20122b28     bg_panimate.obj
 0002:00007b3c       ??_C@_0BG@DLNHCEKP@BOTH_LK_DL_ST_T_B_1_W?$AA@ 20122b3c     bg_panimate.obj
 0002:00007b54       ??_C@_0BG@JCOBOPDF@BOTH_LK_DL_ST_T_B_1_L?$AA@ 20122b54     bg_panimate.obj
 0002:00007b6c       ??_C@_0BH@FKMAFBJM@BOTH_LK_DL_ST_S_SB_1_W?$AA@ 20122b6c     bg_panimate.obj
 0002:00007b84       ??_C@_0BH@PDPGJKAG@BOTH_LK_DL_ST_S_SB_1_L?$AA@ 20122b84     bg_panimate.obj
 0002:00007b9c       ??_C@_0BE@GELNCCMP@BOTH_LK_DL_ST_S_L_1?$AA@ 20122b9c     bg_panimate.obj
 0002:00007bb0       ??_C@_0BG@DBBCCNLG@BOTH_LK_DL_ST_S_B_1_W?$AA@ 20122bb0     bg_panimate.obj
 0002:00007bc8       ??_C@_0BG@JICEOGCM@BOTH_LK_DL_ST_S_B_1_L?$AA@ 20122bc8     bg_panimate.obj
 0002:00007be0       ??_C@_0BH@FCBEBNKI@BOTH_LK_DL_DL_T_SB_1_W?$AA@ 20122be0     bg_panimate.obj
 0002:00007bf8       ??_C@_0BH@PLCCNGDC@BOTH_LK_DL_DL_T_SB_1_L?$AA@ 20122bf8     bg_panimate.obj
 0002:00007c10       ??_C@_0BE@BOEHBHFB@BOTH_LK_DL_DL_T_L_1?$AA@ 20122c10     bg_panimate.obj
 0002:00007c24       ??_C@_0BG@IIGDDEPL@BOTH_LK_DL_DL_T_B_1_W?$AA@ 20122c24     bg_panimate.obj
 0002:00007c3c       ??_C@_0BG@CBFFPPGB@BOTH_LK_DL_DL_T_B_1_L?$AA@ 20122c3c     bg_panimate.obj
 0002:00007c54       ??_C@_0BH@DGHFHAGB@BOTH_LK_DL_DL_S_SB_1_W?$AA@ 20122c54     bg_panimate.obj
 0002:00007c6c       ??_C@_0BH@JPEDLLPL@BOTH_LK_DL_DL_S_SB_1_L?$AA@ 20122c6c     bg_panimate.obj
 0002:00007c84       ??_C@_0BE@DECCHOJ@BOTH_LK_DL_DL_S_L_1?$AA@ 20122c84     bg_panimate.obj
 0002:00007c98       ??_C@_0BG@ICKGDNOC@BOTH_LK_DL_DL_S_B_1_W?$AA@ 20122c98     bg_panimate.obj
 0002:00007cb0       ??_C@_0BG@CLJAPGHI@BOTH_LK_DL_DL_S_B_1_L?$AA@ 20122cb0     bg_panimate.obj
 0002:00007cc8       ??_C@_0BF@FNCJNOFK@BOTH_LK_S_S_T_SB_1_W?$AA@ 20122cc8     bg_panimate.obj
 0002:00007ce0       ??_C@_0BF@PEBPBFMA@BOTH_LK_S_S_T_SB_1_L?$AA@ 20122ce0     bg_panimate.obj
 0002:00007cf8       ??_C@_0BC@PFKDGGJI@BOTH_LK_S_S_T_L_1?$AA@ 20122cf8     bg_panimate.obj
 0002:00007d0c       ??_C@_0BE@LFFJPCLC@BOTH_LK_S_S_T_B_1_W?$AA@ 20122d0c     bg_panimate.obj
 0002:00007d20       ??_C@_0BE@BMGPDJCI@BOTH_LK_S_S_T_B_1_L?$AA@ 20122d20     bg_panimate.obj
 0002:00007d34       ??_C@_0BF@DJEILDJD@BOTH_LK_S_S_S_SB_1_W?$AA@ 20122d34     bg_panimate.obj
 0002:00007d4c       ??_C@_0BF@JAHOHIAJ@BOTH_LK_S_S_S_SB_1_L?$AA@ 20122d4c     bg_panimate.obj
 0002:00007d64       ??_C@_0BC@OIKGFGCA@BOTH_LK_S_S_S_L_1?$AA@ 20122d64     bg_panimate.obj
 0002:00007d78       ??_C@_0BE@LPJMPLKL@BOTH_LK_S_S_S_B_1_W?$AA@ 20122d78     bg_panimate.obj
 0002:00007d8c       ??_C@_0BE@BGKKDADB@BOTH_LK_S_S_S_B_1_L?$AA@ 20122d8c     bg_panimate.obj
 0002:00007da0       ??_C@_0BG@PNCLDDBN@BOTH_LK_S_ST_T_SB_1_W?$AA@ 20122da0     bg_panimate.obj
 0002:00007db8       ??_C@_0BG@FEBNPIIH@BOTH_LK_S_ST_T_SB_1_L?$AA@ 20122db8     bg_panimate.obj
 0002:00007dd0       ??_C@_0BD@CKHDPEME@BOTH_LK_S_ST_T_L_1?$AA@ 20122dd0     bg_panimate.obj
 0002:00007de4       ??_C@_0BF@LNFGMNFC@BOTH_LK_S_ST_T_B_1_W?$AA@ 20122de4     bg_panimate.obj
 0002:00007dfc       ??_C@_0BF@BEGAAGMI@BOTH_LK_S_ST_T_B_1_L?$AA@ 20122dfc     bg_panimate.obj
 0002:00007e14       ??_C@_0BG@JJEKFONE@BOTH_LK_S_ST_S_SB_1_W?$AA@ 20122e14     bg_panimate.obj
 0002:00007e2c       ??_C@_0BG@DAHMJFEO@BOTH_LK_S_ST_S_SB_1_L?$AA@ 20122e2c     bg_panimate.obj
 0002:00007e44       ??_C@_0BD@DHHGMEHM@BOTH_LK_S_ST_S_L_1?$AA@ 20122e44     bg_panimate.obj
 0002:00007e58       ??_C@_0BF@LHJDMEEL@BOTH_LK_S_ST_S_B_1_W?$AA@ 20122e58     bg_panimate.obj
 0002:00007e70       ??_C@_0BF@BOKFAPNB@BOTH_LK_S_ST_S_B_1_L?$AA@ 20122e70     bg_panimate.obj
 0002:00007e88       ??_C@_0BG@JBJOBCOA@BOTH_LK_S_DL_T_SB_1_W?$AA@ 20122e88     bg_panimate.obj
 0002:00007ea0       ??_C@_0BG@DIKINJHK@BOTH_LK_S_DL_T_SB_1_L?$AA@ 20122ea0     bg_panimate.obj
 0002:00007eb8       ??_C@_0BD@ENIMPBOC@BOTH_LK_S_DL_T_L_1?$AA@ 20122eb8     bg_panimate.obj
 0002:00007ecc       ??_C@_0BF@OOCNNAG@BOTH_LK_S_DL_T_B_1_W?$AA@ 20122ecc     bg_panimate.obj
 0002:00007ee4       ??_C@_0BF@KHNEBGJM@BOTH_LK_S_DL_T_B_1_L?$AA@ 20122ee4     bg_panimate.obj
 0002:00007efc       ??_C@_0BG@PFPPHPCJ@BOTH_LK_S_DL_S_SB_1_W?$AA@ 20122efc     bg_panimate.obj
 0002:00007f14       ??_C@_0BG@FMMJLELD@BOTH_LK_S_DL_S_SB_1_L?$AA@ 20122f14     bg_panimate.obj
 0002:00007f2c       ??_C@_0BD@FAIJMBFK@BOTH_LK_S_DL_S_L_1?$AA@ 20122f2c     bg_panimate.obj
 0002:00007f40       ??_C@_0BF@ECHNEBP@BOTH_LK_S_DL_S_B_1_W?$AA@ 20122f40     bg_panimate.obj
 0002:00007f58       ??_C@_0BF@KNBBBPIF@BOTH_LK_S_DL_S_B_1_L?$AA@ 20122f58     bg_panimate.obj
 0002:00007f70       ??_C@_0O@MBLOLAIA@BOTH_H7_S7_BR?$AA@ 20122f70     bg_panimate.obj
 0002:00007f80       ??_C@_0O@HEBAMOMN@BOTH_H7_S7_B_?$AA@ 20122f80     bg_panimate.obj
 0002:00007f90       ??_C@_0O@BFPPIPFP@BOTH_H7_S7_BL?$AA@ 20122f90     bg_panimate.obj
 0002:00007fa0       ??_C@_0O@NFEFAJN@BOTH_H7_S7_TL?$AA@ 20122fa0     bg_panimate.obj
 0002:00007fb0       ??_C@_0O@NJBFGPEC@BOTH_H7_S7_TR?$AA@ 20122fb0     bg_panimate.obj
 0002:00007fc0       ??_C@_0O@GMLLBBAP@BOTH_H7_S7_T_?$AA@ 20122fc0     bg_panimate.obj
 0002:00007fd0       ??_C@_0O@MBBKJCHE@BOTH_V7_B__S7?$AA@ 20122fd0     bg_panimate.obj
 0002:00007fe0       ??_C@_0O@OGFKHPCG@BOTH_V7_BL_S7?$AA@ 20122fe0     bg_panimate.obj
 0002:00007ff0       ??_C@_0O@FJBCGOGD@BOTH_V7__L_S7?$AA@ 20122ff0     bg_panimate.obj
 0002:00008000       ??_C@_0O@DDNFJOKA@BOTH_V7_TL_S7?$AA@ 20123000     bg_panimate.obj
 0002:00008010       ??_C@_0O@BEJFHDPC@BOTH_V7_T__S7?$AA@ 20123010     bg_panimate.obj
 0002:00008020       ??_C@_0O@OMAFLHED@BOTH_V7_TR_S7?$AA@ 20123020     bg_panimate.obj
 0002:00008030       ??_C@_0O@IGMCEHIA@BOTH_V7__R_S7?$AA@ 20123030     bg_panimate.obj
 0002:00008040       ??_C@_0O@DJIKFGMF@BOTH_V7_BR_S7?$AA@ 20123040     bg_panimate.obj
 0002:00008050       ??_C@_0O@PIDDIMEF@BOTH_K7_S7_BR?$AA@ 20123050     bg_panimate.obj
 0002:00008060       ??_C@_0O@ENJNPCAI@BOTH_K7_S7_B_?$AA@ 20123060     bg_panimate.obj
 0002:00008070       ??_C@_0O@CMHCLDJK@BOTH_K7_S7_BL?$AA@ 20123070     bg_panimate.obj
 0002:00008080       ??_C@_0O@DENJGMFI@BOTH_K7_S7_TL?$AA@ 20123080     bg_panimate.obj
 0002:00008090       ??_C@_0O@OAJIFDIH@BOTH_K7_S7_TR?$AA@ 20123090     bg_panimate.obj
 0002:000080a0       ??_C@_0O@FFDGCNMK@BOTH_K7_S7_T_?$AA@ 201230a0     bg_panimate.obj
 0002:000080b0       ??_C@_0O@NGKGFAOJ@BOTH_P7_S7_BR?$AA@ 201230b0     bg_panimate.obj
 0002:000080c0       ??_C@_0O@COHGPDG@BOTH_P7_S7_BL?$AA@ 201230c0     bg_panimate.obj
 0002:000080d0       ??_C@_0O@BKEMLAPE@BOTH_P7_S7_TL?$AA@ 201230d0     bg_panimate.obj
 0002:000080e0       ??_C@_0O@MOANIPCL@BOTH_P7_S7_TR?$AA@ 201230e0     bg_panimate.obj
 0002:000080f0       ??_C@_0O@HLKDPBGG@BOTH_P7_S7_T_?$AA@ 201230f0     bg_panimate.obj
 0002:00008100       ??_C@_0O@DAHEJJKO@BOTH_H6_S6_BR?$AA@ 20123100     bg_panimate.obj
 0002:00008110       ??_C@_0O@IFNKOHOD@BOTH_H6_S6_B_?$AA@ 20123110     bg_panimate.obj
 0002:00008120       ??_C@_0O@OEDFKGHB@BOTH_H6_S6_BL?$AA@ 20123120     bg_panimate.obj
 0002:00008130       ??_C@_0O@PMJOHJLD@BOTH_H6_S6_TL?$AA@ 20123130     bg_panimate.obj
 0002:00008140       ??_C@_0O@CINPEGGM@BOTH_H6_S6_TR?$AA@ 20123140     bg_panimate.obj
 0002:00008150       ??_C@_0O@JNHBDICB@BOTH_H6_S6_T_?$AA@ 20123150     bg_panimate.obj
 0002:00008160       ??_C@_0O@BEKLKDKL@BOTH_V6_B__S6?$AA@ 20123160     bg_panimate.obj
 0002:00008170       ??_C@_0O@DDOLEOPJ@BOTH_V6_BL_S6?$AA@ 20123170     bg_panimate.obj
 0002:00008180       ??_C@_0O@IMKDFPLM@BOTH_V6__L_S6?$AA@ 20123180     bg_panimate.obj
 0002:00008190       ??_C@_0O@OGGEKPHP@BOTH_V6_TL_S6?$AA@ 20123190     bg_panimate.obj
 0002:000081a0       ??_C@_0O@MBCEECCN@BOTH_V6_T__S6?$AA@ 201231a0     bg_panimate.obj
 0002:000081b0       ??_C@_0O@DJLEIGJM@BOTH_V6_TR_S6?$AA@ 201231b0     bg_panimate.obj
 0002:000081c0       ??_C@_0O@FDHDHGFP@BOTH_V6__R_S6?$AA@ 201231c0     bg_panimate.obj
 0002:000081d0       ??_C@_0O@OMDLGHBK@BOTH_V6_BR_S6?$AA@ 201231d0     bg_panimate.obj
 0002:000081e0       ??_C@_0O@JPJKFGL@BOTH_K6_S6_BR?$AA@ 201231e0     bg_panimate.obj
 0002:000081f0       ??_C@_0O@LMFHNLCG@BOTH_K6_S6_B_?$AA@ 201231f0     bg_panimate.obj
 0002:00008200       ??_C@_0O@NNLIJKLE@BOTH_K6_S6_BL?$AA@ 20123200     bg_panimate.obj
 0002:00008210       ??_C@_0O@MFBDEFHG@BOTH_K6_S6_TL?$AA@ 20123210     bg_panimate.obj
 0002:00008220       ??_C@_0O@BBFCHKKJ@BOTH_K6_S6_TR?$AA@ 20123220     bg_panimate.obj
 0002:00008230       ??_C@_0O@KEPMAEOE@BOTH_K6_S6_T_?$AA@ 20123230     bg_panimate.obj
 0002:00008240       ??_C@_0O@CHGMHJMH@BOTH_P6_S6_BR?$AA@ 20123240     bg_panimate.obj
 0002:00008250       ??_C@_0O@PDCNEGBI@BOTH_P6_S6_BL?$AA@ 20123250     bg_panimate.obj
 0002:00008260       ??_C@_0O@OLIGJJNK@BOTH_P6_S6_TL?$AA@ 20123260     bg_panimate.obj
 0002:00008270       ??_C@_0O@DPMHKGAF@BOTH_P6_S6_TR?$AA@ 20123270     bg_panimate.obj
 0002:00008280       ??_C@_0O@IKGJNIEI@BOTH_P6_S6_T_?$AA@ 20123280     bg_panimate.obj
 0002:00008290       ??_C@_0O@IIJBEMKH@BOTH_H1_S1_BR?$AA@ 20123290     bg_panimate.obj
 0002:000082a0       ??_C@_0O@DNDPDCOK@BOTH_H1_S1_B_?$AA@ 201232a0     bg_panimate.obj
 0002:000082b0       ??_C@_0O@FMNAHDHI@BOTH_H1_S1_BL?$AA@ 201232b0     bg_panimate.obj
 0002:000082c0       ??_C@_0O@EEHLKMLK@BOTH_H1_S1_TL?$AA@ 201232c0     bg_panimate.obj
 0002:000082d0       ??_C@_0O@JADKJDGF@BOTH_H1_S1_TR?$AA@ 201232d0     bg_panimate.obj
 0002:000082e0       ??_C@_0O@CFJEONCI@BOTH_H1_S1_T_?$AA@ 201232e0     bg_panimate.obj
 0002:000082f0       ??_C@_0O@FBCPDMHF@BOTH_V1_B__S1?$AA@ 201232f0     bg_panimate.obj
 0002:00008300       ??_C@_0O@HGGPNBCH@BOTH_V1_BL_S1?$AA@ 20123300     bg_panimate.obj
 0002:00008310       ??_C@_0O@MJCHMAGC@BOTH_V1__L_S1?$AA@ 20123310     bg_panimate.obj
 0002:00008320       ??_C@_0O@KDOADAKB@BOTH_V1_TL_S1?$AA@ 20123320     bg_panimate.obj
 0002:00008330       ??_C@_0O@IEKANNPD@BOTH_V1_T__S1?$AA@ 20123330     bg_panimate.obj
 0002:00008340       ??_C@_0O@HMDABJEC@BOTH_V1_TR_S1?$AA@ 20123340     bg_panimate.obj
 0002:00008350       ??_C@_0O@BGPHOJIB@BOTH_V1__R_S1?$AA@ 20123350     bg_panimate.obj
 0002:00008360       ??_C@_0O@KJLPPIME@BOTH_V1_BR_S1?$AA@ 20123360     bg_panimate.obj
 0002:00008370       ??_C@_0O@LBBMHAGC@BOTH_K1_S1_BR?$AA@ 20123370     bg_panimate.obj
 0002:00008380       ??_C@_0O@ELCAOCP@BOTH_K1_S1_B_?$AA@ 20123380     bg_panimate.obj
 0002:00008390       ??_C@_0O@GFFNEPLN@BOTH_K1_S1_BL?$AA@ 20123390     bg_panimate.obj
 0002:000083a0       ??_C@_0O@HNPGJAHP@BOTH_K1_S1_TL?$AA@ 201233a0     bg_panimate.obj
 0002:000083b0       ??_C@_0O@KJLHKPKA@BOTH_K1_S1_TR?$AA@ 201233b0     bg_panimate.obj
 0002:000083c0       ??_C@_0O@BMBJNBON@BOTH_K1_S1_T_?$AA@ 201233c0     bg_panimate.obj
 0002:000083d0       ??_C@_0O@JPIJKMMO@BOTH_P1_S1_BR?$AA@ 201233d0     bg_panimate.obj
 0002:000083e0       ??_C@_0O@ELMIJDBB@BOTH_P1_S1_BL?$AA@ 201233e0     bg_panimate.obj
 0002:000083f0       ??_C@_0O@FDGDEMND@BOTH_P1_S1_TL?$AA@ 201233f0     bg_panimate.obj
 0002:00008400       ??_C@_0O@IHCCHDAM@BOTH_P1_S1_TR?$AA@ 20123400     bg_panimate.obj
 0002:00008410       ??_C@_0O@DCIMANEB@BOTH_P1_S1_T_?$AA@ 20123410     bg_panimate.obj
 0002:00008420       ??_C@_0O@OHBCOAEI@BOTH_D7_B____?$AA@ 20123420     bg_panimate.obj
 0002:00008430       ??_C@_0O@MAFCANBK@BOTH_D7_BL___?$AA@ 20123430     bg_panimate.obj
 0002:00008440       ??_C@_0O@HPBKBMFP@BOTH_D7__L___?$AA@ 20123440     bg_panimate.obj
 0002:00008450       ??_C@_0O@BFNNOMJM@BOTH_D7_TL___?$AA@ 20123450     bg_panimate.obj
 0002:00008460       ??_C@_0O@MKANMFHP@BOTH_D7_TR___?$AA@ 20123460     bg_panimate.obj
 0002:00008470       ??_C@_0O@KAMKDFLM@BOTH_D7__R___?$AA@ 20123470     bg_panimate.obj
 0002:00008480       ??_C@_0O@BPICCEPJ@BOTH_D7_BR___?$AA@ 20123480     bg_panimate.obj
 0002:00008490       ??_C@_0O@LDEIHEJA@BOTH_B7_BL___?$AA@ 20123490     bg_panimate.obj
 0002:000084a0       ??_C@_0O@MAAGFNF@BOTH_B7__L___?$AA@ 201234a0     bg_panimate.obj
 0002:000084b0       ??_C@_0O@GGMHJFBG@BOTH_B7_TL___?$AA@ 201234b0     bg_panimate.obj
 0002:000084c0       ??_C@_0O@EBIHHIEE@BOTH_B7_T____?$AA@ 201234c0     bg_panimate.obj
 0002:000084d0       ??_C@_0O@LJBHLMPF@BOTH_B7_TR___?$AA@ 201234d0     bg_panimate.obj
 0002:000084e0       ??_C@_0O@NDNAEMDG@BOTH_B7__R___?$AA@ 201234e0     bg_panimate.obj
 0002:000084f0       ??_C@_0O@GMJIFNHD@BOTH_B7_BR___?$AA@ 201234f0     bg_panimate.obj
 0002:00008500       ??_C@_0O@LBOJOGEP@BOTH_R7_TR_S7?$AA@ 20123500     bg_panimate.obj
 0002:00008510       ??_C@_0O@LLLGCOCK@BOTH_R7_BL_S7?$AA@ 20123510     bg_panimate.obj
 0002:00008520       ??_C@_0O@GEGGAHMJ@BOTH_R7_BR_S7?$AA@ 20123520     bg_panimate.obj
 0002:00008530       ??_C@_0O@GODJMPKM@BOTH_R7_TL_S7?$AA@ 20123530     bg_panimate.obj
 0002:00008540       ??_C@_0O@NLCOBGIM@BOTH_R7__R_S7?$AA@ 20123540     bg_panimate.obj
 0002:00008550       ??_C@_0O@EPODPGP@BOTH_R7__L_S7?$AA@ 20123550     bg_panimate.obj
 0002:00008560       ??_C@_0O@JMPGMDHI@BOTH_R7_B__S7?$AA@ 20123560     bg_panimate.obj
 0002:00008570       ??_C@_0O@PHIALDOO@BOTH_S7_S7_TR?$AA@ 20123570     bg_panimate.obj
 0002:00008580       ??_C@_0O@DLGKFDPD@BOTH_S7_S7_BL?$AA@ 20123580     bg_panimate.obj
 0002:00008590       ??_C@_0O@OPCLGMCM@BOTH_S7_S7_BR?$AA@ 20123590     bg_panimate.obj
 0002:000085a0       ??_C@_0O@CDMBIMDB@BOTH_S7_S7_TL?$AA@ 201235a0     bg_panimate.obj
 0002:000085b0       ??_C@_0O@PLNFFMAP@BOTH_S7_S7__R?$AA@ 201235b0     bg_panimate.obj
 0002:000085c0       ??_C@_0O@CPJEGDNA@BOTH_S7_S7__L?$AA@ 201235c0     bg_panimate.obj
 0002:000085d0       ??_C@_0O@ECCOMNKD@BOTH_S7_S7_T_?$AA@ 201235d0     bg_panimate.obj
 0002:000085e0       ??_C@_0O@BCIOBBI@BOTH_T7_BL_TL?$AA@ 201235e0     bg_panimate.obj
 0002:000085f0       ??_C@_0O@GAMHKAIK@BOTH_T7_BL_T_?$AA@ 201235f0     bg_panimate.obj
 0002:00008600       ??_C@_0O@KGMLCPJP@BOTH_T7__L_BL?$AA@ 20123600     bg_panimate.obj
 0002:00008610       ??_C@_0O@NPIPLBMP@BOTH_T7__L_T_?$AA@ 20123610     bg_panimate.obj
 0002:00008620       ??_C@_0O@GKCBMPIC@BOTH_T7__L_TR?$AA@ 20123620     bg_panimate.obj
 0002:00008630       ??_C@_0O@NIPCOPHP@BOTH_T7_TL__L?$AA@ 20123630     bg_panimate.obj
 0002:00008640       ??_C@_0O@LFEIEBAM@BOTH_T7_TL_T_?$AA@ 20123640     bg_panimate.obj
 0002:00008650       ??_C@_0O@OGDPEB@BOTH_T7_TL_TR?$AA@ 20123650     bg_panimate.obj
 0002:00008660       ??_C@_0O@MLDNAKA@BOTH_T7_TL__R?$AA@ 20123660     bg_panimate.obj
 0002:00008670       ??_C@_0O@GKJIGIOP@BOTH_T7_TR_T_?$AA@ 20123670     bg_panimate.obj
 0002:00008680       ??_C@_0O@NDGDPJED@BOTH_T7_TR__R?$AA@ 20123680     bg_panimate.obj
 0002:00008690       ??_C@_0O@FPJICM@BOTH_T7__R_T_?$AA@ 20123690     bg_panimate.obj
 0002:000086a0       ??_C@_0O@KNFKDJKD@BOTH_T7__R_BR?$AA@ 201236a0     bg_panimate.obj
 0002:000086b0       ??_C@_0O@LPBHIJGJ@BOTH_T7_BR_T_?$AA@ 201236b0     bg_panimate.obj
 0002:000086c0       ??_C@_0O@KLJPHCE@BOTH_T7_BR_TR?$AA@ 201236c0     bg_panimate.obj
 0002:000086d0       ??_C@_0O@NHNAOPJ@BOTH_T7_BL__L?$AA@ 201236d0     bg_panimate.obj
 0002:000086e0       ??_C@_0O@NFGJNOMH@BOTH_T7_BL_TR?$AA@ 201236e0     bg_panimate.obj
 0002:000086f0       ??_C@_0O@NJDMDBCG@BOTH_T7_BL__R?$AA@ 201236f0     bg_panimate.obj
 0002:00008700       ??_C@_0O@MNMCABAF@BOTH_T7_BL_BR?$AA@ 20123700     bg_panimate.obj
 0002:00008710       ??_C@_0O@LOGAPAFN@BOTH_T7__L_TL?$AA@ 20123710     bg_panimate.obj
 0002:00008720       ??_C@_0O@GGHECAGD@BOTH_T7__L__R?$AA@ 20123720     bg_panimate.obj
 0002:00008730       ??_C@_0O@HCIKBAEA@BOTH_T7__L_BR?$AA@ 20123730     bg_panimate.obj
 0002:00008740       ??_C@_0O@MMAMNPFM@BOTH_T7_TL_BL?$AA@ 20123740     bg_panimate.obj
 0002:00008750       ??_C@_0O@BIENOAID@BOTH_T7_TL_BR?$AA@ 20123750     bg_panimate.obj
 0002:00008760       ??_C@_0O@OLEMDCAO@BOTH_T7_T__BL?$AA@ 20123760     bg_panimate.obj
 0002:00008770       ??_C@_0O@PPLCACCN@BOTH_T7_T___L?$AA@ 20123770     bg_panimate.obj
 0002:00008780       ??_C@_0O@PDOHONMM@BOTH_T7_T__TL?$AA@ 20123780     bg_panimate.obj
 0002:00008790       ??_C@_0O@CHKGNCBD@BOTH_T7_T__TR?$AA@ 20123790     bg_panimate.obj
 0002:000087a0       ??_C@_0O@CLPDDNPC@BOTH_T7_T___R?$AA@ 201237a0     bg_panimate.obj
 0002:000087b0       ??_C@_0O@DPANANNB@BOTH_T7_T__BR?$AA@ 201237b0     bg_panimate.obj
 0002:000087c0       ??_C@_0O@BDNMPGLP@BOTH_T7_TR_BL?$AA@ 201237c0     bg_panimate.obj
 0002:000087d0       ??_C@_0O@HCCMGJM@BOTH_T7_TR__L?$AA@ 201237d0     bg_panimate.obj
 0002:000087e0       ??_C@_0O@LHHCJHN@BOTH_T7_TR_TL?$AA@ 201237e0     bg_panimate.obj
 0002:000087f0       ??_C@_0O@MHJNMJGA@BOTH_T7_TR_BR?$AA@ 201237f0     bg_panimate.obj
 0002:00008800       ??_C@_0O@HJBLAGHM@BOTH_T7__R_BL?$AA@ 20123800     bg_panimate.obj
 0002:00008810       ??_C@_0O@GNOFDGFP@BOTH_T7__R__L?$AA@ 20123810     bg_panimate.obj
 0002:00008820       ??_C@_0O@GBLANJLO@BOTH_T7__R_TL?$AA@ 20123820     bg_panimate.obj
 0002:00008830       ??_C@_0O@LFPBOGGB@BOTH_T7__R_TR?$AA@ 20123830     bg_panimate.obj
 0002:00008840       ??_C@_0O@MGFDBHDJ@BOTH_T7_BR_BL?$AA@ 20123840     bg_panimate.obj
 0002:00008850       ??_C@_0O@NCKNCHBK@BOTH_T7_BR__L?$AA@ 20123850     bg_panimate.obj
 0002:00008860       ??_C@_0O@NOPIMIPL@BOTH_T7_BR_TL?$AA@ 20123860     bg_panimate.obj
 0002:00008870       ??_C@_0O@GOMBIMF@BOTH_T7_BR__R?$AA@ 20123870     bg_panimate.obj
 0002:00008880       ??_C@_0O@PFILPBIB@BOTH_A7_TR_BL?$AA@ 20123880     bg_panimate.obj
 0002:00008890       ??_C@_0O@DDDONJPJ@BOTH_A7_BL_TR?$AA@ 20123890     bg_panimate.obj
 0002:000088a0       ??_C@_0O@DIKPMPMF@BOTH_A7_BR_TL?$AA@ 201238a0     bg_panimate.obj
 0002:000088b0       ??_C@_0O@POBKOHLN@BOTH_A7_TL_BR?$AA@ 201238b0     bg_panimate.obj
 0002:000088c0       ??_C@_0O@ILLCDBGB@BOTH_A7__R__L?$AA@ 201238c0     bg_panimate.obj
 0002:000088d0       ??_C@_0O@IACDCHFN@BOTH_A7__L__R?$AA@ 201238d0     bg_panimate.obj
 0002:000088e0       ??_C@_0O@GMPEHEKC@BOTH_A7_T__B_?$AA@ 201238e0     bg_panimate.obj
 0002:000088f0       ??_C@_0O@CLLIOANG@BOTH_D6_B____?$AA@ 201238f0     bg_panimate.obj
 0002:00008900       ??_C@_0O@MPIANIE@BOTH_D6_BL___?$AA@ 20123900     bg_panimate.obj
 0002:00008910       ??_C@_0O@LDLABMMB@BOTH_D6__L___?$AA@ 20123910     bg_panimate.obj
 0002:00008920       ??_C@_0O@NJHHOMAC@BOTH_D6_TL___?$AA@ 20123920     bg_panimate.obj
 0002:00008930       ??_C@_0O@GKHMFOB@BOTH_D6_TR___?$AA@ 20123930     bg_panimate.obj
 0002:00008940       ??_C@_0O@GMGADFCC@BOTH_D6__R___?$AA@ 20123940     bg_panimate.obj
 0002:00008950       ??_C@_0O@NDCICEGH@BOTH_D6_BR___?$AA@ 20123950     bg_panimate.obj
 0002:00008960       ??_C@_0O@HPOCHEAO@BOTH_B6_BL___?$AA@ 20123960     bg_panimate.obj
 0002:00008970       ??_C@_0O@MAKKGFEL@BOTH_B6__L___?$AA@ 20123970     bg_panimate.obj
 0002:00008980       ??_C@_0O@KKGNJFII@BOTH_B6_TL___?$AA@ 20123980     bg_panimate.obj
 0002:00008990       ??_C@_0O@INCNHINK@BOTH_B6_T____?$AA@ 20123990     bg_panimate.obj
 0002:000089a0       ??_C@_0O@HFLNLMGL@BOTH_B6_TR___?$AA@ 201239a0     bg_panimate.obj
 0002:000089b0       ??_C@_0O@BPHKEMKI@BOTH_B6__R___?$AA@ 201239b0     bg_panimate.obj
 0002:000089c0       ??_C@_0O@KADCFNON@BOTH_B6_BR___?$AA@ 201239c0     bg_panimate.obj
 0002:000089d0       ??_C@_0O@GEFINHJA@BOTH_R6_TR_S6?$AA@ 201239d0     bg_panimate.obj
 0002:000089e0       ??_C@_0O@GOAHBPPF@BOTH_R6_BL_S6?$AA@ 201239e0     bg_panimate.obj
 0002:000089f0       ??_C@_0O@LBNHDGBG@BOTH_R6_BR_S6?$AA@ 201239f0     bg_panimate.obj
 0002:00008a00       ??_C@_0O@LLIIPOHD@BOTH_R6_TL_S6?$AA@ 20123a00     bg_panimate.obj
 0002:00008a10       ??_C@_0O@OJPCHFD@BOTH_R6__R_S6?$AA@ 20123a10     bg_panimate.obj
 0002:00008a20       ??_C@_0O@NBEPAOLA@BOTH_R6__L_S6?$AA@ 20123a20     bg_panimate.obj
 0002:00008a30       ??_C@_0O@EJEHPCKH@BOTH_R6_B__S6?$AA@ 20123a30     bg_panimate.obj
 0002:00008a40       ??_C@_0O@GEKJKMA@BOTH_S6_S6_TR?$AA@ 20123a40     bg_panimate.obj
 0002:00008a50       ??_C@_0O@MKKAHKNN@BOTH_S6_S6_BL?$AA@ 20123a50     bg_panimate.obj
 0002:00008a60       ??_C@_0O@BOOBEFAC@BOTH_S6_S6_BR?$AA@ 20123a60     bg_panimate.obj
 0002:00008a70       ??_C@_0O@NCALKFBP@BOTH_S6_S6_TL?$AA@ 20123a70     bg_panimate.obj
 0002:00008a80       ??_C@_0O@KBPHFCB@BOTH_S6_S6__R?$AA@ 20123a80     bg_panimate.obj
 0002:00008a90       ??_C@_0O@NOFOEKPO@BOTH_S6_S6__L?$AA@ 20123a90     bg_panimate.obj
 0002:00008aa0       ??_C@_0O@LDOEOEIN@BOTH_S6_S6_T_?$AA@ 20123aa0     bg_panimate.obj
 0002:00008ab0       ??_C@_0O@MNICOBIG@BOTH_T6_BL_TL?$AA@ 20123ab0     bg_panimate.obj
 0002:00008ac0       ??_C@_0O@KMGNKABE@BOTH_T6_BL_T_?$AA@ 20123ac0     bg_panimate.obj
 0002:00008ad0       ??_C@_0O@GKGBCPAB@BOTH_T6__L_BL?$AA@ 20123ad0     bg_panimate.obj
 0002:00008ae0       ??_C@_0O@BDCFLBFB@BOTH_T6__L_T_?$AA@ 20123ae0     bg_panimate.obj
 0002:00008af0       ??_C@_0O@KGILMPBM@BOTH_T6__L_TR?$AA@ 20123af0     bg_panimate.obj
 0002:00008b00       ??_C@_0O@BEFIOPOB@BOTH_T6_TL__L?$AA@ 20123b00     bg_panimate.obj
 0002:00008b10       ??_C@_0O@HJOCEBJC@BOTH_T6_TL_T_?$AA@ 20123b10     bg_panimate.obj
 0002:00008b20       ??_C@_0O@MMEMDPNP@BOTH_T6_TL_TR?$AA@ 20123b20     bg_panimate.obj
 0002:00008b30       ??_C@_0O@MABJNADO@BOTH_T6_TL__R?$AA@ 20123b30     bg_panimate.obj
 0002:00008b40       ??_C@_0O@KGDCGIHB@BOTH_T6_TR_T_?$AA@ 20123b40     bg_panimate.obj
 0002:00008b50       ??_C@_0O@BPMJPJNN@BOTH_T6_TR__R?$AA@ 20123b50     bg_panimate.obj
 0002:00008b60       ??_C@_0O@MMPFJILC@BOTH_T6__R_T_?$AA@ 20123b60     bg_panimate.obj
 0002:00008b70       ??_C@_0O@GBPADJDN@BOTH_T6__R_BR?$AA@ 20123b70     bg_panimate.obj
 0002:00008b80       ??_C@_0O@HDLNIJPH@BOTH_T6_BR_T_?$AA@ 20123b80     bg_panimate.obj
 0002:00008b90       ??_C@_0O@MGBDPHLK@BOTH_T6_BR_TR?$AA@ 20123b90     bg_panimate.obj
 0002:00008ba0       ??_C@_0O@MBNHAOGH@BOTH_T6_BL__L?$AA@ 20123ba0     bg_panimate.obj
 0002:00008bb0       ??_C@_0O@BJMDNOFJ@BOTH_T6_BL_TR?$AA@ 20123bb0     bg_panimate.obj
 0002:00008bc0       ??_C@_0O@BFJGDBLI@BOTH_T6_BL__R?$AA@ 20123bc0     bg_panimate.obj
 0002:00008bd0       ??_C@_0O@BGIABJL@BOTH_T6_BL_BR?$AA@ 20123bd0     bg_panimate.obj
 0002:00008be0       ??_C@_0O@HCMKPAMD@BOTH_T6__L_TL?$AA@ 20123be0     bg_panimate.obj
 0002:00008bf0       ??_C@_0O@KKNOCAPN@BOTH_T6__L__R?$AA@ 20123bf0     bg_panimate.obj
 0002:00008c00       ??_C@_0O@LOCABANO@BOTH_T6__L_BR?$AA@ 20123c00     bg_panimate.obj
 0002:00008c10       ??_C@_0O@KGNPMC@BOTH_T6_TL_BL?$AA@ 20123c10     bg_panimate.obj
 0002:00008c20       ??_C@_0O@NEOHOABN@BOTH_T6_TL_BR?$AA@ 20123c20     bg_panimate.obj
 0002:00008c30       ??_C@_0O@CHOGDCJA@BOTH_T6_T__BL?$AA@ 20123c30     bg_panimate.obj
 0002:00008c40       ??_C@_0O@DDBIACLD@BOTH_T6_T___L?$AA@ 20123c40     bg_panimate.obj
 0002:00008c50       ??_C@_0O@DPENONFC@BOTH_T6_T__TL?$AA@ 20123c50     bg_panimate.obj
 0002:00008c60       ??_C@_0O@OLAMNCIN@BOTH_T6_T__TR?$AA@ 20123c60     bg_panimate.obj
 0002:00008c70       ??_C@_0O@OHFJDNGM@BOTH_T6_T___R?$AA@ 20123c70     bg_panimate.obj
 0002:00008c80       ??_C@_0O@PDKHANEP@BOTH_T6_T__BR?$AA@ 20123c80     bg_panimate.obj
 0002:00008c90       ??_C@_0O@NPHGPGCB@BOTH_T6_TR_BL?$AA@ 20123c90     bg_panimate.obj
 0002:00008ca0       ??_C@_0O@MLIIMGAC@BOTH_T6_TR__L?$AA@ 20123ca0     bg_panimate.obj
 0002:00008cb0       ??_C@_0O@MHNNCJOD@BOTH_T6_TR_TL?$AA@ 20123cb0     bg_panimate.obj
 0002:00008cc0       ??_C@_0O@LDHMJPO@BOTH_T6_TR_BR?$AA@ 20123cc0     bg_panimate.obj
 0002:00008cd0       ??_C@_0O@LFLBAGOC@BOTH_T6__R_BL?$AA@ 20123cd0     bg_panimate.obj
 0002:00008ce0       ??_C@_0O@KBEPDGMB@BOTH_T6__R__L?$AA@ 20123ce0     bg_panimate.obj
 0002:00008cf0       ??_C@_0O@KNBKNJCA@BOTH_T6__R_TL?$AA@ 20123cf0     bg_panimate.obj
 0002:00008d00       ??_C@_0O@HJFLOGPP@BOTH_T6__R_TR?$AA@ 20123d00     bg_panimate.obj
 0002:00008d10       ??_C@_0O@KPJBHKH@BOTH_T6_BR_BL?$AA@ 20123d10     bg_panimate.obj
 0002:00008d20       ??_C@_0O@BOAHCHIE@BOTH_T6_BR__L?$AA@ 20123d20     bg_panimate.obj
 0002:00008d30       ??_C@_0O@BCFCMIGF@BOTH_T6_BR_TL?$AA@ 20123d30     bg_panimate.obj
 0002:00008d40       ??_C@_0O@MKEGBIFL@BOTH_T6_BR__R?$AA@ 20123d40     bg_panimate.obj
 0002:00008d50       ??_C@_0O@DJCBPBBP@BOTH_A6_TR_BL?$AA@ 20123d50     bg_panimate.obj
 0002:00008d60       ??_C@_0O@PPJENJGH@BOTH_A6_BL_TR?$AA@ 20123d60     bg_panimate.obj
 0002:00008d70       ??_C@_0O@PEAFMPFL@BOTH_A6_BR_TL?$AA@ 20123d70     bg_panimate.obj
 0002:00008d80       ??_C@_0O@DCLAOHCD@BOTH_A6_TL_BR?$AA@ 20123d80     bg_panimate.obj
 0002:00008d90       ??_C@_0O@EHBIDBPP@BOTH_A6__R__L?$AA@ 20123d90     bg_panimate.obj
 0002:00008da0       ??_C@_0O@EMIJCHMD@BOTH_A6__L__R?$AA@ 20123da0     bg_panimate.obj
 0002:00008db0       ??_C@_0O@KAFOHEDM@BOTH_A6_T__B_?$AA@ 20123db0     bg_panimate.obj
 0002:00008dc0       ??_C@_0O@KFDHOHDF@BOTH_D5_B____?$AA@ 20123dc0     bg_panimate.obj
 0002:00008dd0       ??_C@_0O@ICHHAKGH@BOTH_D5_BL___?$AA@ 20123dd0     bg_panimate.obj
 0002:00008de0       ??_C@_0O@DNDPBLCC@BOTH_D5__L___?$AA@ 20123de0     bg_panimate.obj
 0002:00008df0       ??_C@_0O@FHPIOLOB@BOTH_D5_TL___?$AA@ 20123df0     bg_panimate.obj
 0002:00008e00       ??_C@_0O@IICIMCAC@BOTH_D5_TR___?$AA@ 20123e00     bg_panimate.obj
 0002:00008e10       ??_C@_0O@OCOPDCMB@BOTH_D5__R___?$AA@ 20123e10     bg_panimate.obj
 0002:00008e20       ??_C@_0O@FNKHCDIE@BOTH_D5_BR___?$AA@ 20123e20     bg_panimate.obj
 0002:00008e30       ??_C@_0O@PBGNHDON@BOTH_B5_BL___?$AA@ 20123e30     bg_panimate.obj
 0002:00008e40       ??_C@_0O@EOCFGCKI@BOTH_B5__L___?$AA@ 20123e40     bg_panimate.obj
 0002:00008e50       ??_C@_0O@CEOCJCGL@BOTH_B5_TL___?$AA@ 20123e50     bg_panimate.obj
 0002:00008e60       ??_C@_0O@DKCHPDJ@BOTH_B5_T____?$AA@ 20123e60     bg_panimate.obj
 0002:00008e70       ??_C@_0O@PLDCLLII@BOTH_B5_TR___?$AA@ 20123e70     bg_panimate.obj
 0002:00008e80       ??_C@_0O@JBPFELEL@BOTH_B5__R___?$AA@ 20123e80     bg_panimate.obj
 0002:00008e90       ??_C@_0O@COLNFKAO@BOTH_B5_BR___?$AA@ 20123e90     bg_panimate.obj
 0002:00008ea0       ??_C@_0O@KFJGEGLE@BOTH_R5_TR_S1?$AA@ 20123ea0     bg_panimate.obj
 0002:00008eb0       ??_C@_0O@KPMJIONB@BOTH_R5_BL_S1?$AA@ 20123eb0     bg_panimate.obj
 0002:00008ec0       ??_C@_0O@HABJKHDC@BOTH_R5_BR_S1?$AA@ 20123ec0     bg_panimate.obj
 0002:00008ed0       ??_C@_0O@HKEGGPFH@BOTH_R5_TL_S1?$AA@ 20123ed0     bg_panimate.obj
 0002:00008ee0       ??_C@_0O@MPFBLGHH@BOTH_R5__R_S1?$AA@ 20123ee0     bg_panimate.obj
 0002:00008ef0       ??_C@_0O@BAIBJPJE@BOTH_R5__L_S1?$AA@ 20123ef0     bg_panimate.obj
 0002:00008f00       ??_C@_0O@IIIJGDID@BOTH_R5_B__S1?$AA@ 20123f00     bg_panimate.obj
 0002:00008f10       ??_C@_0O@DKOFEBDD@BOTH_S5_S1_TR?$AA@ 20123f10     bg_panimate.obj
 0002:00008f20       ??_C@_0O@PGAPKBCO@BOTH_S5_S1_BL?$AA@ 20123f20     bg_panimate.obj
 0002:00008f30       ??_C@_0O@CCEOJOPB@BOTH_S5_S1_BR?$AA@ 20123f30     bg_panimate.obj
 0002:00008f40       ??_C@_0O@OOKEHOOM@BOTH_S5_S1_TL?$AA@ 20123f40     bg_panimate.obj
 0002:00008f50       ??_C@_0O@DGLAKONC@BOTH_S5_S1__R?$AA@ 20123f50     bg_panimate.obj
 0002:00008f60       ??_C@_0O@OCPBJBAN@BOTH_S5_S1__L?$AA@ 20123f60     bg_panimate.obj
 0002:00008f70       ??_C@_0O@IPELDPHO@BOTH_S5_S1_T_?$AA@ 20123f70     bg_panimate.obj
 0002:00008f80       ??_C@_0O@EDANOGGF@BOTH_T5_BL_TL?$AA@ 20123f80     bg_panimate.obj
 0002:00008f90       ??_C@_0O@CCOCKHPH@BOTH_T5_BL_T_?$AA@ 20123f90     bg_panimate.obj
 0002:00008fa0       ??_C@_0O@OEOOCIOC@BOTH_T5__L_BL?$AA@ 20123fa0     bg_panimate.obj
 0002:00008fb0       ??_C@_0O@JNKKLGLC@BOTH_T5__L_T_?$AA@ 20123fb0     bg_panimate.obj
 0002:00008fc0       ??_C@_0O@CIAEMIPP@BOTH_T5__L_TR?$AA@ 20123fc0     bg_panimate.obj
 0002:00008fd0       ??_C@_0O@JKNHOIAC@BOTH_T5_TL__L?$AA@ 20123fd0     bg_panimate.obj
 0002:00008fe0       ??_C@_0O@PHGNEGHB@BOTH_T5_TL_T_?$AA@ 20123fe0     bg_panimate.obj
 0002:00008ff0       ??_C@_0O@ECMDDIDM@BOTH_T5_TL_TR?$AA@ 20123ff0     bg_panimate.obj
 0002:00009000       ??_C@_0O@EOJGNHNN@BOTH_T5_TL__R?$AA@ 20124000     bg_panimate.obj
 0002:00009010       ??_C@_0O@CILNGPJC@BOTH_T5_TR_T_?$AA@ 20124010     bg_panimate.obj
 0002:00009020       ??_C@_0O@JBEGPODO@BOTH_T5_TR__R?$AA@ 20124020     bg_panimate.obj
 0002:00009030       ??_C@_0O@ECHKJPFB@BOTH_T5__R_T_?$AA@ 20124030     bg_panimate.obj
 0002:00009040       ??_C@_0O@OPHPDONO@BOTH_T5__R_BR?$AA@ 20124040     bg_panimate.obj
 0002:00009050       ??_C@_0O@PNDCIOBE@BOTH_T5_BR_T_?$AA@ 20124050     bg_panimate.obj
 0002:00009060       ??_C@_0O@EIJMPAFJ@BOTH_T5_BR_TR?$AA@ 20124060     bg_panimate.obj
 0002:00009070       ??_C@_0O@EPFIAJIE@BOTH_T5_BL__L?$AA@ 20124070     bg_panimate.obj
 0002:00009080       ??_C@_0O@JHEMNJLK@BOTH_T5_BL_TR?$AA@ 20124080     bg_panimate.obj
 0002:00009090       ??_C@_0O@JLBJDGFL@BOTH_T5_BL__R?$AA@ 20124090     bg_panimate.obj
 0002:000090a0       ??_C@_0O@IPOHAGHI@BOTH_T5_BL_BR?$AA@ 201240a0     bg_panimate.obj
 0002:000090b0       ??_C@_0O@PMEFPHCA@BOTH_T5__L_TL?$AA@ 201240b0     bg_panimate.obj
 0002:000090c0       ??_C@_0O@CEFBCHBO@BOTH_T5__L__R?$AA@ 201240c0     bg_panimate.obj
 0002:000090d0       ??_C@_0O@DAKPBHDN@BOTH_T5__L_BR?$AA@ 201240d0     bg_panimate.obj
 0002:000090e0       ??_C@_0O@IOCJNICB@BOTH_T5_TL_BL?$AA@ 201240e0     bg_panimate.obj
 0002:000090f0       ??_C@_0O@FKGIOHPO@BOTH_T5_TL_BR?$AA@ 201240f0     bg_panimate.obj
 0002:00009100       ??_C@_0O@KJGJDFHD@BOTH_T5_T__BL?$AA@ 20124100     bg_panimate.obj
 0002:00009110       ??_C@_0O@LNJHAFFA@BOTH_T5_T___L?$AA@ 20124110     bg_panimate.obj
 0002:00009120       ??_C@_0O@LBMCOKLB@BOTH_T5_T__TL?$AA@ 20124120     bg_panimate.obj
 0002:00009130       ??_C@_0O@GFIDNFGO@BOTH_T5_T__TR?$AA@ 20124130     bg_panimate.obj
 0002:00009140       ??_C@_0O@GJNGDKIP@BOTH_T5_T___R?$AA@ 20124140     bg_panimate.obj
 0002:00009150       ??_C@_0O@HNCIAKKM@BOTH_T5_T__BR?$AA@ 20124150     bg_panimate.obj
 0002:00009160       ??_C@_0O@FBPJPBMC@BOTH_T5_TR_BL?$AA@ 20124160     bg_panimate.obj
 0002:00009170       ??_C@_0O@EFAHMBOB@BOTH_T5_TR__L?$AA@ 20124170     bg_panimate.obj
 0002:00009180       ??_C@_0O@EJFCCOAA@BOTH_T5_TR_TL?$AA@ 20124180     bg_panimate.obj
 0002:00009190       ??_C@_0O@IFLIMOBN@BOTH_T5_TR_BR?$AA@ 20124190     bg_panimate.obj
 0002:000091a0       ??_C@_0O@DLDOABAB@BOTH_T5__R_BL?$AA@ 201241a0     bg_panimate.obj
 0002:000091b0       ??_C@_0O@CPMADBCC@BOTH_T5__R__L?$AA@ 201241b0     bg_panimate.obj
 0002:000091c0       ??_C@_0O@CDJFNOMD@BOTH_T5__R_TL?$AA@ 201241c0     bg_panimate.obj
 0002:000091d0       ??_C@_0O@PHNEOBBM@BOTH_T5__R_TR?$AA@ 201241d0     bg_panimate.obj
 0002:000091e0       ??_C@_0O@IEHGBAEE@BOTH_T5_BR_BL?$AA@ 201241e0     bg_panimate.obj
 0002:000091f0       ??_C@_0O@JAIICAGH@BOTH_T5_BR__L?$AA@ 201241f0     bg_panimate.obj
 0002:00009200       ??_C@_0O@JMNNMPIG@BOTH_T5_BR_TL?$AA@ 20124200     bg_panimate.obj
 0002:00009210       ??_C@_0O@EEMJBPLI@BOTH_T5_BR__R?$AA@ 20124210     bg_panimate.obj
 0002:00009220       ??_C@_0O@LHKOPGPM@BOTH_A5_TR_BL?$AA@ 20124220     bg_panimate.obj
 0002:00009230       ??_C@_0O@HBBLNOIE@BOTH_A5_BL_TR?$AA@ 20124230     bg_panimate.obj
 0002:00009240       ??_C@_0O@HKIKMILI@BOTH_A5_BR_TL?$AA@ 20124240     bg_panimate.obj
 0002:00009250       ??_C@_0O@LMDPOAMA@BOTH_A5_TL_BR?$AA@ 20124250     bg_panimate.obj
 0002:00009260       ??_C@_0O@MJJHDGBM@BOTH_A5__R__L?$AA@ 20124260     bg_panimate.obj
 0002:00009270       ??_C@_0O@MCAGCACA@BOTH_A5__L__R?$AA@ 20124270     bg_panimate.obj
 0002:00009280       ??_C@_0O@CONBHDNP@BOTH_A5_T__B_?$AA@ 20124280     bg_panimate.obj
 0002:00009290       ??_C@_0O@GJJNOHKL@BOTH_D4_B____?$AA@ 20124290     bg_panimate.obj
 0002:000092a0       ??_C@_0O@EONNAKPJ@BOTH_D4_BL___?$AA@ 201242a0     bg_panimate.obj
 0002:000092b0       ??_C@_0O@PBJFBLLM@BOTH_D4__L___?$AA@ 201242b0     bg_panimate.obj
 0002:000092c0       ??_C@_0O@JLFCOLHP@BOTH_D4_TL___?$AA@ 201242c0     bg_panimate.obj
 0002:000092d0       ??_C@_0O@EEICMCJM@BOTH_D4_TR___?$AA@ 201242d0     bg_panimate.obj
 0002:000092e0       ??_C@_0O@COEFDCFP@BOTH_D4__R___?$AA@ 201242e0     bg_panimate.obj
 0002:000092f0       ??_C@_0O@JBANCDBK@BOTH_D4_BR___?$AA@ 201242f0     bg_panimate.obj
 0002:00009300       ??_C@_0O@DNMHHDHD@BOTH_B4_BL___?$AA@ 20124300     bg_panimate.obj
 0002:00009310       ??_C@_0O@ICIPGCDG@BOTH_B4__L___?$AA@ 20124310     bg_panimate.obj
 0002:00009320       ??_C@_0O@OIEIJCPF@BOTH_B4_TL___?$AA@ 20124320     bg_panimate.obj
 0002:00009330       ??_C@_0O@MPAIHPKH@BOTH_B4_T____?$AA@ 20124330     bg_panimate.obj
 0002:00009340       ??_C@_0O@DHJILLBG@BOTH_B4_TR___?$AA@ 20124340     bg_panimate.obj
 0002:00009350       ??_C@_0O@FNFPELNF@BOTH_B4__R___?$AA@ 20124350     bg_panimate.obj
 0002:00009360       ??_C@_0O@OCBHFKJA@BOTH_B4_BR___?$AA@ 20124360     bg_panimate.obj
 0002:00009370       ??_C@_0O@GJDMEGCK@BOTH_R4_TR_S1?$AA@ 20124370     bg_panimate.obj
 0002:00009380       ??_C@_0O@GDGDIOEP@BOTH_R4_BL_S1?$AA@ 20124380     bg_panimate.obj
 0002:00009390       ??_C@_0O@LMLDKHKM@BOTH_R4_BR_S1?$AA@ 20124390     bg_panimate.obj
 0002:000093a0       ??_C@_0O@LGOMGPMJ@BOTH_R4_TL_S1?$AA@ 201243a0     bg_panimate.obj
 0002:000093b0       ??_C@_0O@DPLLGOJ@BOTH_R4__R_S1?$AA@ 201243b0     bg_panimate.obj
 0002:000093c0       ??_C@_0O@NMCLJPAK@BOTH_R4__L_S1?$AA@ 201243c0     bg_panimate.obj
 0002:000093d0       ??_C@_0O@EECDGDBN@BOTH_R4_B__S1?$AA@ 201243d0     bg_panimate.obj
 0002:000093e0       ??_C@_0O@PGEPEBKN@BOTH_S4_S1_TR?$AA@ 201243e0     bg_panimate.obj
 0002:000093f0       ??_C@_0O@DKKFKBLA@BOTH_S4_S1_BL?$AA@ 201243f0     bg_panimate.obj
 0002:00009400       ??_C@_0O@OOOEJOGP@BOTH_S4_S1_BR?$AA@ 20124400     bg_panimate.obj
 0002:00009410       ??_C@_0O@CCAOHOHC@BOTH_S4_S1_TL?$AA@ 20124410     bg_panimate.obj
 0002:00009420       ??_C@_0O@PKBKKOEM@BOTH_S4_S1__R?$AA@ 20124420     bg_panimate.obj
 0002:00009430       ??_C@_0O@COFLJBJD@BOTH_S4_S1__L?$AA@ 20124430     bg_panimate.obj
 0002:00009440       ??_C@_0O@EDOBDPOA@BOTH_S4_S1_T_?$AA@ 20124440     bg_panimate.obj
 0002:00009450       ??_C@_0O@IPKHOGPL@BOTH_T4_BL_TL?$AA@ 20124450     bg_panimate.obj
 0002:00009460       ??_C@_0O@OOEIKHGJ@BOTH_T4_BL_T_?$AA@ 20124460     bg_panimate.obj
 0002:00009470       ??_C@_0O@CIEECIHM@BOTH_T4__L_BL?$AA@ 20124470     bg_panimate.obj
 0002:00009480       ??_C@_0O@FBAALGCM@BOTH_T4__L_T_?$AA@ 20124480     bg_panimate.obj
 0002:00009490       ??_C@_0O@OEKOMIGB@BOTH_T4__L_TR?$AA@ 20124490     bg_panimate.obj
 0002:000094a0       ??_C@_0O@FGHNOIJM@BOTH_T4_TL__L?$AA@ 201244a0     bg_panimate.obj
 0002:000094b0       ??_C@_0O@DLMHEGOP@BOTH_T4_TL_T_?$AA@ 201244b0     bg_panimate.obj
 0002:000094c0       ??_C@_0O@IOGJDIKC@BOTH_T4_TL_TR?$AA@ 201244c0     bg_panimate.obj
 0002:000094d0       ??_C@_0O@ICDMNHED@BOTH_T4_TL__R?$AA@ 201244d0     bg_panimate.obj
 0002:000094e0       ??_C@_0O@OEBHGPAM@BOTH_T4_TR_T_?$AA@ 201244e0     bg_panimate.obj
 0002:000094f0       ??_C@_0O@FNOMPOKA@BOTH_T4_TR__R?$AA@ 201244f0     bg_panimate.obj
 0002:00009500       ??_C@_0O@IONAJPMP@BOTH_T4__R_T_?$AA@ 20124500     bg_panimate.obj
 0002:00009510       ??_C@_0O@CDNFDOEA@BOTH_T4__R_BR?$AA@ 20124510     bg_panimate.obj
 0002:00009520       ??_C@_0O@DBJIIOIK@BOTH_T4_BR_T_?$AA@ 20124520     bg_panimate.obj
 0002:00009530       ??_C@_0O@IEDGPAMH@BOTH_T4_BR_TR?$AA@ 20124530     bg_panimate.obj
 0002:00009540       ??_C@_0O@IDPCAJBK@BOTH_T4_BL__L?$AA@ 20124540     bg_panimate.obj
 0002:00009550       ??_C@_0O@FLOGNJCE@BOTH_T4_BL_TR?$AA@ 20124550     bg_panimate.obj
 0002:00009560       ??_C@_0O@FHLDDGMF@BOTH_T4_BL__R?$AA@ 20124560     bg_panimate.obj
 0002:00009570       ??_C@_0O@EDENAGOG@BOTH_T4_BL_BR?$AA@ 20124570     bg_panimate.obj
 0002:00009580       ??_C@_0O@DAOPPHLO@BOTH_T4__L_TL?$AA@ 20124580     bg_panimate.obj
 0002:00009590       ??_C@_0O@OIPLCHIA@BOTH_T4__L__R?$AA@ 20124590     bg_panimate.obj
 0002:000095a0       ??_C@_0O@PMAFBHKD@BOTH_T4__L_BR?$AA@ 201245a0     bg_panimate.obj
 0002:000095b0       ??_C@_0O@ECIDNILP@BOTH_T4_TL_BL?$AA@ 201245b0     bg_panimate.obj
 0002:000095c0       ??_C@_0O@JGMCOHGA@BOTH_T4_TL_BR?$AA@ 201245c0     bg_panimate.obj
 0002:000095d0       ??_C@_0O@GFMDDFON@BOTH_T4_T__BL?$AA@ 201245d0     bg_panimate.obj
 0002:000095e0       ??_C@_0O@HBDNAFMO@BOTH_T4_T___L?$AA@ 201245e0     bg_panimate.obj
 0002:000095f0       ??_C@_0O@HNGIOKCP@BOTH_T4_T__TL?$AA@ 201245f0     bg_panimate.obj
 0002:00009600       ??_C@_0O@KJCJNFPA@BOTH_T4_T__TR?$AA@ 20124600     bg_panimate.obj
 0002:00009610       ??_C@_0O@KFHMDKBB@BOTH_T4_T___R?$AA@ 20124610     bg_panimate.obj
 0002:00009620       ??_C@_0O@LBICAKDC@BOTH_T4_T__BR?$AA@ 20124620     bg_panimate.obj
 0002:00009630       ??_C@_0O@JNFDPBFM@BOTH_T4_TR_BL?$AA@ 20124630     bg_panimate.obj
 0002:00009640       ??_C@_0O@IJKNMBHP@BOTH_T4_TR__L?$AA@ 20124640     bg_panimate.obj
 0002:00009650       ??_C@_0O@IFPICOJO@BOTH_T4_TR_TL?$AA@ 20124650     bg_panimate.obj
 0002:00009660       ??_C@_0O@EJBCMOID@BOTH_T4_TR_BR?$AA@ 20124660     bg_panimate.obj
 0002:00009670       ??_C@_0O@PHJEABJP@BOTH_T4__R_BL?$AA@ 20124670     bg_panimate.obj
 0002:00009680       ??_C@_0O@ODGKDBLM@BOTH_T4__R__L?$AA@ 20124680     bg_panimate.obj
 0002:00009690       ??_C@_0O@OPDPNOFN@BOTH_T4__R_TL?$AA@ 20124690     bg_panimate.obj
 0002:000096a0       ??_C@_0O@DLHOOBIC@BOTH_T4__R_TR?$AA@ 201246a0     bg_panimate.obj
 0002:000096b0       ??_C@_0O@EINMBANK@BOTH_T4_BR_BL?$AA@ 201246b0     bg_panimate.obj
 0002:000096c0       ??_C@_0O@FMCCCAPJ@BOTH_T4_BR__L?$AA@ 201246c0     bg_panimate.obj
 0002:000096d0       ??_C@_0O@FAHHMPBI@BOTH_T4_BR_TL?$AA@ 201246d0     bg_panimate.obj
 0002:000096e0       ??_C@_0O@IIGDBPCG@BOTH_T4_BR__R?$AA@ 201246e0     bg_panimate.obj
 0002:000096f0       ??_C@_0O@HLAEPGGC@BOTH_A4_TR_BL?$AA@ 201246f0     bg_panimate.obj
 0002:00009700       ??_C@_0O@LNLBNOBK@BOTH_A4_BL_TR?$AA@ 20124700     bg_panimate.obj
 0002:00009710       ??_C@_0O@LGCAMICG@BOTH_A4_BR_TL?$AA@ 20124710     bg_panimate.obj
 0002:00009720       ??_C@_0O@HAJFOAFO@BOTH_A4_TL_BR?$AA@ 20124720     bg_panimate.obj
 0002:00009730       ??_C@_0O@FDNDGIC@BOTH_A4__R__L?$AA@ 20124730     bg_panimate.obj
 0002:00009740       ??_C@_0O@OKMCALO@BOTH_A4__L__R?$AA@ 20124740     bg_panimate.obj
 0002:00009750       ??_C@_0O@OCHLHDEB@BOTH_A4_T__B_?$AA@ 20124750     bg_panimate.obj
 0002:00009760       ??_C@_0O@GDFIOOLC@BOTH_D3_B____?$AA@ 20124760     bg_panimate.obj
 0002:00009770       ??_C@_0O@EEBIADOA@BOTH_D3_BL___?$AA@ 20124770     bg_panimate.obj
 0002:00009780       ??_C@_0O@PLFABCKF@BOTH_D3__L___?$AA@ 20124780     bg_panimate.obj
 0002:00009790       ??_C@_0O@JBJHOCGG@BOTH_D3_TL___?$AA@ 20124790     bg_panimate.obj
 0002:000097a0       ??_C@_0O@EOEHMLIF@BOTH_D3_TR___?$AA@ 201247a0     bg_panimate.obj
 0002:000097b0       ??_C@_0O@CEIADLEG@BOTH_D3__R___?$AA@ 201247b0     bg_panimate.obj
 0002:000097c0       ??_C@_0O@JLMICKAD@BOTH_D3_BR___?$AA@ 201247c0     bg_panimate.obj
 0002:000097d0       ??_C@_0O@DHACHKGK@BOTH_B3_BL___?$AA@ 201247d0     bg_panimate.obj
 0002:000097e0       ??_C@_0O@IIEKGLCP@BOTH_B3__L___?$AA@ 201247e0     bg_panimate.obj
 0002:000097f0       ??_C@_0O@OCINJLOM@BOTH_B3_TL___?$AA@ 201247f0     bg_panimate.obj
 0002:00009800       ??_C@_0O@MFMNHGLO@BOTH_B3_T____?$AA@ 20124800     bg_panimate.obj
 0002:00009810       ??_C@_0O@DNFNLCAP@BOTH_B3_TR___?$AA@ 20124810     bg_panimate.obj
 0002:00009820       ??_C@_0O@FHJKECMM@BOTH_B3__R___?$AA@ 20124820     bg_panimate.obj
 0002:00009830       ??_C@_0O@OINCFDIJ@BOTH_B3_BR___?$AA@ 20124830     bg_panimate.obj
 0002:00009840       ??_C@_0O@GDPJEPDD@BOTH_R3_TR_S1?$AA@ 20124840     bg_panimate.obj
 0002:00009850       ??_C@_0O@GJKGIHFG@BOTH_R3_BL_S1?$AA@ 20124850     bg_panimate.obj
 0002:00009860       ??_C@_0O@LGHGKOLF@BOTH_R3_BR_S1?$AA@ 20124860     bg_panimate.obj
 0002:00009870       ??_C@_0O@LMCJGGNA@BOTH_R3_TL_S1?$AA@ 20124870     bg_panimate.obj
 0002:00009880       ??_C@_0O@JDOLPPA@BOTH_R3__R_S1?$AA@ 20124880     bg_panimate.obj
 0002:00009890       ??_C@_0O@NGOOJGBD@BOTH_R3__L_S1?$AA@ 20124890     bg_panimate.obj
 0002:000098a0       ??_C@_0O@EOOGGKAE@BOTH_R3_B__S1?$AA@ 201248a0     bg_panimate.obj
 0002:000098b0       ??_C@_0O@PMIKEILE@BOTH_S3_S1_TR?$AA@ 201248b0     bg_panimate.obj
 0002:000098c0       ??_C@_0O@DAGAKIKJ@BOTH_S3_S1_BL?$AA@ 201248c0     bg_panimate.obj
 0002:000098d0       ??_C@_0O@OECBJHHG@BOTH_S3_S1_BR?$AA@ 201248d0     bg_panimate.obj
 0002:000098e0       ??_C@_0O@CIMLHHGL@BOTH_S3_S1_TL?$AA@ 201248e0     bg_panimate.obj
 0002:000098f0       ??_C@_0O@PANPKHFF@BOTH_S3_S1__R?$AA@ 201248f0     bg_panimate.obj
 0002:00009900       ??_C@_0O@CEJOJIIK@BOTH_S3_S1__L?$AA@ 20124900     bg_panimate.obj
 0002:00009910       ??_C@_0O@EJCEDGPJ@BOTH_S3_S1_T_?$AA@ 20124910     bg_panimate.obj
 0002:00009920       ??_C@_0O@IFGCOPOC@BOTH_T3_BL_TL?$AA@ 20124920     bg_panimate.obj
 0002:00009930       ??_C@_0O@OEINKOHA@BOTH_T3_BL_T_?$AA@ 20124930     bg_panimate.obj
 0002:00009940       ??_C@_0O@CCIBCBGF@BOTH_T3__L_BL?$AA@ 20124940     bg_panimate.obj
 0002:00009950       ??_C@_0O@FLMFLPDF@BOTH_T3__L_T_?$AA@ 20124950     bg_panimate.obj
 0002:00009960       ??_C@_0O@OOGLMBHI@BOTH_T3__L_TR?$AA@ 20124960     bg_panimate.obj
 0002:00009970       ??_C@_0O@FMLIOBIF@BOTH_T3_TL__L?$AA@ 20124970     bg_panimate.obj
 0002:00009980       ??_C@_0O@DBACEPPG@BOTH_T3_TL_T_?$AA@ 20124980     bg_panimate.obj
 0002:00009990       ??_C@_0O@IEKMDBLL@BOTH_T3_TL_TR?$AA@ 20124990     bg_panimate.obj
 0002:000099a0       ??_C@_0O@IIPJNOFK@BOTH_T3_TL__R?$AA@ 201249a0     bg_panimate.obj
 0002:000099b0       ??_C@_0O@OONCGGBF@BOTH_T3_TR_T_?$AA@ 201249b0     bg_panimate.obj
 0002:000099c0       ??_C@_0O@FHCJPHLJ@BOTH_T3_TR__R?$AA@ 201249c0     bg_panimate.obj
 0002:000099d0       ??_C@_0O@IEBFJGNG@BOTH_T3__R_T_?$AA@ 201249d0     bg_panimate.obj
 0002:000099e0       ??_C@_0O@CJBADHFJ@BOTH_T3__R_BR?$AA@ 201249e0     bg_panimate.obj
 0002:000099f0       ??_C@_0O@DLFNIHJD@BOTH_T3_BR_T_?$AA@ 201249f0     bg_panimate.obj
 0002:00009a00       ??_C@_0O@IOPDPJNO@BOTH_T3_BR_TR?$AA@ 20124a00     bg_panimate.obj
 0002:00009a10       ??_C@_0O@IJDHAAAD@BOTH_T3_BL__L?$AA@ 20124a10     bg_panimate.obj
 0002:00009a20       ??_C@_0O@FBCDNADN@BOTH_T3_BL_TR?$AA@ 20124a20     bg_panimate.obj
 0002:00009a30       ??_C@_0O@FNHGDPNM@BOTH_T3_BL__R?$AA@ 20124a30     bg_panimate.obj
 0002:00009a40       ??_C@_0O@EJIIAPPP@BOTH_T3_BL_BR?$AA@ 20124a40     bg_panimate.obj
 0002:00009a50       ??_C@_0O@DKCKPOKH@BOTH_T3__L_TL?$AA@ 20124a50     bg_panimate.obj
 0002:00009a60       ??_C@_0O@OCDOCOJJ@BOTH_T3__L__R?$AA@ 20124a60     bg_panimate.obj
 0002:00009a70       ??_C@_0O@PGMABOLK@BOTH_T3__L_BR?$AA@ 20124a70     bg_panimate.obj
 0002:00009a80       ??_C@_0O@EIEGNBKG@BOTH_T3_TL_BL?$AA@ 20124a80     bg_panimate.obj
 0002:00009a90       ??_C@_0O@JMAHOOHJ@BOTH_T3_TL_BR?$AA@ 20124a90     bg_panimate.obj
 0002:00009aa0       ??_C@_0O@GPAGDMPE@BOTH_T3_T__BL?$AA@ 20124aa0     bg_panimate.obj
 0002:00009ab0       ??_C@_0O@HLPIAMNH@BOTH_T3_T___L?$AA@ 20124ab0     bg_panimate.obj
 0002:00009ac0       ??_C@_0O@HHKNODDG@BOTH_T3_T__TL?$AA@ 20124ac0     bg_panimate.obj
 0002:00009ad0       ??_C@_0O@KDOMNMOJ@BOTH_T3_T__TR?$AA@ 20124ad0     bg_panimate.obj
 0002:00009ae0       ??_C@_0O@KPLJDDAI@BOTH_T3_T___R?$AA@ 20124ae0     bg_panimate.obj
 0002:00009af0       ??_C@_0O@LLEHADCL@BOTH_T3_T__BR?$AA@ 20124af0     bg_panimate.obj
 0002:00009b00       ??_C@_0O@JHJGPIEF@BOTH_T3_TR_BL?$AA@ 20124b00     bg_panimate.obj
 0002:00009b10       ??_C@_0O@IDGIMIGG@BOTH_T3_TR__L?$AA@ 20124b10     bg_panimate.obj
 0002:00009b20       ??_C@_0O@IPDNCHIH@BOTH_T3_TR_TL?$AA@ 20124b20     bg_panimate.obj
 0002:00009b30       ??_C@_0O@EDNHMHJK@BOTH_T3_TR_BR?$AA@ 20124b30     bg_panimate.obj
 0002:00009b40       ??_C@_0O@PNFBAIIG@BOTH_T3__R_BL?$AA@ 20124b40     bg_panimate.obj
 0002:00009b50       ??_C@_0O@OJKPDIKF@BOTH_T3__R__L?$AA@ 20124b50     bg_panimate.obj
 0002:00009b60       ??_C@_0O@OFPKNHEE@BOTH_T3__R_TL?$AA@ 20124b60     bg_panimate.obj
 0002:00009b70       ??_C@_0O@DBLLOIJL@BOTH_T3__R_TR?$AA@ 20124b70     bg_panimate.obj
 0002:00009b80       ??_C@_0O@ECBJBJMD@BOTH_T3_BR_BL?$AA@ 20124b80     bg_panimate.obj
 0002:00009b90       ??_C@_0O@FGOHCJOA@BOTH_T3_BR__L?$AA@ 20124b90     bg_panimate.obj
 0002:00009ba0       ??_C@_0O@FKLCMGAB@BOTH_T3_BR_TL?$AA@ 20124ba0     bg_panimate.obj
 0002:00009bb0       ??_C@_0O@ICKGBGDP@BOTH_T3_BR__R?$AA@ 20124bb0     bg_panimate.obj
 0002:00009bc0       ??_C@_0O@HBMBPPHL@BOTH_A3_TR_BL?$AA@ 20124bc0     bg_panimate.obj
 0002:00009bd0       ??_C@_0O@LHHENHAD@BOTH_A3_BL_TR?$AA@ 20124bd0     bg_panimate.obj
 0002:00009be0       ??_C@_0O@LMOFMBDP@BOTH_A3_BR_TL?$AA@ 20124be0     bg_panimate.obj
 0002:00009bf0       ??_C@_0O@HKFAOJEH@BOTH_A3_TL_BR?$AA@ 20124bf0     bg_panimate.obj
 0002:00009c00       ??_C@_0O@PPIDPJL@BOTH_A3__R__L?$AA@ 20124c00     bg_panimate.obj
 0002:00009c10       ??_C@_0O@EGJCJKH@BOTH_A3__L__R?$AA@ 20124c10     bg_panimate.obj
 0002:00009c20       ??_C@_0O@OILOHKFI@BOTH_A3_T__B_?$AA@ 20124c20     bg_panimate.obj
 0002:00009c30       ??_C@_0O@KPPCOOCM@BOTH_D2_B____?$AA@ 20124c30     bg_panimate.obj
 0002:00009c40       ??_C@_0O@IILCADHO@BOTH_D2_BL___?$AA@ 20124c40     bg_panimate.obj
 0002:00009c50       ??_C@_0O@DHPKBCDL@BOTH_D2__L___?$AA@ 20124c50     bg_panimate.obj
 0002:00009c60       ??_C@_0O@FNDNOCPI@BOTH_D2_TL___?$AA@ 20124c60     bg_panimate.obj
 0002:00009c70       ??_C@_0O@ICONMLBL@BOTH_D2_TR___?$AA@ 20124c70     bg_panimate.obj
 0002:00009c80       ??_C@_0O@OICKDLNI@BOTH_D2__R___?$AA@ 20124c80     bg_panimate.obj
 0002:00009c90       ??_C@_0O@FHGCCKJN@BOTH_D2_BR___?$AA@ 20124c90     bg_panimate.obj
 0002:00009ca0       ??_C@_0O@PLKIHKPE@BOTH_B2_BL___?$AA@ 20124ca0     bg_panimate.obj
 0002:00009cb0       ??_C@_0O@EEOAGLLB@BOTH_B2__L___?$AA@ 20124cb0     bg_panimate.obj
 0002:00009cc0       ??_C@_0O@COCHJLHC@BOTH_B2_TL___?$AA@ 20124cc0     bg_panimate.obj
 0002:00009cd0       ??_C@_0O@JGHHGCA@BOTH_B2_T____?$AA@ 20124cd0     bg_panimate.obj
 0002:00009ce0       ??_C@_0O@PBPHLCJB@BOTH_B2_TR___?$AA@ 20124ce0     bg_panimate.obj
 0002:00009cf0       ??_C@_0O@JLDAECFC@BOTH_B2__R___?$AA@ 20124cf0     bg_panimate.obj
 0002:00009d00       ??_C@_0O@CEHIFDBH@BOTH_B2_BR___?$AA@ 20124d00     bg_panimate.obj
 0002:00009d10       ??_C@_0O@KPFDEPKN@BOTH_R2_TR_S1?$AA@ 20124d10     bg_panimate.obj
 0002:00009d20       ??_C@_0O@KFAMIHMI@BOTH_R2_BL_S1?$AA@ 20124d20     bg_panimate.obj
 0002:00009d30       ??_C@_0O@HKNMKOCL@BOTH_R2_BR_S1?$AA@ 20124d30     bg_panimate.obj
 0002:00009d40       ??_C@_0O@HAIDGGEO@BOTH_R2_TL_S1?$AA@ 20124d40     bg_panimate.obj
 0002:00009d50       ??_C@_0O@MFJELPGO@BOTH_R2__R_S1?$AA@ 20124d50     bg_panimate.obj
 0002:00009d60       ??_C@_0O@BKEEJGIN@BOTH_R2__L_S1?$AA@ 20124d60     bg_panimate.obj
 0002:00009d70       ??_C@_0O@ICEMGKJK@BOTH_R2_B__S1?$AA@ 20124d70     bg_panimate.obj
 0002:00009d80       ??_C@_0O@DACAEICK@BOTH_S2_S1_TR?$AA@ 20124d80     bg_panimate.obj
 0002:00009d90       ??_C@_0O@PMMKKIDH@BOTH_S2_S1_BL?$AA@ 20124d90     bg_panimate.obj
 0002:00009da0       ??_C@_0O@CIILJHOI@BOTH_S2_S1_BR?$AA@ 20124da0     bg_panimate.obj
 0002:00009db0       ??_C@_0O@OEGBHHPF@BOTH_S2_S1_TL?$AA@ 20124db0     bg_panimate.obj
 0002:00009dc0       ??_C@_0O@DMHFKHML@BOTH_S2_S1__R?$AA@ 20124dc0     bg_panimate.obj
 0002:00009dd0       ??_C@_0O@OIDEJIBE@BOTH_S2_S1__L?$AA@ 20124dd0     bg_panimate.obj
 0002:00009de0       ??_C@_0O@IFIODGGH@BOTH_S2_S1_T_?$AA@ 20124de0     bg_panimate.obj
 0002:00009df0       ??_C@_0O@EJMIOPHM@BOTH_T2_BL_TL?$AA@ 20124df0     bg_panimate.obj
 0002:00009e00       ??_C@_0O@CICHKOOO@BOTH_T2_BL_T_?$AA@ 20124e00     bg_panimate.obj
 0002:00009e10       ??_C@_0O@OOCLCBPL@BOTH_T2__L_BL?$AA@ 20124e10     bg_panimate.obj
 0002:00009e20       ??_C@_0O@JHGPLPKL@BOTH_T2__L_T_?$AA@ 20124e20     bg_panimate.obj
 0002:00009e30       ??_C@_0O@CCMBMBOG@BOTH_T2__L_TR?$AA@ 20124e30     bg_panimate.obj
 0002:00009e40       ??_C@_0O@JABCOBBL@BOTH_T2_TL__L?$AA@ 20124e40     bg_panimate.obj
 0002:00009e50       ??_C@_0O@PNKIEPGI@BOTH_T2_TL_T_?$AA@ 20124e50     bg_panimate.obj
 0002:00009e60       ??_C@_0O@EIAGDBCF@BOTH_T2_TL_TR?$AA@ 20124e60     bg_panimate.obj
 0002:00009e70       ??_C@_0O@EEFDNOME@BOTH_T2_TL__R?$AA@ 20124e70     bg_panimate.obj
 0002:00009e80       ??_C@_0O@CCHIGGIL@BOTH_T2_TR_T_?$AA@ 20124e80     bg_panimate.obj
 0002:00009e90       ??_C@_0O@JLIDPHCH@BOTH_T2_TR__R?$AA@ 20124e90     bg_panimate.obj
 0002:00009ea0       ??_C@_0O@EILPJGEI@BOTH_T2__R_T_?$AA@ 20124ea0     bg_panimate.obj
 0002:00009eb0       ??_C@_0O@OFLKDHMH@BOTH_T2__R_BR?$AA@ 20124eb0     bg_panimate.obj
 0002:00009ec0       ??_C@_0O@PHPHIHAN@BOTH_T2_BR_T_?$AA@ 20124ec0     bg_panimate.obj
 0002:00009ed0       ??_C@_0O@ECFJPJEA@BOTH_T2_BR_TR?$AA@ 20124ed0     bg_panimate.obj
 0002:00009ee0       ??_C@_0O@EFJNAAJN@BOTH_T2_BL__L?$AA@ 20124ee0     bg_panimate.obj
 0002:00009ef0       ??_C@_0O@JNIJNAKD@BOTH_T2_BL_TR?$AA@ 20124ef0     bg_panimate.obj
 0002:00009f00       ??_C@_0O@JBNMDPEC@BOTH_T2_BL__R?$AA@ 20124f00     bg_panimate.obj
 0002:00009f10       ??_C@_0O@IFCCAPGB@BOTH_T2_BL_BR?$AA@ 20124f10     bg_panimate.obj
 0002:00009f20       ??_C@_0O@PGIAPODJ@BOTH_T2__L_TL?$AA@ 20124f20     bg_panimate.obj
 0002:00009f30       ??_C@_0O@COJECOAH@BOTH_T2__L__R?$AA@ 20124f30     bg_panimate.obj
 0002:00009f40       ??_C@_0O@DKGKBOCE@BOTH_T2__L_BR?$AA@ 20124f40     bg_panimate.obj
 0002:00009f50       ??_C@_0O@IEOMNBDI@BOTH_T2_TL_BL?$AA@ 20124f50     bg_panimate.obj
 0002:00009f60       ??_C@_0O@FAKNOOOH@BOTH_T2_TL_BR?$AA@ 20124f60     bg_panimate.obj
 0002:00009f70       ??_C@_0O@KDKMDMGK@BOTH_T2_T__BL?$AA@ 20124f70     bg_panimate.obj
 0002:00009f80       ??_C@_0O@LHFCAMEJ@BOTH_T2_T___L?$AA@ 20124f80     bg_panimate.obj
 0002:00009f90       ??_C@_0O@LLAHODKI@BOTH_T2_T__TL?$AA@ 20124f90     bg_panimate.obj
 0002:00009fa0       ??_C@_0O@GPEGNMHH@BOTH_T2_T__TR?$AA@ 20124fa0     bg_panimate.obj
 0002:00009fb0       ??_C@_0O@GDBDDDJG@BOTH_T2_T___R?$AA@ 20124fb0     bg_panimate.obj
 0002:00009fc0       ??_C@_0O@HHONADLF@BOTH_T2_T__BR?$AA@ 20124fc0     bg_panimate.obj
 0002:00009fd0       ??_C@_0O@FLDMPINL@BOTH_T2_TR_BL?$AA@ 20124fd0     bg_panimate.obj
 0002:00009fe0       ??_C@_0O@EPMCMIPI@BOTH_T2_TR__L?$AA@ 20124fe0     bg_panimate.obj
 0002:00009ff0       ??_C@_0O@EDJHCHBJ@BOTH_T2_TR_TL?$AA@ 20124ff0     bg_panimate.obj
 0002:0000a000       ??_C@_0O@IPHNMHAE@BOTH_T2_TR_BR?$AA@ 20125000     bg_panimate.obj
 0002:0000a010       ??_C@_0O@DBPLAIBI@BOTH_T2__R_BL?$AA@ 20125010     bg_panimate.obj
 0002:0000a020       ??_C@_0O@CFAFDIDL@BOTH_T2__R__L?$AA@ 20125020     bg_panimate.obj
 0002:0000a030       ??_C@_0O@CJFANHNK@BOTH_T2__R_TL?$AA@ 20125030     bg_panimate.obj
 0002:0000a040       ??_C@_0O@PNBBOIAF@BOTH_T2__R_TR?$AA@ 20125040     bg_panimate.obj
 0002:0000a050       ??_C@_0O@IOLDBJFN@BOTH_T2_BR_BL?$AA@ 20125050     bg_panimate.obj
 0002:0000a060       ??_C@_0O@JKENCJHO@BOTH_T2_BR__L?$AA@ 20125060     bg_panimate.obj
 0002:0000a070       ??_C@_0O@JGBIMGJP@BOTH_T2_BR_TL?$AA@ 20125070     bg_panimate.obj
 0002:0000a080       ??_C@_0O@EOAMBGKB@BOTH_T2_BR__R?$AA@ 20125080     bg_panimate.obj
 0002:0000a090       ??_C@_0O@LNGLPPOF@BOTH_A2_TR_BL?$AA@ 20125090     bg_panimate.obj
 0002:0000a0a0       ??_C@_0O@HLNONHJN@BOTH_A2_BL_TR?$AA@ 201250a0     bg_panimate.obj
 0002:0000a0b0       ??_C@_0O@HAEPMBKB@BOTH_A2_BR_TL?$AA@ 201250b0     bg_panimate.obj
 0002:0000a0c0       ??_C@_0O@LGPKOJNJ@BOTH_A2_TL_BR?$AA@ 201250c0     bg_panimate.obj
 0002:0000a0d0       ??_C@_0O@MDFCDPAF@BOTH_A2__R__L?$AA@ 201250d0     bg_panimate.obj
 0002:0000a0e0       ??_C@_0O@MIMDCJDJ@BOTH_A2__L__R?$AA@ 201250e0     bg_panimate.obj
 0002:0000a0f0       ??_C@_0O@CEBEHKMG@BOTH_A2_T__B_?$AA@ 201250f0     bg_panimate.obj
 0002:0000a100       ??_C@_0O@CBHNOJMP@BOTH_D1_B____?$AA@ 20125100     bg_panimate.obj
 0002:0000a110       ??_C@_0O@GDNAEJN@BOTH_D1_BL___?$AA@ 20125110     bg_panimate.obj
 0002:0000a120       ??_C@_0O@LJHFBFNI@BOTH_D1__L___?$AA@ 20125120     bg_panimate.obj
 0002:0000a130       ??_C@_0O@NDLCOFBL@BOTH_D1_TL___?$AA@ 20125130     bg_panimate.obj
 0002:0000a140       ??_C@_0O@MGCMMPI@BOTH_D1_TR___?$AA@ 20125140     bg_panimate.obj
 0002:0000a150       ??_C@_0O@GGKFDMDL@BOTH_D1__R___?$AA@ 20125150     bg_panimate.obj
 0002:0000a160       ??_C@_0O@NJONCNHO@BOTH_D1_BR___?$AA@ 20125160     bg_panimate.obj
 0002:0000a170       ??_C@_0O@HFCHHNBH@BOTH_B1_BL___?$AA@ 20125170     bg_panimate.obj
 0002:0000a180       ??_C@_0O@MKGPGMFC@BOTH_B1__L___?$AA@ 20125180     bg_panimate.obj
 0002:0000a190       ??_C@_0O@KAKIJMJB@BOTH_B1_TL___?$AA@ 20125190     bg_panimate.obj
 0002:0000a1a0       ??_C@_0O@IHOIHBMD@BOTH_B1_T____?$AA@ 201251a0     bg_panimate.obj
 0002:0000a1b0       ??_C@_0O@HPHILFHC@BOTH_B1_TR___?$AA@ 201251b0     bg_panimate.obj
 0002:0000a1c0       ??_C@_0O@BFLPEFLB@BOTH_B1__R___?$AA@ 201251c0     bg_panimate.obj
 0002:0000a1d0       ??_C@_0O@KKPHFEPE@BOTH_B1_BR___?$AA@ 201251d0     bg_panimate.obj
 0002:0000a1e0       ??_C@_0O@CBNMEIEO@BOTH_R1_TR_S1?$AA@ 201251e0     bg_panimate.obj
 0002:0000a1f0       ??_C@_0O@CLIDIACL@BOTH_R1_BL_S1?$AA@ 201251f0     bg_panimate.obj
 0002:0000a200       ??_C@_0O@PEFDKJMI@BOTH_R1_BR_S1?$AA@ 20125200     bg_panimate.obj
 0002:0000a210       ??_C@_0O@POAMGBKN@BOTH_R1_TL_S1?$AA@ 20125210     bg_panimate.obj
 0002:0000a220       ??_C@_0O@ELBLLIIN@BOTH_R1__R_S1?$AA@ 20125220     bg_panimate.obj
 0002:0000a230       ??_C@_0O@JEMLJBGO@BOTH_R1__L_S1?$AA@ 20125230     bg_panimate.obj
 0002:0000a240       ??_C@_0O@MMDGNHJ@BOTH_R1_B__S1?$AA@ 20125240     bg_panimate.obj
 0002:0000a250       ??_C@_0O@LOKPEPMJ@BOTH_S1_S1_TR?$AA@ 20125250     bg_panimate.obj
 0002:0000a260       ??_C@_0O@HCEFKPNE@BOTH_S1_S1_BL?$AA@ 20125260     bg_panimate.obj
 0002:0000a270       ??_C@_0O@KGAEJAAL@BOTH_S1_S1_BR?$AA@ 20125270     bg_panimate.obj
 0002:0000a280       ??_C@_0O@GKOOHABG@BOTH_S1_S1_TL?$AA@ 20125280     bg_panimate.obj
 0002:0000a290       ??_C@_0O@LCPKKACI@BOTH_S1_S1__R?$AA@ 20125290     bg_panimate.obj
 0002:0000a2a0       ??_C@_0O@GGLLJPPH@BOTH_S1_S1__L?$AA@ 201252a0     bg_panimate.obj
 0002:0000a2b0       ??_C@_0O@LABDBIE@BOTH_S1_S1_T_?$AA@ 201252b0     bg_panimate.obj
 0002:0000a2c0       ??_C@_0O@MHEHOIJP@BOTH_T1_BL_TL?$AA@ 201252c0     bg_panimate.obj
 0002:0000a2d0       ??_C@_0O@KGKIKJAN@BOTH_T1_BL_T_?$AA@ 201252d0     bg_panimate.obj
 0002:0000a2e0       ??_C@_0O@GAKECGBI@BOTH_T1__L_BL?$AA@ 201252e0     bg_panimate.obj
 0002:0000a2f0       ??_C@_0O@BJOALIEI@BOTH_T1__L_T_?$AA@ 201252f0     bg_panimate.obj
 0002:0000a300       ??_C@_0O@KMEOMGAF@BOTH_T1__L_TR?$AA@ 20125300     bg_panimate.obj
 0002:0000a310       ??_C@_0O@BOJNOGPI@BOTH_T1_TL__L?$AA@ 20125310     bg_panimate.obj
 0002:0000a320       ??_C@_0O@HDCHEIIL@BOTH_T1_TL_T_?$AA@ 20125320     bg_panimate.obj
 0002:0000a330       ??_C@_0O@MGIJDGMG@BOTH_T1_TL_TR?$AA@ 20125330     bg_panimate.obj
 0002:0000a340       ??_C@_0O@MKNMNJCH@BOTH_T1_TL__R?$AA@ 20125340     bg_panimate.obj
 0002:0000a350       ??_C@_0O@KMPHGBGI@BOTH_T1_TR_T_?$AA@ 20125350     bg_panimate.obj
 0002:0000a360       ??_C@_0O@BFAMPAME@BOTH_T1_TR__R?$AA@ 20125360     bg_panimate.obj
 0002:0000a370       ??_C@_0O@MGDAJBKL@BOTH_T1__R_T_?$AA@ 20125370     bg_panimate.obj
 0002:0000a380       ??_C@_0O@GLDFDACE@BOTH_T1__R_BR?$AA@ 20125380     bg_panimate.obj
 0002:0000a390       ??_C@_0O@HJHIIAOO@BOTH_T1_BR_T_?$AA@ 20125390     bg_panimate.obj
 0002:0000a3a0       ??_C@_0O@MMNGPOKD@BOTH_T1_BR_TR?$AA@ 201253a0     bg_panimate.obj
 0002:0000a3b0       ??_C@_0O@MLBCAHHO@BOTH_T1_BL__L?$AA@ 201253b0     bg_panimate.obj
 0002:0000a3c0       ??_C@_0O@BDAGNHEA@BOTH_T1_BL_TR?$AA@ 201253c0     bg_panimate.obj
 0002:0000a3d0       ??_C@_0O@BPFDDIKB@BOTH_T1_BL__R?$AA@ 201253d0     bg_panimate.obj
 0002:0000a3e0       ??_C@_0O@LKNAIIC@BOTH_T1_BL_BR?$AA@ 201253e0     bg_panimate.obj
 0002:0000a3f0       ??_C@_0O@HIAPPJNK@BOTH_T1__L_TL?$AA@ 201253f0     bg_panimate.obj
 0002:0000a400       ??_C@_0O@KABLCJOE@BOTH_T1__L__R?$AA@ 20125400     bg_panimate.obj
 0002:0000a410       ??_C@_0O@LEOFBJMH@BOTH_T1__L_BR?$AA@ 20125410     bg_panimate.obj
 0002:0000a420       ??_C@_0O@KGDNGNL@BOTH_T1_TL_BL?$AA@ 20125420     bg_panimate.obj
 0002:0000a430       ??_C@_0O@NOCCOJAE@BOTH_T1_TL_BR?$AA@ 20125430     bg_panimate.obj
 0002:0000a440       ??_C@_0O@CNCDDLIJ@BOTH_T1_T__BL?$AA@ 20125440     bg_panimate.obj
 0002:0000a450       ??_C@_0O@DJNNALKK@BOTH_T1_T___L?$AA@ 20125450     bg_panimate.obj
 0002:0000a460       ??_C@_0O@DFIIOEEL@BOTH_T1_T__TL?$AA@ 20125460     bg_panimate.obj
 0002:0000a470       ??_C@_0O@OBMJNLJE@BOTH_T1_T__TR?$AA@ 20125470     bg_panimate.obj
 0002:0000a480       ??_C@_0O@ONJMDEHF@BOTH_T1_T___R?$AA@ 20125480     bg_panimate.obj
 0002:0000a490       ??_C@_0O@PJGCAEFG@BOTH_T1_T__BR?$AA@ 20125490     bg_panimate.obj
 0002:0000a4a0       ??_C@_0O@NFLDPPDI@BOTH_T1_TR_BL?$AA@ 201254a0     bg_panimate.obj
 0002:0000a4b0       ??_C@_0O@MBENMPBL@BOTH_T1_TR__L?$AA@ 201254b0     bg_panimate.obj
 0002:0000a4c0       ??_C@_0O@MNBICAPK@BOTH_T1_TR_TL?$AA@ 201254c0     bg_panimate.obj
 0002:0000a4d0       ??_C@_0O@BPCMAOH@BOTH_T1_TR_BR?$AA@ 201254d0     bg_panimate.obj
 0002:0000a4e0       ??_C@_0O@LPHEAPPL@BOTH_T1__R_BL?$AA@ 201254e0     bg_panimate.obj
 0002:0000a4f0       ??_C@_0O@KLIKDPNI@BOTH_T1__R__L?$AA@ 201254f0     bg_panimate.obj
 0002:0000a500       ??_C@_0O@KHNPNADJ@BOTH_T1__R_TL?$AA@ 20125500     bg_panimate.obj
 0002:0000a510       ??_C@_0O@HDJOOPOG@BOTH_T1__R_TR?$AA@ 20125510     bg_panimate.obj
 0002:0000a520       ??_C@_0O@DMBOLO@BOTH_T1_BR_BL?$AA@ 20125520     bg_panimate.obj
 0002:0000a530       ??_C@_0O@BEMCCOJN@BOTH_T1_BR__L?$AA@ 20125530     bg_panimate.obj
 0002:0000a540       ??_C@_0O@BIJHMBHM@BOTH_T1_BR_TL?$AA@ 20125540     bg_panimate.obj
 0002:0000a550       ??_C@_0O@MAIDBBEC@BOTH_T1_BR__R?$AA@ 20125550     bg_panimate.obj
 0002:0000a560       ??_C@_0O@DDOEPIAG@BOTH_A1_TR_BL?$AA@ 20125560     bg_panimate.obj
 0002:0000a570       ??_C@_0O@PFFBNAHO@BOTH_A1_BL_TR?$AA@ 20125570     bg_panimate.obj
 0002:0000a580       ??_C@_0O@POMAMGEC@BOTH_A1_BR_TL?$AA@ 20125580     bg_panimate.obj
 0002:0000a590       ??_C@_0O@DIHFOODK@BOTH_A1_TL_BR?$AA@ 20125590     bg_panimate.obj
 0002:0000a5a0       ??_C@_0O@ENNNDIOG@BOTH_A1__R__L?$AA@ 201255a0     bg_panimate.obj
 0002:0000a5b0       ??_C@_0O@EGEMCONK@BOTH_A1__L__R?$AA@ 201255b0     bg_panimate.obj
 0002:0000a5c0       ??_C@_0O@KKJLHNCF@BOTH_A1_T__B_?$AA@ 201255c0     bg_panimate.obj
 0002:0000a5d0       ??_C@_0BD@KGEHHFNO@BOTH_THERMAL_THROW?$AA@ 201255d0     bg_panimate.obj
 0002:0000a5e4       ??_C@_0BD@FIPEGIGM@BOTH_THERMAL_READY?$AA@ 201255e4     bg_panimate.obj
 0002:0000a5f8       ??_C@_0M@JENABCOK@BOTH_MELEE2?$AA@ 201255f8     bg_panimate.obj
 0002:0000a604       ??_C@_0M@LPPNEBCJ@BOTH_MELEE1?$AA@ 20125604     bg_panimate.obj
 0002:0000a610       ??_C@_0O@LECODOED@BOTH_ATTACK11?$AA@ 20125610     bg_panimate.obj
 0002:0000a620       ??_C@_0O@KNDFAPAC@BOTH_ATTACK10?$AA@ 20125620     bg_panimate.obj
 0002:0000a630       ??_C@_0N@CCAENDEA@BOTH_ATTACK7?$AA@ 20125630     bg_panimate.obj
 0002:0000a640       ??_C@_0N@DLBPOCAB@BOTH_ATTACK6?$AA@ 20125640     bg_panimate.obj
 0002:0000a650       ??_C@_0N@BADCLBMC@BOTH_ATTACK5?$AA@ 20125650     bg_panimate.obj
 0002:0000a660       ??_C@_0N@JCJIAID@BOTH_ATTACK4?$AA@ 20125660     bg_panimate.obj
 0002:0000a670       ??_C@_0N@EGGIBGEE@BOTH_ATTACK3?$AA@ 20125670     bg_panimate.obj
 0002:0000a680       ??_C@_0N@FPHDCHAF@BOTH_ATTACK2?$AA@ 20125680     bg_panimate.obj
 0002:0000a690       ??_C@_0N@HEFOHEMG@BOTH_ATTACK1?$AA@ 20125690     bg_panimate.obj
 0002:0000a6a0       ??_C@_0M@LPLOINIF@BOTH_PAIN18?$AA@ 201256a0     bg_panimate.obj
 0002:0000a6ac       ??_C@_0M@DICGJBEK@BOTH_PAIN17?$AA@ 201256ac     bg_panimate.obj
 0002:0000a6b8       ??_C@_0M@CBDNKAAL@BOTH_PAIN16?$AA@ 201256b8     bg_panimate.obj
 0002:0000a6c4       ??_C@_0M@KBAPDMI@BOTH_PAIN15?$AA@ 201256c4     bg_panimate.obj
 0002:0000a6d0       ??_C@_0M@BDALMCIJ@BOTH_PAIN14?$AA@ 201256d0     bg_panimate.obj
 0002:0000a6dc       ??_C@_0M@FMEKFEEO@BOTH_PAIN13?$AA@ 201256dc     bg_panimate.obj
 0002:0000a6e8       ??_C@_0M@EFFBGFAP@BOTH_PAIN12?$AA@ 201256e8     bg_panimate.obj
 0002:0000a6f4       ??_C@_0M@GOHMDGMM@BOTH_PAIN11?$AA@ 201256f4     bg_panimate.obj
 0002:0000a700       ??_C@_0M@HHGHAHIN@BOTH_PAIN10?$AA@ 20125700     bg_panimate.obj
 0002:0000a70c       ??_C@_0L@IODHKBKF@BOTH_PAIN9?$AA@ 2012570c     bg_panimate.obj
 0002:0000a718       ??_C@_0L@JHCMJAOE@BOTH_PAIN8?$AA@ 20125718     bg_panimate.obj
 0002:0000a724       ??_C@_0L@BALEIMCL@BOTH_PAIN7?$AA@ 20125724     bg_panimate.obj
 0002:0000a730       ??_C@_0L@JKPLNGK@BOTH_PAIN6?$AA@ 20125730     bg_panimate.obj
 0002:0000a73c       ??_C@_0L@CCICOOKJ@BOTH_PAIN5?$AA@ 2012573c     bg_panimate.obj
 0002:0000a748       ??_C@_0L@DLJJNPOI@BOTH_PAIN4?$AA@ 20125748     bg_panimate.obj
 0002:0000a754       ??_C@_0L@HENIEJCP@BOTH_PAIN3?$AA@ 20125754     bg_panimate.obj
 0002:0000a760       ??_C@_0L@GNMDHIGO@BOTH_PAIN2?$AA@ 20125760     bg_panimate.obj
 0002:0000a76c       ??_C@_0L@EGOOCLKN@BOTH_PAIN1?$AA@ 2012576c     bg_panimate.obj
 0002:0000a778       ??_C@_0BE@FGJIJAMF@BOTH_DISMEMBER_LARM?$AA@ 20125778     bg_panimate.obj
 0002:0000a78c       ??_C@_0BE@IJEILJCG@BOTH_DISMEMBER_RARM?$AA@ 2012578c     bg_panimate.obj
 0002:0000a7a0       ??_C@_0BE@JIKEDMIE@BOTH_DISMEMBER_RLEG?$AA@ 201257a0     bg_panimate.obj
 0002:0000a7b4       ??_C@_0BE@EHHEBFGH@BOTH_DISMEMBER_LLEG?$AA@ 201257b4     bg_panimate.obj
 0002:0000a7c8       ??_C@_0BG@CFOELION@BOTH_DISMEMBER_TORSO1?$AA@ 201257c8     bg_panimate.obj
 0002:0000a7e0       ??_C@_0BF@OGJIODF@BOTH_DISMEMBER_HEAD1?$AA@ 201257e0     bg_panimate.obj
 0002:0000a7f8       ??_C@_0P@BJPINMOA@BOTH_DEADFLOP2?$AA@ 201257f8     bg_panimate.obj
 0002:0000a808       ??_C@_0P@DCNFIPCD@BOTH_DEADFLOP1?$AA@ 20125808     bg_panimate.obj
 0002:0000a818       ??_C@_0BD@BHDKBOHF@BOTH_FALLDEAD1LAND?$AA@ 20125818     bg_panimate.obj
 0002:0000a82c       ??_C@_0BC@DDLFNCPA@BOTH_STUMBLEDEAD1?$AA@ 2012582c     bg_panimate.obj
 0002:0000a840       ??_C@_0BA@HDEKJGIF@BOTH_LYINGDEAD1?$AA@ 20125840     bg_panimate.obj
 0002:0000a850       ??_C@_0BD@OGHNINBL@BOTH_DEADBACKWARD2?$AA@ 20125850     bg_panimate.obj
 0002:0000a864       ??_C@_0BD@MNFANONI@BOTH_DEADBACKWARD1?$AA@ 20125864     bg_panimate.obj
 0002:0000a878       ??_C@_0BC@OHBPMGIK@BOTH_DEADFORWARD2?$AA@ 20125878     bg_panimate.obj
 0002:0000a88c       ??_C@_0BC@MMDCJFEJ@BOTH_DEADFORWARD1?$AA@ 2012588c     bg_panimate.obj
 0002:0000a8a0       ??_C@_0M@FPJLBMPP@BOTH_DEAD25?$AA@ 201258a0     bg_panimate.obj
 0002:0000a8ac       ??_C@_0M@EGIACNLO@BOTH_DEAD24?$AA@ 201258ac     bg_panimate.obj
 0002:0000a8b8       ??_C@_0M@JMBLLHJ@BOTH_DEAD23?$AA@ 201258b8     bg_panimate.obj
 0002:0000a8c4       ??_C@_0M@BANKIKDI@BOTH_DEAD22?$AA@ 201258c4     bg_panimate.obj
 0002:0000a8d0       ??_C@_0M@DLPHNJPL@BOTH_DEAD21?$AA@ 201258d0     bg_panimate.obj
 0002:0000a8dc       ??_C@_0M@CCOMOILK@BOTH_DEAD20?$AA@ 201258dc     bg_panimate.obj
 0002:0000a8e8       ??_C@_0M@PBGIONKK@BOTH_DEAD19?$AA@ 201258e8     bg_panimate.obj
 0002:0000a8f4       ??_C@_0M@OIHDNMOL@BOTH_DEAD18?$AA@ 201258f4     bg_panimate.obj
 0002:0000a900       ??_C@_0M@GPOLMACE@BOTH_DEAD17?$AA@ 20125900     bg_panimate.obj
 0002:0000a90c       ??_C@_0M@HGPAPBGF@BOTH_DEAD16?$AA@ 2012590c     bg_panimate.obj
 0002:0000a918       ??_C@_0M@FNNNKCKG@BOTH_DEAD15?$AA@ 20125918     bg_panimate.obj
 0002:0000a924       ??_C@_0M@EEMGJDOH@BOTH_DEAD14?$AA@ 20125924     bg_panimate.obj
 0002:0000a930       ??_C@_0M@LIHAFCA@BOTH_DEAD13?$AA@ 20125930     bg_panimate.obj
 0002:0000a93c       ??_C@_0M@BCJMDEGB@BOTH_DEAD12?$AA@ 2012593c     bg_panimate.obj
 0002:0000a948       ??_C@_0M@DJLBGHKC@BOTH_DEAD11?$AA@ 20125948     bg_panimate.obj
 0002:0000a954       ??_C@_0M@CAKKFGOD@BOTH_DEAD10?$AA@ 20125954     bg_panimate.obj
 0002:0000a960       ??_C@_0L@CLNDOKNB@BOTH_DEAD9?$AA@ 20125960     bg_panimate.obj
 0002:0000a96c       ??_C@_0L@DCMINLJA@BOTH_DEAD8?$AA@ 2012596c     bg_panimate.obj
 0002:0000a978       ??_C@_0L@LFFAMHFP@BOTH_DEAD7?$AA@ 20125978     bg_panimate.obj
 0002:0000a984       ??_C@_0L@KMELPGBO@BOTH_DEAD6?$AA@ 20125984     bg_panimate.obj
 0002:0000a990       ??_C@_0L@IHGGKFNN@BOTH_DEAD5?$AA@ 20125990     bg_panimate.obj
 0002:0000a99c       ??_C@_0L@JOHNJEJM@BOTH_DEAD4?$AA@ 2012599c     bg_panimate.obj
 0002:0000a9a8       ??_C@_0L@NBDMACFL@BOTH_DEAD3?$AA@ 201259a8     bg_panimate.obj
 0002:0000a9b4       ??_C@_0L@MICHDDBK@BOTH_DEAD2?$AA@ 201259b4     bg_panimate.obj
 0002:0000a9c0       ??_C@_0L@ODAKGANJ@BOTH_DEAD1?$AA@ 201259c0     bg_panimate.obj
 0002:0000a9cc       ??_C@_0BE@CACMPNDI@BOTH_DEATH_CROUCHED?$AA@ 201259cc     bg_panimate.obj
 0002:0000a9e0       ??_C@_0BG@GMBJBMLI@BOTH_DEATH_FALLING_UP?$AA@ 201259e0     bg_panimate.obj
 0002:0000a9f8       ??_C@_0BG@KFLMOKCA@BOTH_DEATH_FALLING_DN?$AA@ 201259f8     bg_panimate.obj
 0002:0000aa10       ??_C@_0BE@GLFNKCIG@BOTH_DEATH_LYING_DN?$AA@ 20125a10     bg_panimate.obj
 0002:0000aa24       ??_C@_0BE@KCPIFEBO@BOTH_DEATH_LYING_UP?$AA@ 20125a24     bg_panimate.obj
 0002:0000aa38       ??_C@_0BE@GAFFKNDC@BOTH_DEATH_SPIN_180?$AA@ 20125a38     bg_panimate.obj
 0002:0000aa4c       ??_C@_0BF@CCDEOLBH@BOTH_DEATH_SPIN_90_L?$AA@ 20125a4c     bg_panimate.obj
 0002:0000aa64       ??_C@_0BF@PGHFNEMI@BOTH_DEATH_SPIN_90_R?$AA@ 20125a64     bg_panimate.obj
 0002:0000aa7c       ??_C@_0BA@PMBFHAFE@BOTH_DEATH_FLIP?$AA@ 20125a7c     bg_panimate.obj
 0002:0000aa8c       ??_C@_0BA@JLHMHBEO@BOTH_DEATH_ROLL?$AA@ 20125a8c     bg_panimate.obj
 0002:0000aa9c       ??_C@_0BE@KLPONOFB@BOTH_FALLDEATH1LAND?$AA@ 20125a9c     bg_panimate.obj
 0002:0000aab0       ??_C@_0BF@BGGMCFAN@BOTH_FALLDEATH1INAIR?$AA@ 20125ab0     bg_panimate.obj
 0002:0000aac8       ??_C@_0BA@MMMHHMBO@BOTH_FALLDEATH1?$AA@ 20125ac8     bg_panimate.obj
 0002:0000aad8       ??_C@_0BD@HAOKEEDM@BOTH_STUMBLEDEATH1?$AA@ 20125ad8     bg_panimate.obj
 0002:0000aaec       ??_C@_0BB@FAMFDOML@BOTH_LYINGDEATH1?$AA@ 20125aec     bg_panimate.obj
 0002:0000ab00       ??_C@_0BA@LIHBIFLP@BOTH_DEATH1IDLE?$AA@ 20125b00     bg_panimate.obj
 0002:0000ab10       ??_C@_0BE@OINPDLJH@BOTH_DEATHBACKWARD2?$AA@ 20125b10     bg_panimate.obj
 0002:0000ab24       ??_C@_0BE@MDPCGIFE@BOTH_DEATHBACKWARD1?$AA@ 20125b24     bg_panimate.obj
 0002:0000ab38       ??_C@_0BD@IHDKEJMD@BOTH_DEATHFORWARD3?$AA@ 20125b38     bg_panimate.obj
 0002:0000ab4c       ??_C@_0BD@JOCBHIIC@BOTH_DEATHFORWARD2?$AA@ 20125b4c     bg_panimate.obj
 0002:0000ab60       ??_C@_0BD@LFAMCLEB@BOTH_DEATHFORWARD1?$AA@ 20125b60     bg_panimate.obj
 0002:0000ab74       ??_C@_0N@OOEBHHNI@BOTH_DEATH25?$AA@ 20125b74     bg_panimate.obj
 0002:0000ab84       ??_C@_0N@PHFKEGJJ@BOTH_DEATH24?$AA@ 20125b84     bg_panimate.obj
 0002:0000ab94       ??_C@_0N@LIBLNAFO@BOTH_DEATH23?$AA@ 20125b94     bg_panimate.obj
 0002:0000aba4       ??_C@_0N@KBAAOBBP@BOTH_DEATH22?$AA@ 20125ba4     bg_panimate.obj
 0002:0000abb4       ??_C@_0N@IKCNLCNM@BOTH_DEATH21?$AA@ 20125bb4     bg_panimate.obj
 0002:0000abc4       ??_C@_0N@JDDGIDJN@BOTH_DEATH20?$AA@ 20125bc4     bg_panimate.obj
 0002:0000abd4       ??_C@_0N@EALCIGIN@BOTH_DEATH19?$AA@ 20125bd4     bg_panimate.obj
 0002:0000abe4       ??_C@_0N@FJKJLHMM@BOTH_DEATH18?$AA@ 20125be4     bg_panimate.obj
 0002:0000abf4       ??_C@_0N@NODBKLAD@BOTH_DEATH17?$AA@ 20125bf4     bg_panimate.obj
 0002:0000ac04       ??_C@_0N@MHCKJKEC@BOTH_DEATH16?$AA@ 20125c04     bg_panimate.obj
 0002:0000ac14       ??_C@_0N@OMAHMJIB@BOTH_DEATH15?$AA@ 20125c14     bg_panimate.obj
 0002:0000ac24       ??_C@_0N@PFBMPIMA@BOTH_DEATH14?$AA@ 20125c24     bg_panimate.obj
 0002:0000ac34       ??_C@_0N@LKFNGOAH@BOTH_DEATH13?$AA@ 20125c34     bg_panimate.obj
 0002:0000ac44       ??_C@_0N@KDEGFPEG@BOTH_DEATH12?$AA@ 20125c44     bg_panimate.obj
 0002:0000ac54       ??_C@_0N@IIGLAMIF@BOTH_DEATH11?$AA@ 20125c54     bg_panimate.obj
 0002:0000ac64       ??_C@_0N@JBHADNME@BOTH_DEATH10?$AA@ 20125c64     bg_panimate.obj
 0002:0000ac74       ??_C@_0M@PKFBOJOK@BOTH_DEATH9?$AA@ 20125c74     bg_panimate.obj
 0002:0000ac80       ??_C@_0M@ODEKNIKL@BOTH_DEATH8?$AA@ 20125c80     bg_panimate.obj
 0002:0000ac8c       ??_C@_0M@GENCMEGE@BOTH_DEATH7?$AA@ 20125c8c     bg_panimate.obj
 0002:0000ac98       ??_C@_0M@HNMJPFCF@BOTH_DEATH6?$AA@ 20125c98     bg_panimate.obj
 0002:0000aca4       ??_C@_0M@FGOEKGOG@BOTH_DEATH5?$AA@ 20125ca4     bg_panimate.obj
 0002:0000acb0       ??_C@_0M@EPPPJHKH@BOTH_DEATH4?$AA@ 20125cb0     bg_panimate.obj
 0002:0000acbc       ??_C@_0M@LOABGA@BOTH_DEATH3?$AA@ 20125cbc     bg_panimate.obj
 0002:0000acc8       ??_C@_0M@BJKFDACB@BOTH_DEATH2?$AA@ 20125cc8     bg_panimate.obj
 0002:0000acd4       ??_C@_0M@DCIIGDOC@BOTH_DEATH1?$AA@ 20125cd4     bg_panimate.obj
 0002:0000ace0       ??_C@_09OODFOJKI@FACE_DEAD?$AA@ 20125ce0     bg_panimate.obj
 0002:0000acec       ??_C@_0L@NHKOPMDL@FACE_FROWN?$AA@ 20125cec     bg_panimate.obj
 0002:0000acf8       ??_C@_0L@LAOJKFMG@FACE_SMILE?$AA@ 20125cf8     bg_panimate.obj
 0002:0000ad04       ??_C@_0L@MMCADNDE@FACE_ALERT?$AA@ 20125d04     bg_panimate.obj
 0002:0000ad10       ??_C@_0L@GMKJNGHP@FACE_TALK4?$AA@ 20125d10     bg_panimate.obj
 0002:0000ad1c       ??_C@_0L@CDOIEALI@FACE_TALK3?$AA@ 20125d1c     bg_panimate.obj
 0002:0000ad28       ??_C@_0L@DKPDHBPJ@FACE_TALK2?$AA@ 20125d28     bg_panimate.obj
 0002:0000ad34       ??_C@_0L@BBNOCCDK@FACE_TALK1?$AA@ 20125d34     bg_panimate.obj
 0002:0000ad40       ??_C@_0L@IMFBDHL@FACE_TALK0?$AA@ 20125d40     bg_panimate.obj
 0002:0000ad4c       ??_C@_0BE@KLHOHCCI@ERROR?3?5anim?5?$CFd?5?$DM?50?6?$AA@ 20125d4c     bg_panimate.obj
 0002:0000ad60       ??_C@_0DD@BJENEBEN@?$CFs?5exceeds?5the?5allowed?5game?9side@ 20125d60     bg_panimate.obj
 0002:0000ad94       ??_C@_0BH@OHJDKHCL@players?1rockettrooper?1?$AA@ 20125d94     bg_panimate.obj
 0002:0000adac       ??_C@_0BD@IAGLKLFM@players?1_humanoid?1?$AA@ 20125dac     bg_panimate.obj
 0002:0000adc0       __real@3fe4ccccc0000000    20125dc0     bg_panimate.obj
 0002:0000adc8       __real@3fe8000000000000    20125dc8     bg_panimate.obj
 0002:0000add0       __real@3ff8000000000000    20125dd0     bg_panimate.obj
 0002:0000add8       __real@3ff4cccccccccccd    20125dd8     bg_panimate.obj
 0002:0000ade0       __real@3ffb333333333333    20125de0     bg_panimate.obj
 0002:0000adf0       __real@4038000000000000    20125df0     bg_pmove.obj
 0002:0000adf8       __real@4028000000000000    20125df8     bg_pmove.obj
 0002:0000ae00       __real@4072c00000000000    20125e00     bg_pmove.obj
 0002:0000ae08       ??_C@_0O@LBBMLEKM@?$CKfalling1?4wav?$AA@ 20125e08     bg_pmove.obj
 0002:0000ae18       __real@3f689374bc6a7efa    20125e18     bg_pmove.obj
 0002:0000ae20       __real@3fc0000000000000    20125e20     bg_pmove.obj
 0002:0000ae28       __real@3e800000            20125e28     bg_pmove.obj
 0002:0000ae30       __real@3fb999999999999a    20125e30     bg_pmove.obj
 0002:0000ae38       __real@437a0000            20125e38     bg_pmove.obj
 0002:0000ae3c       __real@432f0000            20125e3c     bg_pmove.obj
 0002:0000ae40       __real@bfeff7cee0000000    20125e40     bg_pmove.obj
 0002:0000ae48       __real@c3000000            20125e48     bg_pmove.obj
 0002:0000ae4c       __real@c2b40000            20125e4c     bg_pmove.obj
 0002:0000ae50       __real@41c00000            20125e50     bg_pmove.obj
 0002:0000ae58       __real@c072c00000000000    20125e58     bg_pmove.obj
 0002:0000ae60       __real@c060000000000000    20125e60     bg_pmove.obj
 0002:0000ae68       __real@4004000000000000    20125e68     bg_pmove.obj
 0002:0000ae70       __real@c069000000000000    20125e70     bg_pmove.obj
 0002:0000ae78       __real@c4960000            20125e78     bg_pmove.obj
 0002:0000ae80       __real@4002000000000000    20125e80     bg_pmove.obj
 0002:0000ae88       __real@43610000            20125e88     bg_pmove.obj
 0002:0000ae90       __real@406c200000000000    20125e90     bg_pmove.obj
 0002:0000ae98       __real@4024000000000000    20125e98     bg_pmove.obj
 0002:0000aea0       __real@c3160000            20125ea0     bg_pmove.obj
 0002:0000aea4       __real@43160000            20125ea4     bg_pmove.obj
 0002:0000aea8       __real@3f8020c5            20125ea8     bg_pmove.obj
 0002:0000aeac       __real@c2700000            20125eac     bg_pmove.obj
 0002:0000aeb0       __real@4008000000000000    20125eb0     bg_pmove.obj
 0002:0000aeb8       __real@4039000000000000    20125eb8     bg_pmove.obj
 0002:0000aec0       __real@3f1a36e2eb1c432d    20125ec0     bg_pmove.obj
 0002:0000aec8       ??_C@_0N@KJCNHCBK@?$CFi?3allsolid?6?$AA@ 20125ec8     bg_pmove.obj
 0002:0000aed8       ??_C@_08EOGJDHPF@?$CFi?3lift?6?$AA@ 20125ed8     bg_pmove.obj
 0002:0000aee8       __real@3f93333340000000    20125ee8     bg_pmove.obj
 0002:0000aef0       __real@4070000000000000    20125ef0     bg_pmove.obj
 0002:0000aef8       ??_C@_08KACHPCJN@?$CFi?3Land?6?$AA@ 20125ef8     bg_pmove.obj
 0002:0000af04       ??_C@_09OPMLNNOA@?$CFi?3steep?6?$AA@ 20125f04     bg_pmove.obj
 0002:0000af10       ??_C@_0M@CKJFDFGH@?$CFi?3kickoff?6?$AA@ 20125f10     bg_pmove.obj
 0002:0000af20       __real@c038000000000000    20125f20     bg_pmove.obj
 0002:0000af28       __real@40800000            20125f28     bg_pmove.obj
 0002:0000af30       __real@4044000000000000    20125f30     bg_pmove.obj
 0002:0000af38       __real@c000000000000000    20125f38     bg_pmove.obj
 0002:0000af40       __real@c008000000000000    20125f40     bg_pmove.obj
 0002:0000af48       __real@c010000000000000    20125f48     bg_pmove.obj
 0002:0000af50       __real@c014000000000000    20125f50     bg_pmove.obj
 0002:0000af58       __real@4014000000000000    20125f58     bg_pmove.obj
 0002:0000af60       __real@43c00000            20125f60     bg_pmove.obj
 0002:0000af64       __real@3ecccccd            20125f64     bg_pmove.obj
 0002:0000af68       __real@471c4000            20125f68     bg_pmove.obj
 0002:0000af6c       __real@3e4ccccd            20125f6c     bg_pmove.obj
 0002:0000af70       __real@45000000            20125f70     bg_pmove.obj
 0002:0000af74       __real@46800000            20125f74     bg_pmove.obj
 0002:0000af78       __real@3fa1eb8520000000    20125f78     bg_pmove.obj
 0002:0000af80       __real@4018000000000000    20125f80     bg_pmove.obj
 0002:0000af88       __real@3fe19999a0000000    20125f88     bg_pmove.obj
 0002:0000af90       __real@3feb333340000000    20125f90     bg_pmove.obj
 0002:0000af98       __real@3fd3333340000000    20125f98     bg_pmove.obj
 0002:0000afa0       __real@3fdcccccc0000000    20125fa0     bg_pmove.obj
 0002:0000afa8       __real@3fd999999999999a    20125fa8     bg_pmove.obj
 0002:0000afb0       ??_C@_06IHEANBNF@pelvis?$AA@ 20125fb0     bg_pmove.obj
 0002:0000afb8       __real@3f19999a            20125fb8     bg_pmove.obj
 0002:0000afbc       __real@3f4ccccd            20125fbc     bg_pmove.obj
 0002:0000afc0       __real@3f666666            20125fc0     bg_pmove.obj
 0002:0000afc4       __real@41a00000            20125fc4     bg_pmove.obj
 0002:0000afc8       ??_C@_07NJHCGBBF@lradius?$AA@ 20125fc8     bg_pmove.obj
 0002:0000afd0       __real@c1a00000            20125fd0     bg_pmove.obj
 0002:0000afd4       ??_C@_08GMFJNBED@lhumerus?$AA@ 20125fd4     bg_pmove.obj
 0002:0000afe0       ??_C@_0N@FLMNOMBE@upper_lumbar?$AA@ 20125fe0     bg_pmove.obj
 0002:0000aff0       ??_C@_0N@DPOICHCI@lower_lumbar?$AA@ 20125ff0     bg_pmove.obj
 0002:0000b000       ??_C@_08ILEJMJL@thoracic?$AA@ 20126000     bg_pmove.obj
 0002:0000b010       __real@3fb99999a0000000    20126010     bg_pmove.obj
 0002:0000b018       ??_C@_08HPHDBPFM@cervical?$AA@ 20126018     bg_pmove.obj
 0002:0000b024       ??_C@_07JOKDFEMH@cranium?$AA@ 20126024     bg_pmove.obj
 0002:0000b030       __real@3fe3333333333333    20126030     bg_pmove.obj
 0002:0000b038       __real@3fd6666660000000    20126038     bg_pmove.obj
 0002:0000b040       __real@c2480000            20126040     bg_pmove.obj
 0002:0000b044       __real@c28c0000            20126044     bg_pmove.obj
 0002:0000b048       __real@428c0000            20126048     bg_pmove.obj
 0002:0000b04c       __real@c1f00000            2012604c     bg_pmove.obj
 0002:0000b050       __real@c03e000000000000    20126050     bg_pmove.obj
 0002:0000b058       __real@3f266666            20126058     bg_pmove.obj
 0002:0000b060       __real@3fa999999999999a    20126060     bg_pmove.obj
 0002:0000b068       ??_C@_0BP@KPLHHMIM@Bad?5player?5movement?5angle?5?$CI?$CFi?$CJ?$AA@ 20126068     bg_pmove.obj
 0002:0000b088       __real@44af0000            20126088     bg_pmove.obj
 0002:0000b08c       __real@44e10000            2012608c     bg_pmove.obj
 0002:0000b090       __real@44d48000            20126090     bg_pmove.obj
 0002:0000b094       __real@3f400000            20126094     bg_pmove.obj
 0002:0000b098       __real@bfe0000000000000    20126098     bg_pmove.obj
 0002:0000b0a0       __real@c02e000000000000    201260a0     bg_pmove.obj
 0002:0000b0a8       __real@bf000000            201260a8     bg_pmove.obj
 0002:0000b0ac       __real@c2c80000            201260ac     bg_pmove.obj
 0002:0000b0b0       __real@c059000000000000    201260b0     bg_pmove.obj
 0002:0000b0b8       __real@3f90000000000000    201260b8     bg_pmove.obj
 0002:0000b0c0       __real@406e000000000000    201260c0     bg_pmove.obj
 0002:0000b0c8       ??_C@_0L@PFJLCLDC@Reflect?5LL?$AA@ 201260c8     bg_saber.obj
 0002:0000b0d4       ??_C@_0L@CBNKBEON@Reflect?5LR?$AA@ 201260d4     bg_saber.obj
 0002:0000b0e0       ??_C@_0L@OGGMLDMN@Reflect?5UL?$AA@ 201260e0     bg_saber.obj
 0002:0000b0ec       ??_C@_0L@DCCNIMBC@Reflect?5UR?$AA@ 201260ec     bg_saber.obj
 0002:0000b0f8       ??_C@_0M@EILLDEJE@Reflect?5Top?$AA@ 201260f8     bg_saber.obj
 0002:0000b104       ??_C@_08DLEEDOOH@Parry?5LL?$AA@ 20126104     bg_saber.obj
 0002:0000b110       ??_C@_08OPAFABDI@Parry?5LR?$AA@ 20126110     bg_saber.obj
 0002:0000b11c       ??_C@_08CILDKGBI@Parry?5UL?$AA@ 2012611c     bg_saber.obj
 0002:0000b128       ??_C@_08PMPCJJMH@Parry?5UR?$AA@ 20126128     bg_saber.obj
 0002:0000b134       ??_C@_09LOMMMNNK@Parry?5Top?$AA@ 20126134     bg_saber.obj
 0002:0000b140       ??_C@_08BIFCBIDF@Knock?5LL?$AA@ 20126140     bg_saber.obj
 0002:0000b14c       ??_C@_08MMBDCHOK@Knock?5LR?$AA@ 2012614c     bg_saber.obj
 0002:0000b158       ??_C@_08LKFIAMK@Knock?5UL?$AA@ 20126158     bg_saber.obj
 0002:0000b164       ??_C@_08NPOELPBF@Knock?5UR?$AA@ 20126164     bg_saber.obj
 0002:0000b170       ??_C@_09NGDCGIAE@Knock?5Top?$AA@ 20126170     bg_saber.obj
 0002:0000b17c       ??_C@_09KEIIJFKC@BParry?5LL?$AA@ 2012617c     bg_saber.obj
 0002:0000b188       ??_C@_0L@KJPLHJCJ@BParry?5Bot?$AA@ 20126188     bg_saber.obj
 0002:0000b194       ??_C@_09HAMJKKHN@BParry?5LR?$AA@ 20126194     bg_saber.obj
 0002:0000b1a0       ??_C@_09LHHPANFN@BParry?5UL?$AA@ 201261a0     bg_saber.obj
 0002:0000b1ac       ??_C@_09GDDODCIC@BParry?5UR?$AA@ 201261ac     bg_saber.obj
 0002:0000b1b8       ??_C@_0L@LIOFLEGO@BParry?5Top?$AA@ 201261b8     bg_saber.obj
 0002:0000b1c4       ??_C@_0M@LODFIFIA@Reflected?5B?$AA@ 201261c4     bg_saber.obj
 0002:0000b1d0       ??_C@_0N@LBMKLGKM@Reflected?5BL?$AA@ 201261d0     bg_saber.obj
 0002:0000b1e0       ??_C@_0M@CALGKIAO@Reflected?5L?$AA@ 201261e0     bg_saber.obj
 0002:0000b1ec       ??_C@_0N@KJGBGJGO@Reflected?5TL?$AA@ 201261ec     bg_saber.obj
 0002:0000b1fc       ??_C@_0M@KCKNDAFH@Reflected?5T?$AA@ 201261fc     bg_saber.obj
 0002:0000b208       ??_C@_0N@HNCAFGLB@Reflected?5TR?$AA@ 20126208     bg_saber.obj
 0002:0000b218       ??_C@_0M@PEPHJHNB@Reflected?5R?$AA@ 20126218     bg_saber.obj
 0002:0000b224       ??_C@_0N@GFILIJHD@Reflected?5BR?$AA@ 20126224     bg_saber.obj
 0002:0000b234       ??_C@_09FPLGLEMN@Deflect?5B?$AA@ 20126234     bg_saber.obj
 0002:0000b240       ??_C@_0L@LJEGAILA@Deflect?5BL?$AA@ 20126240     bg_saber.obj
 0002:0000b24c       ??_C@_09MBDFJJED@Deflect?5L?$AA@ 2012624c     bg_saber.obj
 0002:0000b258       ??_C@_0L@KBONNHHC@Deflect?5TL?$AA@ 20126258     bg_saber.obj
 0002:0000b264       ??_C@_09EDCOABBK@Deflect?5T?$AA@ 20126264     bg_saber.obj
 0002:0000b270       ??_C@_0L@HFKMOIKN@Deflect?5TR?$AA@ 20126270     bg_saber.obj
 0002:0000b27c       ??_C@_09BFHEKGJM@Deflect?5R?$AA@ 2012627c     bg_saber.obj
 0002:0000b288       ??_C@_0L@GNAHDHGP@Deflect?5BR?$AA@ 20126288     bg_saber.obj
 0002:0000b294       ??_C@_09GKILNFHN@Bounce?5BL?$AA@ 20126294     bg_saber.obj
 0002:0000b2a0       ??_C@_08NKBMKPCE@Bounce?5L?$AA@ 201262a0     bg_saber.obj
 0002:0000b2ac       ??_C@_09HCCAAKLP@Bounce?5TL?$AA@ 201262ac     bg_saber.obj
 0002:0000b2b8       ??_C@_08FIAHDHHN@Bounce?5T?$AA@ 201262b8     bg_saber.obj
 0002:0000b2c4       ??_C@_09KGGBDFGA@Bounce?5TR?$AA@ 201262c4     bg_saber.obj
 0002:0000b2d0       ??_C@_08OFNJAPL@Bounce?5R?$AA@ 201262d0     bg_saber.obj
 0002:0000b2dc       ??_C@_09LOMKOKKC@Bounce?5BR?$AA@ 201262dc     bg_saber.obj
 0002:0000b2e8       ??_C@_0L@POFOKKEO@BL2L?5Trans?$AA@ 201262e8     bg_saber.obj
 0002:0000b2f4       ??_C@_0M@KHNLJCKB@BL2TL?5Trans?$AA@ 201262f4     bg_saber.obj
 0002:0000b300       ??_C@_0L@FBAAIANA@BL2T?5Trans?$AA@ 20126300     bg_saber.obj
 0002:0000b30c       ??_C@_0M@MOOKLBLI@BL2TR?5Trans?$AA@ 2012630c     bg_saber.obj
 0002:0000b318       ??_C@_0L@JHGPIJFH@BL2R?5Trans?$AA@ 20126318     bg_saber.obj
 0002:0000b324       ??_C@_0M@BBDAIKED@BL2BR?5Trans?$AA@ 20126324     bg_saber.obj
 0002:0000b330       ??_C@_0L@LEALPHLG@L2BL?5Trans?$AA@ 20126330     bg_saber.obj
 0002:0000b33c       ??_C@_0L@GLNBMMEN@L2TL?5Trans?$AA@ 2012633c     bg_saber.obj
 0002:0000b348       ??_C@_09FHCJPJGE@L2T?5Trans?$AA@ 20126348     bg_saber.obj
 0002:0000b354       ??_C@_0L@COAOPFE@L2TR?5Trans?$AA@ 20126354     bg_saber.obj
 0002:0000b360       ??_C@_09JBEGPAOD@L2R?5Trans?$AA@ 20126360     bg_saber.obj
 0002:0000b36c       ??_C@_0L@NNDKNEKP@L2BR?5Trans?$AA@ 2012636c     bg_saber.obj
 0002:0000b378       ??_C@_0M@JLCEOBEG@TL2BL?5Trans?$AA@ 20126378     bg_saber.obj
 0002:0000b384       ??_C@_0L@LIBNKEMG@TL2L?5Trans?$AA@ 20126384     bg_saber.obj
 0002:0000b390       ??_C@_0L@BHEDIOFI@TL2T?5Trans?$AA@ 20126390     bg_saber.obj
 0002:0000b39c       ??_C@_0M@CNMPPJKE@TL2TR?5Trans?$AA@ 2012639c     bg_saber.obj
 0002:0000b3a8       ??_C@_0L@NBCMIHNP@TL2R?5Trans?$AA@ 201263a8     bg_saber.obj
 0002:0000b3b4       ??_C@_0M@PCBFMCFP@TL2BR?5Trans?$AA@ 201263b4     bg_saber.obj
 0002:0000b3c0       ??_C@_0L@KADONCDI@T2BL?5Trans?$AA@ 201263c0     bg_saber.obj
 0002:0000b3cc       ??_C@_09MMAOBCOG@T2L?5Trans?$AA@ 201263cc     bg_saber.obj
 0002:0000b3d8       ??_C@_0L@HPOEOJMD@T2TL?5Trans?$AA@ 201263d8     bg_saber.obj
 0002:0000b3e4       ??_C@_0L@BGNFMKNK@T2TR?5Trans?$AA@ 201263e4     bg_saber.obj
 0002:0000b3f0       ??_C@_09KFDPDBPP@T2R?5Trans?$AA@ 201263f0     bg_saber.obj
 0002:0000b3fc       ??_C@_0L@MJAPPBCB@T2BR?5Trans?$AA@ 201263fc     bg_saber.obj
 0002:0000b408       ??_C@_0M@GHKEAOIL@TR2BL?5Trans?$AA@ 20126408     bg_saber.obj
 0002:0000b414       ??_C@_0L@IBHKBFJN@TR2L?5Trans?$AA@ 20126414     bg_saber.obj
 0002:0000b420       ??_C@_0M@LIHODFHA@TR2TL?5Trans?$AA@ 20126420     bg_saber.obj
 0002:0000b42c       ??_C@_0L@COCEDPAD@TR2T?5Trans?$AA@ 2012642c     bg_saber.obj
 0002:0000b438       ??_C@_0L@OIELDGIE@TR2R?5Trans?$AA@ 20126438     bg_saber.obj
 0002:0000b444       ??_C@_0M@OJFCNJC@TR2BR?5Trans?$AA@ 20126444     bg_saber.obj
 0002:0000b450       ??_C@_0L@EIILBIHL@R2BL?5Trans?$AA@ 20126450     bg_saber.obj
 0002:0000b45c       ??_C@_09MBBAGCKB@R2L?5Trans?$AA@ 2012645c     bg_saber.obj
 0002:0000b468       ??_C@_0L@JHFBCDIA@R2TL?5Trans?$AA@ 20126468     bg_saber.obj
 0002:0000b474       ??_C@_09GOEOEIDP@R2T?5Trans?$AA@ 20126474     bg_saber.obj
 0002:0000b480       ??_C@_0L@POGAAAJJ@R2TR?5Trans?$AA@ 20126480     bg_saber.obj
 0002:0000b48c       ??_C@_0L@CBLKDLGC@R2BR?5Trans?$AA@ 2012648c     bg_saber.obj
 0002:0000b498       ??_C@_0M@IEIBEGJH@BR2BL?5Trans?$AA@ 20126498     bg_saber.obj
 0002:0000b4a4       ??_C@_0L@MHDJBLBF@BR2L?5Trans?$AA@ 201264a4     bg_saber.obj
 0002:0000b4b0       ??_C@_0M@FLFLHNGM@BR2TL?5Trans?$AA@ 201264b0     bg_saber.obj
 0002:0000b4bc       ??_C@_0L@GIGHDBIL@BR2T?5Trans?$AA@ 201264bc     bg_saber.obj
 0002:0000b4c8       ??_C@_0M@DCGKFOHF@BR2TR?5Trans?$AA@ 201264c8     bg_saber.obj
 0002:0000b4d4       ??_C@_0L@KOAIDIAM@BR2R?5Trans?$AA@ 201264d4     bg_saber.obj
 0002:0000b4e0       ??_C@_07JDFHJPKC@T2B?5Ret?$AA@ 201264e0     bg_saber.obj
 0002:0000b4e8       ??_C@_09DJECHPBI@TR2BL?5Ret?$AA@ 201264e8     bg_saber.obj
 0002:0000b4f4       ??_C@_07GPDCPHFF@R2L?5Ret?$AA@ 201264f4     bg_saber.obj
 0002:0000b4fc       ??_C@_09BHPMCHED@BR2TL?5Ret?$AA@ 201264fc     bg_saber.obj
 0002:0000b508       ??_C@_09EKCCNNEL@BL2TR?5Ret?$AA@ 20126508     bg_saber.obj
 0002:0000b514       ??_C@_07DPNPLHKH@L2R?5Ret?$AA@ 20126514     bg_saber.obj
 0002:0000b51c       ??_C@_09GEJMIFBA@TL2BR?5Ret?$AA@ 2012651c     bg_saber.obj
 0002:0000b528       ??_C@_06FLBDMDIP@T2B?5St?$AA@ 20126528     bg_saber.obj
 0002:0000b530       ??_C@_08EELPCGOB@TR2BL?5St?$AA@ 20126530     bg_saber.obj
 0002:0000b53c       ??_C@_06IHPDEINE@R2L?5St?$AA@ 2012653c     bg_saber.obj
 0002:0000b544       ??_C@_08EOOKPMJM@BR2TL?5St?$AA@ 20126544     bg_saber.obj
 0002:0000b550       ??_C@_08PIALPGGG@BL2TR?5St?$AA@ 20126550     bg_saber.obj
 0002:0000b55c       ??_C@_06GPMCIGKE@L2R?5St?$AA@ 2012655c     bg_saber.obj
 0002:0000b564       ??_C@_08PCFOCMBL@TL2BR?5St?$AA@ 20126564     bg_saber.obj
 0002:0000b570       ??_C@_0M@HBLMDLAK@StfHiltBash?$AA@ 20126570     bg_saber.obj
 0002:0000b57c       ??_C@_0M@LAELOAEL@Dual?5LR?5Atk?$AA@ 2012657c     bg_saber.obj
 0002:0000b588       ??_C@_0M@BHONLNJO@Dual?5FB?5Atk?$AA@ 20126588     bg_saber.obj
 0002:0000b594       ??_C@_0N@PCBIMGO@AloraSpinAtk?$AA@ 20126594     bg_saber.obj
 0002:0000b5a4       ??_C@_0N@GFKPCBPN@pullatkswing?$AA@ 201265a4     bg_saber.obj
 0002:0000b5b4       ??_C@_0M@HMDNHOPJ@pullatkstab?$AA@ 201265b4     bg_saber.obj
 0002:0000b5c0       ??_C@_0N@LJBLOMAE@upsidedwnatk?$AA@ 201265c0     bg_saber.obj
 0002:0000b5d0       ??_C@_0L@PLFOAHMF@specialstr?$AA@ 201265d0     bg_saber.obj
 0002:0000b5dc       ??_C@_0L@EKOEFLPJ@specialmed?$AA@ 201265dc     bg_saber.obj
 0002:0000b5e8       ??_C@_0M@GOKDABKC@specialfast?$AA@ 201265e8     bg_saber.obj
 0002:0000b5f4       ??_C@_0L@NHJJEIC@StfSoulCal?$AA@ 201265f4     bg_saber.obj
 0002:0000b600       ??_C@_0N@KBDLODPM@dualspinprot?$AA@ 20126600     bg_saber.obj
 0002:0000b610       ??_C@_0N@MHIEIOPE@StabDownDual?$AA@ 20126610     bg_saber.obj
 0002:0000b620       ??_C@_0M@JEGPPONO@StabDownStf?$AA@ 20126620     bg_saber.obj
 0002:0000b62c       ??_C@_08HGDIMBKI@StabDown?$AA@ 2012662c     bg_saber.obj
 0002:0000b638       ??_C@_0P@GIHHJKOM@StfKickLeftAir?$AA@ 20126638     bg_saber.obj
 0002:0000b648       ??_C@_0BA@EJCHHLPD@StfKickRightAir?$AA@ 20126648     bg_saber.obj
 0002:0000b658       ??_C@_0P@DLMPDNCN@StfKickBackAir?$AA@ 20126658     bg_saber.obj
 0002:0000b668       ??_C@_0O@NMBBHPCN@StfKickFwdAir?$AA@ 20126668     bg_saber.obj
 0002:0000b678       ??_C@_0N@JEMEOOKN@StfKickSplit?$AA@ 20126678     bg_saber.obj
 0002:0000b688       ??_C@_0N@NIILEKHB@StfKickBkFwd?$AA@ 20126688     bg_saber.obj
 0002:0000b698       ??_C@_0M@LODHMIIA@StfKickSpin?$AA@ 20126698     bg_saber.obj
 0002:0000b6a4       ??_C@_0M@IADBNCJI@StfKickLeft?$AA@ 201266a4     bg_saber.obj
 0002:0000b6b0       ??_C@_0N@OEKLCFMN@StfKickRight?$AA@ 201266b0     bg_saber.obj
 0002:0000b6c0       ??_C@_0M@HLPCDHNL@StfKickBack?$AA@ 201266c0     bg_saber.obj
 0002:0000b6cc       ??_C@_0L@EBPEBDEI@StfKickFwd?$AA@ 201266cc     bg_saber.obj
 0002:0000b6d8       ??_C@_0N@GODEMPCP@TauntaunAtkL?$AA@ 201266d8     bg_saber.obj
 0002:0000b6e8       ??_C@_0N@LKHFPAPA@TauntaunAtkR?$AA@ 201266e8     bg_saber.obj
 0002:0000b6f8       ??_C@_09DMADOFPO@SwoopAtkL?$AA@ 201266f8     bg_saber.obj
 0002:0000b704       ??_C@_09OIECNKCB@SwoopAtkR?$AA@ 20126704     bg_saber.obj
 0002:0000b710       ??_C@_0L@NEJJNIPN@LngLeapAtk?$AA@ 20126710     bg_saber.obj
 0002:0000b71c       ??_C@_0L@GNJONGPC@StfSpinAtk?$AA@ 2012671c     bg_saber.obj
 0002:0000b728       ??_C@_0M@HECJKIFI@DualSpinAtk?$AA@ 20126728     bg_saber.obj
 0002:0000b734       ??_C@_0L@DLADLIII@BkFlip?5Atk?$AA@ 20126734     bg_saber.obj
 0002:0000b740       ??_C@_0P@FGMKFKI@ButterflyRight?$AA@ 20126740     bg_saber.obj
 0002:0000b750       ??_C@_0O@EJCJKPND@ButterflyLeft?$AA@ 20126750     bg_saber.obj
 0002:0000b760       ??_C@_0BC@MKGAPFGF@DualJumpAtkRStaff?$AA@ 20126760     bg_saber.obj
 0002:0000b774       ??_C@_0BC@PNIBBCPG@DualJumpAtkLStaff?$AA@ 20126774     bg_saber.obj
 0002:0000b788       ??_C@_0P@KOAKECAO@DualJumpAtkR_A?$AA@ 20126788     bg_saber.obj
 0002:0000b798       ??_C@_0P@BOMMGCKC@DualJumpAtkL_A?$AA@ 20126798     bg_saber.obj
 0002:0000b7a8       ??_C@_0N@BCAAENJH@DualJump?5Atk?$AA@ 201267a8     bg_saber.obj
 0002:0000b7b8       ??_C@_0L@FMKCKBGH@Flip?5Slash?$AA@ 201267b8     bg_saber.obj
 0002:0000b7c4       ??_C@_09JENGNGLB@Flip?5Stab?$AA@ 201267c4     bg_saber.obj
 0002:0000b7d0       ??_C@_08KNHLLBPK@Jump?5Att?$AA@ 201267d0     bg_saber.obj
 0002:0000b7dc       ??_C@_09LEMMEBE@Lunge?5Att?$AA@ 201267dc     bg_saber.obj
 0002:0000b7e8       ??_C@_08PKIJPDOE@RollStab?$AA@ 201267e8     bg_saber.obj
 0002:0000b7f4       ??_C@_0M@GCNCHFMC@CR?5Back?5Att?$AA@ 201267f4     bg_saber.obj
 0002:0000b800       ??_C@_08NHHMKFDG@Back?5Att?$AA@ 20126800     bg_saber.obj
 0002:0000b80c       ??_C@_09JIGLEFGA@Back?5Stab?$AA@ 2012680c     bg_saber.obj
 0002:0000b818       ??_C@_07MMBPKOJE@T2B?5Att?$AA@ 20126818     bg_saber.obj
 0002:0000b820       ??_C@_09GGAKEOCO@TR2BL?5Att?$AA@ 20126820     bg_saber.obj
 0002:0000b82c       ??_C@_07DAHKMGGD@R2L?5Att?$AA@ 2012682c     bg_saber.obj
 0002:0000b834       ??_C@_09EILEBGHF@BR2TL?5Att?$AA@ 20126834     bg_saber.obj
 0002:0000b840       ??_C@_09BFGKOMHN@BL2TR?5Att?$AA@ 20126840     bg_saber.obj
 0002:0000b84c       ??_C@_07GAJHIGJB@L2R?5Att?$AA@ 2012684c     bg_saber.obj
 0002:0000b854       ??_C@_09DLNELECG@TL2BR?5Att?$AA@ 20126854     bg_saber.obj
 0002:0000b860       ??_C@_07EEKMGHL@Putaway?$AA@ 20126860     bg_saber.obj
 0002:0000b868       ??_C@_04HMPDNAFK@Draw?$AA@ 20126868     bg_saber.obj
 0002:0000b870       ??_C@_05GMBADOLI@Ready?$AA@ 20126870     bg_saber.obj
 0002:0000b878       ??_C@_04OHJIHAFH@None?$AA@ 20126878     bg_saber.obj
 0002:0000b880       __real@4064000000000000    20126880     bg_saber.obj
 0002:0000b888       __real@4074000000000000    20126888     bg_saber.obj
 0002:0000b890       __real@4054000000000000    20126890     bg_saber.obj
 0002:0000b898       __real@40b9000000000000    20126898     bg_saber.obj
 0002:0000b8a0       __real@4080000000000000    201268a0     bg_saber.obj
 0002:0000b8a8       __real@45800000            201268a8     bg_saber.obj
 0002:0000b8ac       __real@c1400000            201268ac     bg_saber.obj
 0002:0000b8b0       __real@4064800000000000    201268b0     bg_saber.obj
 0002:0000b8b8       __real@438c0000            201268b8     bg_saber.obj
 0002:0000b8c0       __real@4067c00000000000    201268c0     bg_saber.obj
 0002:0000b8c8       ??_C@_0N@ILPCADIK@LS_HILT_BASH?$AA@ 201268c8     bg_saberLoad.obj
 0002:0000b8d8       ??_C@_0L@FALMEENH@LS_DUAL_LR?$AA@ 201268d8     bg_saberLoad.obj
 0002:0000b8e4       ??_C@_0L@BHOJNDFA@LS_DUAL_FB?$AA@ 201268e4     bg_saberLoad.obj
 0002:0000b8f0       ??_C@_0BE@NCPALCCM@LS_SPINATTACK_ALORA?$AA@ 201268f0     bg_saberLoad.obj
 0002:0000b904       ??_C@_0BF@MEAMFNJP@LS_PULL_ATTACK_SWING?$AA@ 20126904     bg_saberLoad.obj
 0002:0000b91c       ??_C@_0BE@DFLMECJA@LS_PULL_ATTACK_STAB?$AA@ 2012691c     bg_saberLoad.obj
 0002:0000b930       ??_C@_0BG@ONIDDAHL@LS_UPSIDE_DOWN_ATTACK?$AA@ 20126930     bg_saberLoad.obj
 0002:0000b948       ??_C@_0O@PFHMFLAI@LS_A3_SPECIAL?$AA@ 20126948     bg_saberLoad.obj
 0002:0000b958       ??_C@_0O@BKLODADG@LS_A2_SPECIAL?$AA@ 20126958     bg_saberLoad.obj
 0002:0000b968       ??_C@_0O@PBIJILDF@LS_A1_SPECIAL?$AA@ 20126968     bg_saberLoad.obj
 0002:0000b978       ??_C@_0BB@PAHMPHJI@LS_STAFF_SOULCAL?$AA@ 20126978     bg_saberLoad.obj
 0002:0000b98c       ??_C@_0BF@LBNOEGOG@LS_DUAL_SPIN_PROTECT?$AA@ 2012698c     bg_saberLoad.obj
 0002:0000b9a4       ??_C@_0BB@CODEHDPM@LS_STABDOWN_DUAL?$AA@ 201269a4     bg_saberLoad.obj
 0002:0000b9b8       ??_C@_0BC@DMCCPMIC@LS_STABDOWN_STAFF?$AA@ 201269b8     bg_saberLoad.obj
 0002:0000b9cc       ??_C@_0M@ELFCBMHI@LS_STABDOWN?$AA@ 201269cc     bg_saberLoad.obj
 0002:0000b9d8       ??_C@_0O@HIKDJAAM@LS_KICK_L_AIR?$AA@ 201269d8     bg_saberLoad.obj
 0002:0000b9e8       ??_C@_0O@EBHPPDOH@LS_KICK_R_AIR?$AA@ 201269e8     bg_saberLoad.obj
 0002:0000b9f8       ??_C@_0O@ECKJPBHM@LS_KICK_B_AIR?$AA@ 201269f8     bg_saberLoad.obj
 0002:0000ba08       ??_C@_0O@NJDILDGK@LS_KICK_F_AIR?$AA@ 20126a08     bg_saberLoad.obj
 0002:0000ba18       ??_C@_0L@BEPDGMHP@LS_KICK_RL?$AA@ 20126a18     bg_saberLoad.obj
 0002:0000ba24       ??_C@_0L@PCDKCHIF@LS_KICK_BF?$AA@ 20126a24     bg_saberLoad.obj
 0002:0000ba30       ??_C@_09JEEBAMOG@LS_KICK_S?$AA@ 20126a30     bg_saberLoad.obj
 0002:0000ba3c       ??_C@_09FJBLACHI@LS_KICK_L?$AA@ 20126a3c     bg_saberLoad.obj
 0002:0000ba48       ??_C@_09INFKDNKH@LS_KICK_R?$AA@ 20126a48     bg_saberLoad.obj
 0002:0000ba54       ??_C@_09MHJICPPG@LS_KICK_B?$AA@ 20126a54     bg_saberLoad.obj
 0002:0000ba60       ??_C@_09KDPEOKPC@LS_KICK_F?$AA@ 20126a60     bg_saberLoad.obj
 0002:0000ba6c       ??_C@_0BI@PCDKKKP@LS_TAUNTAUN_ATTACK_LEFT?$AA@ 20126a6c     bg_saberLoad.obj
 0002:0000ba84       ??_C@_0BJ@MJBNLGBI@LS_TAUNTAUN_ATTACK_RIGHT?$AA@ 20126a84     bg_saberLoad.obj
 0002:0000baa0       ??_C@_0BF@KEBAECPJ@LS_SWOOP_ATTACK_LEFT?$AA@ 20126aa0     bg_saberLoad.obj
 0002:0000bab8       ??_C@_0BG@ELLOHBDB@LS_SWOOP_ATTACK_RIGHT?$AA@ 20126ab8     bg_saberLoad.obj
 0002:0000bad0       ??_C@_0P@DFOBGGPF@LS_LEAP_ATTACK?$AA@ 20126ad0     bg_saberLoad.obj
 0002:0000bae0       ??_C@_0O@FDMAOBOA@LS_SPINATTACK?$AA@ 20126ae0     bg_saberLoad.obj
 0002:0000baf0       ??_C@_0BD@MHMCCFJA@LS_SPINATTACK_DUAL?$AA@ 20126af0     bg_saberLoad.obj
 0002:0000bb04       ??_C@_0BC@NDKCFACB@LS_A_BACKFLIP_ATK?$AA@ 20126b04     bg_saberLoad.obj
 0002:0000bb18       ??_C@_0BD@JHIDIBPC@LS_BUTTERFLY_RIGHT?$AA@ 20126b18     bg_saberLoad.obj
 0002:0000bb2c       ??_C@_0BC@EPONEONH@LS_BUTTERFLY_LEFT?$AA@ 20126b2c     bg_saberLoad.obj
 0002:0000bb40       ??_C@_0BK@FOGHAHEL@LS_JUMPATTACK_STAFF_RIGHT?$AA@ 20126b40     bg_saberLoad.obj
 0002:0000bb5c       ??_C@_0BJ@KHELHBKE@LS_JUMPATTACK_STAFF_LEFT?$AA@ 20126b5c     bg_saberLoad.obj
 0002:0000bb78       ??_C@_0BJ@EFEGBHBD@LS_JUMPATTACK_CART_RIGHT?$AA@ 20126b78     bg_saberLoad.obj
 0002:0000bb94       ??_C@_0BI@IHPOFCPB@LS_JUMPATTACK_CART_LEFT?$AA@ 20126b94     bg_saberLoad.obj
 0002:0000bbac       ??_C@_0BK@LAIHIPJO@LS_JUMPATTACK_ARIAL_RIGHT?$AA@ 20126bac     bg_saberLoad.obj
 0002:0000bbc8       ??_C@_0BJ@EJKCIIKG@LS_JUMPATTACK_ARIAL_LEFT?$AA@ 20126bc8     bg_saberLoad.obj
 0002:0000bbe4       ??_C@_0BD@JIFEIOCK@LS_JUMPATTACK_DUAL?$AA@ 20126be4     bg_saberLoad.obj
 0002:0000bbf8       ??_C@_0BA@HAINKDAA@LS_A_FLIP_SLASH?$AA@ 20126bf8     bg_saberLoad.obj
 0002:0000bc08       ??_C@_0P@FJCEBKMH@LS_A_FLIP_STAB?$AA@ 20126c08     bg_saberLoad.obj
 0002:0000bc18       ??_C@_0BA@GOCEHKHO@LS_A_JUMP_T__B_?$AA@ 20126c18     bg_saberLoad.obj
 0002:0000bc28       ??_C@_0L@IMDBKIFN@LS_A_LUNGE?$AA@ 20126c28     bg_saberLoad.obj
 0002:0000bc34       ??_C@_0N@EDFPDPID@LS_ROLL_STAB?$AA@ 20126c34     bg_saberLoad.obj
 0002:0000bc44       ??_C@_0N@ONJIGLHG@LS_A_BACK_CR?$AA@ 20126c44     bg_saberLoad.obj
 0002:0000bc54       ??_C@_09CAEELJLH@LS_A_BACK?$AA@ 20126c54     bg_saberLoad.obj
 0002:0000bc60       ??_C@_0O@GNJKPOOL@LS_A_BACKSTAB?$AA@ 20126c60     bg_saberLoad.obj
 0002:0000bc70       ??_C@_08PAOMHDGG@LS_A_T2B?$AA@ 20126c70     bg_saberLoad.obj
 0002:0000bc7c       ??_C@_0L@CHHEJCDN@LS_A_TR2BL?$AA@ 20126c7c     bg_saberLoad.obj
 0002:0000bc88       ??_C@_08ELAEABDE@LS_A_R2L?$AA@ 20126c88     bg_saberLoad.obj
 0002:0000bc94       ??_C@_0L@OKFAKMHJ@LS_A_BR2TL?$AA@ 20126c94     bg_saberLoad.obj
 0002:0000bca0       ??_C@_0L@OBMBLKEF@LS_A_BL2TR?$AA@ 20126ca0     bg_saberLoad.obj
 0002:0000bcac       ??_C@_08CPIDBOEH@LS_A_L2R?$AA@ 20126cac     bg_saberLoad.obj
 0002:0000bcb8       ??_C@_0L@CMOFIEAB@LS_A_TL2BR?$AA@ 20126cb8     bg_saberLoad.obj
 0002:0000bcc4       ??_C@_07NILEALPF@LS_NONE?$AA@ 20126cc4     bg_saberLoad.obj
 0002:0000bccc       ??_C@_0O@JGGDFEFK@SABER_TRIDENT?$AA@ 20126ccc     bg_saberLoad.obj
 0002:0000bcdc       ??_C@_0L@BONOMJND@SABER_STAR?$AA@ 20126cdc     bg_saberLoad.obj
 0002:0000bce8       ??_C@_0M@INMNJHEK@SABER_LANCE?$AA@ 20126ce8     bg_saberLoad.obj
 0002:0000bcf4       ??_C@_0L@JGOENFGE@SABER_CLAW?$AA@ 20126cf4     bg_saberLoad.obj
 0002:0000bd00       ??_C@_09IIGKGANJ@SABER_SAI?$AA@ 20126d00     bg_saberLoad.obj
 0002:0000bd0c       ??_C@_09JGPFAKGO@SABER_ARC?$AA@ 20126d0c     bg_saberLoad.obj
 0002:0000bd18       ??_C@_0N@KPJEOBIO@SABER_DAGGER?$AA@ 20126d18     bg_saberLoad.obj
 0002:0000bd28       ??_C@_0M@FMMLCOEM@SABER_PRONG?$AA@ 20126d28     bg_saberLoad.obj
 0002:0000bd34       ??_C@_0M@DCKEJJCC@SABER_BROAD?$AA@ 20126d34     bg_saberLoad.obj
 0002:0000bd40       ??_C@_0M@KCMILOII@SABER_STAFF?$AA@ 20126d40     bg_saberLoad.obj
 0002:0000bd4c       ??_C@_0N@OGPMBMML@SABER_SINGLE?$AA@ 20126d4c     bg_saberLoad.obj
 0002:0000bd5c       ??_C@_0L@PGJIJNF@SABER_NONE?$AA@ 20126d5c     bg_saberLoad.obj
 0002:0000bd68       ??_C@_0BO@NBJEGAHB@required?5string?5?8?$CFs?8?5missing?6?$AA@ 20126d68     bg_saberLoad.obj
 0002:0000bd88       ??_C@_0BA@FOCLBKAP@unexpected?5EOF?6?$AA@ 20126d88     bg_saberLoad.obj
 0002:0000bd98       ??_C@_06NLFCANPD@random?$AA@ 20126d98     bg_saberLoad.obj
 0002:0000bda0       ??_C@_06GEHONCEN@purple?$AA@ 20126da0     bg_saberLoad.obj
 0002:0000bda8       ??_C@_05GBEEJKMC@green?$AA@ 20126da8     bg_saberLoad.obj
 0002:0000bdb0       ??_C@_06ENJNJKEL@yellow?$AA@ 20126db0     bg_saberLoad.obj
 0002:0000bdb8       ??_C@_06HDDOCMMN@orange?$AA@ 20126db8     bg_saberLoad.obj
 0002:0000bdc0       ??_C@_05DDLOIMOJ@staff?$AA@ 20126dc0     bg_saberLoad.obj
 0002:0000bdc8       ??_C@_04IJNDAMHN@dual?$AA@ 20126dc8     bg_saberLoad.obj
 0002:0000bdd0       ??_C@_06DBFFGPJE@tavion?$AA@ 20126dd0     bg_saberLoad.obj
 0002:0000bdd8       ??_C@_06MBIMHMOE@desann?$AA@ 20126dd8     bg_saberLoad.obj
 0002:0000bde0       ??_C@_06KHACOKFA@strong?$AA@ 20126de0     bg_saberLoad.obj
 0002:0000bde8       ??_C@_06HIDOEFBI@medium?$AA@ 20126de8     bg_saberLoad.obj
 0002:0000bdf0       ??_C@_04LBNBHAJC@fast?$AA@ 20126df0     bg_saberLoad.obj
 0002:0000bdf8       ??_C@_0CI@MHFGOOAJ@sound?1weapons?1saber?1enemy_saber_@ 20126df8     bg_saberLoad.obj
 0002:0000be20       ??_C@_0CC@LJCDHDAP@sound?1weapons?1saber?1saberhum3?4wa@ 20126e20     bg_saberLoad.obj
 0002:0000be44       ??_C@_0L@CLLBMKKI@lightsaber?$AA@ 20126e44     bg_saberLoad.obj
 0002:0000be50       ??_C@_0CH@BHNNODOL@sound?1weapons?1saber?1enemy_saber_@ 20126e50     bg_saberLoad.obj
 0002:0000be78       ??_C@_0CJ@PIIDACPD@models?1weapons2?1saber_reborn?1sab@ 20126e78     bg_saberLoad.obj
 0002:0000bea4       ??_C@_0O@DHFCPNGH@noClashFlare2?$AA@ 20126ea4     bg_saberLoad.obj
 0002:0000beb4       ??_C@_0N@HNKBLDME@bladeEffect2?$AA@ 20126eb4     bg_saberLoad.obj
 0002:0000bec4       ??_C@_0BA@LBNLAIID@hitOtherEffect2?$AA@ 20126ec4     bg_saberLoad.obj
 0002:0000bed4       ??_C@_0BB@HFKLMLPK@hitPersonEffect2?$AA@ 20126ed4     bg_saberLoad.obj
 0002:0000bee8       ??_C@_0N@FMJFICJ@blockEffect2?$AA@ 20126ee8     bg_saberLoad.obj
 0002:0000bef8       ??_C@_0O@IFBCABHD@bounce2Sound3?$AA@ 20126ef8     bg_saberLoad.obj
 0002:0000bf08       ??_C@_0O@JMAJDADC@bounce2Sound2?$AA@ 20126f08     bg_saberLoad.obj
 0002:0000bf18       ??_C@_0O@LHCEGDPB@bounce2Sound1?$AA@ 20126f18     bg_saberLoad.obj
 0002:0000bf28       ??_C@_0N@OJLPMGPD@block2Sound3?$AA@ 20126f28     bg_saberLoad.obj
 0002:0000bf38       ??_C@_0N@PAKEPHLC@block2Sound2?$AA@ 20126f38     bg_saberLoad.obj
 0002:0000bf48       ??_C@_0N@NLIJKEHB@block2Sound1?$AA@ 20126f48     bg_saberLoad.obj
 0002:0000bf58       ??_C@_0L@IDNLHHOL@hit2Sound3?$AA@ 20126f58     bg_saberLoad.obj
 0002:0000bf64       ??_C@_0L@JKMAEGKK@hit2Sound2?$AA@ 20126f64     bg_saberLoad.obj
 0002:0000bf70       ??_C@_0L@LBONBFGJ@hit2Sound1?$AA@ 20126f70     bg_saberLoad.obj
 0002:0000bf7c       ??_C@_0BB@OOGGCDOD@splashKnockback2?$AA@ 20126f7c     bg_saberLoad.obj
 0002:0000bf90       ??_C@_0O@NBMKECEL@splashDamage2?$AA@ 20126f90     bg_saberLoad.obj
 0002:0000bfa0       ??_C@_0O@JONKCADI@splashRadius2?$AA@ 20126fa0     bg_saberLoad.obj
 0002:0000bfb0       ??_C@_0BC@OAILGGCC@transitionDamage2?$AA@ 20126fb0     bg_saberLoad.obj
 0002:0000bfc4       ??_C@_0BE@LLCCMKBL@noManualDeactivate2?$AA@ 20126fc4     bg_saberLoad.obj
 0002:0000bfd8       ??_C@_0N@KOPEDDFM@alwaysBlock2?$AA@ 20126fd8     bg_saberLoad.obj
 0002:0000bfe8       ??_C@_0O@EBBGHGAI@noIdleEffect2?$AA@ 20126fe8     bg_saberLoad.obj
 0002:0000bff8       ??_C@_0BB@HEIPNLIN@noDismemberment2?$AA@ 20126ff8     bg_saberLoad.obj
 0002:0000c00c       ??_C@_0N@GCMJBKDD@damageScale2?$AA@ 2012700c     bg_saberLoad.obj
 0002:0000c01c       ??_C@_0BA@NLECIOFG@knockbackScale2?$AA@ 2012701c     bg_saberLoad.obj
 0002:0000c02c       ??_C@_0CM@LKMGCIC@?$FO1ERROR?3?5unexpected?5EOF?5while?5pa@ 2012702c     bg_saberLoad.obj
 0002:0000c058       ??_C@_0BE@FLHBGOJH@g2WeaponMarkShader2?$AA@ 20127058     bg_saberLoad.obj
 0002:0000c06c       ??_C@_0P@MOINBIEE@g2MarksShader2?$AA@ 2012706c     bg_saberLoad.obj
 0002:0000c07c       ??_C@_0M@OIFJKOCO@trailStyle2?$AA@ 2012707c     bg_saberLoad.obj
 0002:0000c088       ??_C@_08JLEEMLBC@noBlade2?$AA@ 20127088     bg_saberLoad.obj
 0002:0000c094       ??_C@_09PFLDLJGH@noDlight2?$AA@ 20127094     bg_saberLoad.obj
 0002:0000c0a0       ??_C@_0N@DOGNHFNE@noWallMarks2?$AA@ 201270a0     bg_saberLoad.obj
 0002:0000c0b0       ??_C@_0N@ECBBMGGL@noClashFlare?$AA@ 201270b0     bg_saberLoad.obj
 0002:0000c0c0       ??_C@_0M@GOPKCEAP@bladeEffect?$AA@ 201270c0     bg_saberLoad.obj
 0002:0000c0cc       ??_C@_0P@BIDGPGLL@hitOtherEffect?$AA@ 201270cc     bg_saberLoad.obj
 0002:0000c0dc       ??_C@_0BA@JLPDHEC@hitPersonEffect?$AA@ 201270dc     bg_saberLoad.obj
 0002:0000c0ec       ??_C@_0M@BNIGLEH@blockEffect?$AA@ 201270ec     bg_saberLoad.obj
 0002:0000c0f8       ??_C@_0N@MDLNFLDL@bounceSound3?$AA@ 201270f8     bg_saberLoad.obj
 0002:0000c108       ??_C@_0N@NKKGGKHK@bounceSound2?$AA@ 20127108     bg_saberLoad.obj
 0002:0000c118       ??_C@_0N@PBILDJLJ@bounceSound1?$AA@ 20127118     bg_saberLoad.obj
 0002:0000c128       ??_C@_0M@GIOPDGGP@blockSound3?$AA@ 20127128     bg_saberLoad.obj
 0002:0000c134       ??_C@_0M@HBPEAHCO@blockSound2?$AA@ 20127134     bg_saberLoad.obj
 0002:0000c140       ??_C@_0M@FKNJFEON@blockSound1?$AA@ 20127140     bg_saberLoad.obj
 0002:0000c14c       ??_C@_09LMHONMHO@hitSound3?$AA@ 2012714c     bg_saberLoad.obj
 0002:0000c158       ??_C@_09KFGFONDP@hitSound2?$AA@ 20127158     bg_saberLoad.obj
 0002:0000c164       ??_C@_09IOEILOPM@hitSound1?$AA@ 20127164     bg_saberLoad.obj
 0002:0000c170       ??_C@_0BA@KAJFJOIC@splashKnockback?$AA@ 20127170     bg_saberLoad.obj
 0002:0000c180       ??_C@_0N@LJPCOLCE@splashDamage?$AA@ 20127180     bg_saberLoad.obj
 0002:0000c190       ??_C@_0N@HGGCMKIH@splashRadius?$AA@ 20127190     bg_saberLoad.obj
 0002:0000c1a0       ??_C@_0BB@JGFIGNIK@transitionDamage?$AA@ 201271a0     bg_saberLoad.obj
 0002:0000c1b4       ??_C@_0BD@OBFKEJDF@noManualDeactivate?$AA@ 201271b4     bg_saberLoad.obj
 0002:0000c1c8       ??_C@_0M@ONIOEHGI@alwaysBlock?$AA@ 201271c8     bg_saberLoad.obj
 0002:0000c1d4       ??_C@_0N@NKNLDJCL@noIdleEffect?$AA@ 201271d4     bg_saberLoad.obj
 0002:0000c1e4       ??_C@_0BA@PGNOEGAD@noDismemberment?$AA@ 201271e4     bg_saberLoad.obj
 0002:0000c1f4       ??_C@_0M@NMNALNNM@damageScale?$AA@ 201271f4     bg_saberLoad.obj
 0002:0000c200       ??_C@_0P@DBJANBKK@knockbackScale?$AA@ 20127200     bg_saberLoad.obj
 0002:0000c210       ??_C@_0BD@GHBHNLDP@g2WeaponMarkShader?$AA@ 20127210     bg_saberLoad.obj
 0002:0000c224       ??_C@_0O@CECLIKPH@g2MarksShader?$AA@ 20127224     bg_saberLoad.obj
 0002:0000c234       ??_C@_0L@CJKNEMMH@trailStyle?$AA@ 20127234     bg_saberLoad.obj
 0002:0000c240       ??_C@_07OINOPDEA@noBlade?$AA@ 20127240     bg_saberLoad.obj
 0002:0000c248       ??_C@_08HEKKGBNH@noDlight?$AA@ 20127248     bg_saberLoad.obj
 0002:0000c254       ??_C@_0M@MLNFFOGH@noWallMarks?$AA@ 20127254     bg_saberLoad.obj
 0002:0000c260       ??_C@_0BB@HJNEKDIH@bladeStyle2Start?$AA@ 20127260     bg_saberLoad.obj
 0002:0000c274       ??_C@_07POBCBIAL@notInMP?$AA@ 20127274     bg_saberLoad.obj
 0002:0000c27c       ??_C@_09EHPCDPPK@onInWater?$AA@ 2012727c     bg_saberLoad.obj
 0002:0000c288       ??_C@_0BA@FDGACPGL@noMirrorAttacks?$AA@ 20127288     bg_saberLoad.obj
 0002:0000c298       ??_C@_07LKPMBHJJ@noKicks?$AA@ 20127298     bg_saberLoad.obj
 0002:0000c2a0       ??_C@_0N@MAFHMJM@noCartwheels?$AA@ 201272a0     bg_saberLoad.obj
 0002:0000c2b0       ??_C@_07LBEMCHMC@noFlips?$AA@ 201272b0     bg_saberLoad.obj
 0002:0000c2b8       ??_C@_07EMEJLHLJ@noRolls?$AA@ 201272b8     bg_saberLoad.obj
 0002:0000c2c0       ??_C@_0L@LKFPINIG@noWallGrab?$AA@ 201272c0     bg_saberLoad.obj
 0002:0000c2cc       ??_C@_0M@MOOJPGBK@noWallFlips?$AA@ 201272cc     bg_saberLoad.obj
 0002:0000c2d8       ??_C@_0L@NHANMJOA@noWallRuns?$AA@ 201272d8     bg_saberLoad.obj
 0002:0000c2e4       ??_C@_0L@NJPIIGCJ@noStabDown?$AA@ 201272e4     bg_saberLoad.obj
 0002:0000c2f0       ??_C@_0N@DHKJHCGA@noBackAttack?$AA@ 201272f0     bg_saberLoad.obj
 0002:0000c300       ??_C@_0N@DKAKOIDA@noPullAttack?$AA@ 20127300     bg_saberLoad.obj
 0002:0000c310       ??_C@_0L@FFEJLEGF@noRollStab?$AA@ 20127310     bg_saberLoad.obj
 0002:0000c31c       ??_C@_09IJPFECN@gloatAnim?$AA@ 2012731c     bg_saberLoad.obj
 0002:0000c328       ??_C@_0N@KBGALCJL@flourishAnim?$AA@ 20127328     bg_saberLoad.obj
 0002:0000c338       ??_C@_0N@BMHFJOOE@meditateAnim?$AA@ 20127338     bg_saberLoad.obj
 0002:0000c348       ??_C@_07EKPFJCKJ@bowAnim?$AA@ 20127348     bg_saberLoad.obj
 0002:0000c350       ??_C@_09COHKNEJL@tauntAnim?$AA@ 20127350     bg_saberLoad.obj
 0002:0000c35c       ??_C@_0M@BFOJGBIN@putawayAnim?$AA@ 2012735c     bg_saberLoad.obj
 0002:0000c368       ??_C@_08OENFMDLA@drawAnim?$AA@ 20127368     bg_saberLoad.obj
 0002:0000c374       ??_C@_09JOJHIGJB@readyAnim?$AA@ 20127374     bg_saberLoad.obj
 0002:0000c380       ??_C@_0BA@PFCMNJNA@jumpAtkLeftMove?$AA@ 20127380     bg_saberLoad.obj
 0002:0000c390       ??_C@_0BB@IGCOPKLJ@jumpAtkRightMove?$AA@ 20127390     bg_saberLoad.obj
 0002:0000c3a4       ??_C@_0BA@BJBMJDFB@jumpAtkBackMove?$AA@ 201273a4     bg_saberLoad.obj
 0002:0000c3b4       ??_C@_0P@OGJOEGIL@jumpAtkFwdMove?$AA@ 201273b4     bg_saberLoad.obj
 0002:0000c3c4       ??_C@_0O@DPADFKNO@jumpAtkUpMove?$AA@ 201273c4     bg_saberLoad.obj
 0002:0000c3d4       ??_C@_0N@OLLFHDJP@lungeAtkMove?$AA@ 201273d4     bg_saberLoad.obj
 0002:0000c3e4       ??_C@_08ILNOIMGH@kataMove?$AA@ 201273e4     bg_saberLoad.obj
 0002:0000c3f0       ??_C@_0M@IADKEHHM@boltToWrist?$AA@ 201273f0     bg_saberLoad.obj
 0002:0000c3fc       ??_C@_0O@FCNJCDBE@bounceOnWalls?$AA@ 201273fc     bg_saberLoad.obj
 0002:0000c40c       ??_C@_0P@MDHCHDJB@animSpeedScale?$AA@ 2012740c     bg_saberLoad.obj
 0002:0000c41c       ??_C@_0P@IOPDDOBC@moveSpeedScale?$AA@ 2012741c     bg_saberLoad.obj
 0002:0000c42c       ??_C@_0M@NJHLFGCM@swingSound3?$AA@ 2012742c     bg_saberLoad.obj
 0002:0000c438       ??_C@_0M@MAGAGHGN@swingSound2?$AA@ 20127438     bg_saberLoad.obj
 0002:0000c444       ??_C@_0M@OLENDEKO@swingSound1?$AA@ 20127444     bg_saberLoad.obj
 0002:0000c450       ??_C@_09GLMEGEAN@spinSound?$AA@ 20127450     bg_saberLoad.obj
 0002:0000c45c       ??_C@_0N@BLLLLBJF@returnDamage?$AA@ 2012745c     bg_saberLoad.obj
 0002:0000c46c       ??_C@_0N@OLHBMGJO@brokenSaber2?$AA@ 2012746c     bg_saberLoad.obj
 0002:0000c47c       ??_C@_0N@MAFMJFFN@brokenSaber1?$AA@ 2012747c     bg_saberLoad.obj
 0002:0000c48c       ??_C@_0BF@MFFEBKBA@singleBladeThrowable?$AA@ 2012748c     bg_saberLoad.obj
 0002:0000c4a4       ??_C@_0BB@MNBBHKPM@singleBladeStyle?$AA@ 201274a4     bg_saberLoad.obj
 0002:0000c4b8       ??_C@_0N@KMHGJIIM@disarmBonus2?$AA@ 201274b8     bg_saberLoad.obj
 0002:0000c4c8       ??_C@_0M@CLGJNKL@disarmBonus?$AA@ 201274c8     bg_saberLoad.obj
 0002:0000c4d4       ??_C@_0BB@JJJLEKKH@breakParryBonus2?$AA@ 201274d4     bg_saberLoad.obj
 0002:0000c4e8       ??_C@_0BA@FKMMEMID@breakParryBonus?$AA@ 201274e8     bg_saberLoad.obj
 0002:0000c4f8       ??_C@_0L@MJIMNAKN@parryBonus?$AA@ 201274f8     bg_saberLoad.obj
 0002:0000c504       ??_C@_09FHICMJAA@lockBonus?$AA@ 20127504     bg_saberLoad.obj
 0002:0000c510       ??_C@_0O@IDDONEJ@forceRestrict?$AA@ 20127510     bg_saberLoad.obj
 0002:0000c520       ??_C@_09BHFJEHJB@twoHanded?$AA@ 20127520     bg_saberLoad.obj
 0002:0000c52c       ??_C@_08NPIAFDOA@blocking?$AA@ 2012752c     bg_saberLoad.obj
 0002:0000c538       ??_C@_0L@CPEPMKHD@disarmable?$AA@ 20127538     bg_saberLoad.obj
 0002:0000c544       ??_C@_09ONPKMKJM@throwable?$AA@ 20127544     bg_saberLoad.obj
 0002:0000c550       ??_C@_08BODNEOME@lockable?$AA@ 20127550     bg_saberLoad.obj
 0002:0000c55c       ??_C@_08GIHANBGF@maxChain?$AA@ 2012755c     bg_saberLoad.obj
 0002:0000c568       ??_C@_0BE@OMGNGLFP@saberStyleForbidden?$AA@ 20127568     bg_saberLoad.obj
 0002:0000c57c       ??_C@_0BC@DDCOJAAO@saberStyleLearned?$AA@ 2012757c     bg_saberLoad.obj
 0002:0000c590       ??_C@_0L@JFMMKNLG@saberStyle?$AA@ 20127590     bg_saberLoad.obj
 0002:0000c59c       ??_C@_0CH@KBCAKBPO@?$FO3WARNING?3?5bad?5saberRadius?5?8?$CFs?8?5@ 2012759c     bg_saberLoad.obj
 0002:0000c5c4       ??_C@_0M@GAGBGIMM@saberRadius?$AA@ 201275c4     bg_saberLoad.obj
 0002:0000c5d0       ??_C@_0CH@KPGIKOPP@?$FO3WARNING?3?5bad?5saberLength?5?8?$CFs?8?5@ 201275d0     bg_saberLoad.obj
 0002:0000c5f8       ??_C@_0M@MOIKADHG@saberLength?$AA@ 201275f8     bg_saberLoad.obj
 0002:0000c604       ??_C@_0CG@CGJEPIIF@?$FO3WARNING?3?5bad?5saberColor?5?8?$CFs?8?5i@ 20127604     bg_saberLoad.obj
 0002:0000c62c       ??_C@_0L@OBCIJENM@saberColor?$AA@ 2012762c     bg_saberLoad.obj
 0002:0000c638       ??_C@_0EH@EGIFGFD@WP_SaberParseParms?3?5saber?5?$CFs?5has@ 20127638     bg_saberLoad.obj
 0002:0000c680       ??_C@_09NEDLCGJM@numBlades?$AA@ 20127680     bg_saberLoad.obj
 0002:0000c68c       ??_C@_08IFIFNFKF@soundOff?$AA@ 2012768c     bg_saberLoad.obj
 0002:0000c698       ??_C@_09LMHPKFJB@soundLoop?$AA@ 20127698     bg_saberLoad.obj
 0002:0000c6a4       ??_C@_07IMONDDDH@soundOn?$AA@ 201276a4     bg_saberLoad.obj
 0002:0000c6ac       ??_C@_0L@EKGCMDJL@customSkin?$AA@ 201276ac     bg_saberLoad.obj
 0002:0000c6b8       ??_C@_0L@MHEAGHEK@saberModel?$AA@ 201276b8     bg_saberLoad.obj
 0002:0000c6c4       ??_C@_09NAGGCFBE@saberType?$AA@ 201276c4     bg_saberLoad.obj
 0002:0000c6d0       ??_C@_04MEMAJGDJ@name?$AA@ 201276d0     bg_saberLoad.obj
 0002:0000c6d8       ??_C@_01CELHOKLL@?$HN?$AA@ 201276d8     bg_saberLoad.obj
 0002:0000c6dc       ??_C@_01HCONENDN@?$HL?$AA@ 201276dc     bg_saberLoad.obj
 0002:0000c6e0       ??_C@_09KGFNABEN@saberinfo?$AA@ 201276e0     bg_saberLoad.obj
 0002:0000c6ec       ??_C@_04FJIOCDAK@Kyle?$AA@ 201276ec     bg_saberLoad.obj
 0002:0000c6f4       ??_C@_01EEMJAFIK@?6?$AA@   201276f4     bg_saberLoad.obj
 0002:0000c6f8       ??_C@_0CH@GILDEJCA@Saber?5extensions?5?$CI?$CK?4sab?$CJ?5are?5too@ 201276f8     bg_saberLoad.obj
 0002:0000c720       ??_C@_0BE@DJGNLOAI@error?5reading?5file?6?$AA@ 20127720     bg_saberLoad.obj
 0002:0000c734       ??_C@_0BD@NNPCBGHA@ext_data?1sabers?1?$CFs?$AA@ 20127734     bg_saberLoad.obj
 0002:0000c748       ??_C@_0BA@MIBHFBCE@ext_data?1sabers?$AA@ 20127748     bg_saberLoad.obj
 0002:0000c758       ??_C@_04CAHIDOMH@?4sab?$AA@ 20127758     bg_saberLoad.obj
 0002:0000c760       ??_C@_06LEMKAMD@remove?$AA@ 20127760     bg_saberLoad.obj
 0002:0000c768       ??_C@_0O@OALEAKPJ@heavy_weapons?$AA@ 20127768     bg_saga.obj
 0002:0000c778       ??_C@_0O@FEHNADND@demolitionist?$AA@ 20127778     bg_saga.obj
 0002:0000c788       ??_C@_0N@DFCFOLOG@jedi_general?$AA@ 20127788     bg_saga.obj
 0002:0000c798       ??_C@_07ILMBEDPO@support?$AA@ 20127798     bg_saga.obj
 0002:0000c7a0       ??_C@_08KMDKBEDF@vanguard?$AA@ 201277a0     bg_saga.obj
 0002:0000c7ac       ??_C@_08GMEOELGB@infantry?$AA@ 201277ac     bg_saga.obj
 0002:0000c7b8       ??_C@_0N@POBOEFDG@PW_YSALAMIRI?$AA@ 201277b8     bg_saga.obj
 0002:0000c7c8       ??_C@_0O@IGDAJBEG@PW_FORCE_BOON?$AA@ 201277c8     bg_saga.obj
 0002:0000c7d8       ??_C@_0BK@MOILIMDA@PW_FORCE_ENLIGHTENED_DARK?$AA@ 201277d8     bg_saga.obj
 0002:0000c7f4       ??_C@_0BL@EBGCPDCI@PW_FORCE_ENLIGHTENED_LIGHT?$AA@ 201277f4     bg_saga.obj
 0002:0000c810       ??_C@_0L@LJAIJPE@PW_CLOAKED?$AA@ 20127810     bg_saga.obj
 0002:0000c81c       ??_C@_08BNFNBBBB@PW_SPEED?$AA@ 2012781c     bg_saga.obj
 0002:0000c828       ??_C@_0M@FBGLLBBK@PW_DISINT_4?$AA@ 20127828     bg_saga.obj
 0002:0000c834       ??_C@_0O@ENGHHLHL@PW_SPEEDBURST?$AA@ 20127834     bg_saga.obj
 0002:0000c844       ??_C@_0N@GHPJGBHC@PW_SHIELDHIT?$AA@ 20127844     bg_saga.obj
 0002:0000c854       ??_C@_0P@IBLDCDDO@PW_NEUTRALFLAG?$AA@ 20127854     bg_saga.obj
 0002:0000c864       ??_C@_0M@MJPEKDEL@PW_BLUEFLAG?$AA@ 20127864     bg_saga.obj
 0002:0000c870       ??_C@_0L@EHANBCOH@PW_REDFLAG?$AA@ 20127870     bg_saga.obj
 0002:0000c87c       ??_C@_07DFNNPKLN@PW_PULL?$AA@ 2012787c     bg_saga.obj
 0002:0000c884       ??_C@_0O@MMBFHIEB@PW_BATTLESUIT?$AA@ 20127884     bg_saga.obj
 0002:0000c894       ??_C@_07MILMMKFG@PW_QUAD?$AA@ 20127894     bg_saga.obj
 0002:0000c89c       ??_C@_07HOPALIC@PW_NONE?$AA@ 2012789c     bg_saga.obj
 0002:0000c8a4       ??_C@_08CKJOPOAO@HI_CLOAK?$AA@ 201278a4     bg_saga.obj
 0002:0000c8b0       ??_C@_07DODJPBMI@HI_EWEB?$AA@ 201278b0     bg_saga.obj
 0002:0000c8b8       ??_C@_0M@GINCEKMK@HI_AMMODISP?$AA@ 201278b8     bg_saga.obj
 0002:0000c8c4       ??_C@_0O@CACPKEEP@HI_HEALTHDISP?$AA@ 201278c4     bg_saga.obj
 0002:0000c8d4       ??_C@_0L@HECMIPKK@HI_JETPACK?$AA@ 201278d4     bg_saga.obj
 0002:0000c8e0       ??_C@_0O@FBGGHEEG@HI_SENTRY_GUN?$AA@ 201278e0     bg_saga.obj
 0002:0000c8f0       ??_C@_0O@ELJADNKI@HI_BINOCULARS?$AA@ 201278f0     bg_saga.obj
 0002:0000c900       ??_C@_0O@LLNJKJCO@HI_MEDPAC_BIG?$AA@ 20127900     bg_saga.obj
 0002:0000c910       ??_C@_09NJBEABJH@HI_MEDPAC?$AA@ 20127910     bg_saga.obj
 0002:0000c91c       ??_C@_09IKKFJDFC@HI_SHIELD?$AA@ 2012791c     bg_saga.obj
 0002:0000c928       ??_C@_09FNJEOG@HI_SEEKER?$AA@ 20127928     bg_saga.obj
 0002:0000c934       ??_C@_07JPFAMGIP@HI_NONE?$AA@ 20127934     bg_saga.obj
 0002:0000c93c       ??_C@_0O@HFIJJPHA@FP_SABERTHROW?$AA@ 2012793c     bg_saga.obj
 0002:0000c94c       ??_C@_0BB@OENPHNCL@FP_SABER_DEFENSE?$AA@ 2012794c     bg_saga.obj
 0002:0000c960       ??_C@_0BB@IIFNHLOA@FP_SABER_OFFENSE?$AA@ 20127960     bg_saga.obj
 0002:0000c974       ??_C@_06NBGCGEAI@FP_SEE?$AA@ 20127974     bg_saga.obj
 0002:0000c97c       ??_C@_08NAMGMEAJ@FP_DRAIN?$AA@ 2012797c     bg_saga.obj
 0002:0000c988       ??_C@_0O@FDDGJKAO@FP_TEAM_FORCE?$AA@ 20127988     bg_saga.obj
 0002:0000c998       ??_C@_0N@MKMKNEAO@FP_TEAM_HEAL?$AA@ 20127998     bg_saga.obj
 0002:0000c9a8       ??_C@_09MANKLPPB@FP_ABSORB?$AA@ 201279a8     bg_saga.obj
 0002:0000c9b4       ??_C@_0L@GMEKEMHM@FP_PROTECT?$AA@ 201279b4     bg_saga.obj
 0002:0000c9c0       ??_C@_07DCICDLJP@FP_RAGE?$AA@ 201279c0     bg_saga.obj
 0002:0000c9c8       ??_C@_0N@MLCJOEAL@FP_LIGHTNING?$AA@ 201279c8     bg_saga.obj
 0002:0000c9d8       ??_C@_07OFAFBAAC@FP_GRIP?$AA@ 201279d8     bg_saga.obj
 0002:0000c9e0       ??_C@_0N@EOKHLCHN@FP_TELEPATHY?$AA@ 201279e0     bg_saga.obj
 0002:0000c9f0       ??_C@_07EKKOPMJP@FP_PULL?$AA@ 201279f0     bg_saga.obj
 0002:0000c9f8       ??_C@_07DJLINNNG@FP_PUSH?$AA@ 201279f8     bg_saga.obj
 0002:0000ca00       ??_C@_08MIECCDPD@FP_SPEED?$AA@ 20127a00     bg_saga.obj
 0002:0000ca0c       ??_C@_0O@GOCMKMCC@FP_LEVITATION?$AA@ 20127a0c     bg_saga.obj
 0002:0000ca1c       ??_C@_07ECPPOEBA@FP_HEAL?$AA@ 20127a1c     bg_saga.obj
 0002:0000ca24       ??_C@_09LJGBHCLN@WP_TURRET?$AA@ 20127a24     bg_saga.obj
 0002:0000ca30       ??_C@_0BA@HPLIMHOO@WP_EMPLACED_GUN?$AA@ 20127a30     bg_saga.obj
 0002:0000ca40       ??_C@_0N@OIFGJENP@WP_BRYAR_OLD?$AA@ 20127a40     bg_saga.obj
 0002:0000ca50       ??_C@_0O@MNNKJNKC@WP_CONCUSSION?$AA@ 20127a50     bg_saga.obj
 0002:0000ca60       ??_C@_0BC@LEINJGEK@WP_BLASTER_PISTOL?$AA@ 20127a60     bg_saga.obj
 0002:0000ca74       ??_C@_08IGDGHABD@WP_MELEE?$AA@ 20127a74     bg_saga.obj
 0002:0000ca80       ??_C@_07MIINDMBF@WP_NONE?$AA@ 20127a80     bg_saga.obj
 0002:0000ca88       ??_C@_04HIBGFPH@NULL?$AA@  20127a88     bg_saga.obj
 0002:0000ca90       ??_C@_08OKAIMOGC@SS_STAFF?$AA@ 20127a90     bg_saga.obj
 0002:0000ca9c       ??_C@_07NCKFHLFM@SS_DUAL?$AA@ 20127a9c     bg_saga.obj
 0002:0000caa4       ??_C@_09NOGCKHNM@SS_TAVION?$AA@ 20127aa4     bg_saga.obj
 0002:0000cab0       ??_C@_09COLLLEKM@SS_DESANN?$AA@ 20127ab0     bg_saga.obj
 0002:0000cabc       ??_C@_09EIDFCCBI@SS_STRONG?$AA@ 20127abc     bg_saga.obj
 0002:0000cac8       ??_C@_09JHAJINFA@SS_MEDIUM?$AA@ 20127ac8     bg_saga.obj
 0002:0000cad4       ??_C@_07OKKHAHLD@SS_FAST?$AA@ 20127ad4     bg_saga.obj
 0002:0000cadc       ??_C@_07HNCPCIHC@SS_NONE?$AA@ 20127adc     bg_saga.obj
 0002:0000cae4       ??_C@_0P@KICFDAJ@CFL_EXTRA_AMMO?$AA@ 20127ae4     bg_saga.obj
 0002:0000caf4       ??_C@_0P@LBJDDHDM@CFL_CUSTOMSKEL?$AA@ 20127af4     bg_saga.obj
 0002:0000cb04       ??_C@_0BC@LICHKKD@CFL_SINGLE_ROCKET?$AA@ 20127b04     bg_saga.obj
 0002:0000cb18       ??_C@_0P@NCLEBEDM@CFL_HEAVYMELEE?$AA@ 20127b18     bg_saga.obj
 0002:0000cb28       ??_C@_0P@DKGINMOP@CFL_STATVIEWER?$AA@ 20127b28     bg_saga.obj
 0002:0000cb38       ??_C@_0BD@DNMLPLIL@CFL_FASTFORCEREGEN?$AA@ 20127b38     bg_saga.obj
 0002:0000cb4c       ??_C@_0BK@JLDBMALB@CFL_STRONGAGAINSTPHYSICAL?$AA@ 20127b4c     bg_saga.obj
 0002:0000cb68       ??_C@_0BB@OIJDKHFE@CFL_MORESABERDMG?$AA@ 20127b68     bg_saga.obj
 0002:0000cb7c       ??_C@_0CI@BBIKCBO@Group?5?8?$CFs?8?5is?5missing?5a?5closing?5@ 20127b7c     bg_saga.obj
 0002:0000cba8       ??_C@_0FJ@KOGMAIHK@Found?5an?5opening?5bracket?5without@ 20127ba8     bg_saga.obj
 0002:0000cc08       ??_C@_0FA@EHNNLFND@Found?5a?5closing?5bracket?5without?5@ 20127c08     bg_saga.obj
 0002:0000cc58       ??_C@_0GA@DIGHOEOC@Error?5parsing?5group?5in?5file?0?5une@ 20127c58     bg_saga.obj
 0002:0000ccb8       ??_C@_0CM@DMIPCGDB@Unexpected?5EOF?5while?5looking?5for@ 20127cb8     bg_saga.obj
 0002:0000cce8       ??_C@_0FH@PHDPJEBI@Unexpected?5EOF?5while?5looking?5for@ 20127ce8     bg_saga.obj
 0002:0000cd40       ??_C@_0EP@OCHOIPPN@Unexpected?5EOF?5while?5looking?5for@ 20127d40     bg_saga.obj
 0002:0000cd90       ??_C@_0EA@CICFFHLL@Error?5parsing?5file?0?5unexpected?5E@ 20127d90     bg_saga.obj
 0002:0000cdd0       ??_C@_0DL@MANGCKOJ@Error?5parsing?5file?0?5found?5commen@ 20127dd0     bg_saga.obj
 0002:0000ce10       ??_C@_0EJ@GJJGBCAC@Unexpected?5closing?5bracket?5?$CItoo?5@ 20127e10     bg_saga.obj
 0002:0000ce5c       ??_C@_07IHELEENG@FP_JUMP?$AA@ 20127e5c     bg_saga.obj
 0002:0000ce64       ??_C@_06PFGBHLNK@FP_ALL?$AA@ 20127e64     bg_saga.obj
 0002:0000ce6c       ??_C@_08BOHIELLL@powerups?$AA@ 20127e6c     bg_saga.obj
 0002:0000ce78       ??_C@_09LOIGNDON@holdables?$AA@ 20127e78     bg_saga.obj
 0002:0000ce84       ??_C@_0CN@HKDFKNIC@ERROR?3?5no?5class_shader?5defined?5f@ 20127e84     bg_saga.obj
 0002:0000ceb4       ??_C@_0N@NNMCCMOK@class_shader?$AA@ 20127eb4     bg_saga.obj
 0002:0000cec4       ??_C@_0CD@GDIFDMKP@Siege?5class?5without?5uishader?5ent@ 20127ec4     bg_saga.obj
 0002:0000cee8       ??_C@_08BGECLNMM@uishader?$AA@ 20127ee8     bg_saga.obj
 0002:0000cef4       ??_C@_05HJCMGBKF@speed?$AA@ 20127ef4     bg_saga.obj
 0002:0000cefc       ??_C@_0L@GGCEHPNG@startarmor?$AA@ 20127efc     bg_saga.obj
 0002:0000cf08       ??_C@_08KAGIGECM@maxarmor?$AA@ 20127f08     bg_saga.obj
 0002:0000cf14       ??_C@_0M@JKHBPLJM@starthealth?$AA@ 20127f14     bg_saga.obj
 0002:0000cf20       ??_C@_09MHNPKMIF@maxhealth?$AA@ 20127f20     bg_saga.obj
 0002:0000cf2c       ??_C@_0L@GKKNICAL@classflags?$AA@ 20127f2c     bg_saga.obj
 0002:0000cf38       ??_C@_0M@IOJHBENM@forcepowers?$AA@ 20127f38     bg_saga.obj
 0002:0000cf44       ??_C@_0CC@FAKKFGGN@Siege?5class?5without?5weapons?5entr@ 20127f44     bg_saga.obj
 0002:0000cf68       ??_C@_07PKKCMMCH@weapons?$AA@ 20127f68     bg_saga.obj
 0002:0000cf70       ??_C@_0M@OOLLFDOG@saber2color?$AA@ 20127f70     bg_saga.obj
 0002:0000cf7c       ??_C@_0L@OGIEJBOK@sabercolor?$AA@ 20127f7c     bg_saga.obj
 0002:0000cf88       ??_C@_0L@JCGAKIIA@saberstyle?$AA@ 20127f88     bg_saga.obj
 0002:0000cf94       ??_C@_06CJLEPNJL@saber2?$AA@ 20127f94     bg_saga.obj
 0002:0000cf9c       ??_C@_06CJJKOFI@saber1?$AA@ 20127f9c     bg_saga.obj
 0002:0000cfa4       ??_C@_04NHPAFEHJ@skin?$AA@ 20127fa4     bg_saga.obj
 0002:0000cfac       ??_C@_05NCCFOPHA@model?$AA@ 20127fac     bg_saga.obj
 0002:0000cfb4       ??_C@_0BP@JPFHBDB@Siege?5class?5without?5name?5entry?$AA@ 20127fb4     bg_saga.obj
 0002:0000cfd4       ??_C@_09LPPNDGJE@ClassInfo?$AA@ 20127fd4     bg_saga.obj
 0002:0000cfe0       ??_C@_0BI@JBHHAHFA@DESCRIPTION?5UNAVAILABLE?$AA@ 20127fe0     bg_saga.obj
 0002:0000cff8       ??_C@_0M@PPJNHBMP@description?$AA@ 20127ff8     bg_saga.obj
 0002:0000d004       ??_C@_0BI@HBENBDF@ext_data?1Siege?1Classes?1?$AA@ 20128004     bg_saga.obj
 0002:0000d01c       ??_C@_0BH@NCMEBBFN@ext_data?1Siege?1Classes?$AA@ 2012801c     bg_saga.obj
 0002:0000d034       ??_C@_04LNHPMHCH@?4scl?$AA@ 20128034     bg_saga.obj
 0002:0000d03c       ??_C@_0CI@JBGGEKDP@Team?5defined?5with?5no?5allowable?5c@ 2012803c     bg_saga.obj
 0002:0000d064       ??_C@_0BO@LFIIBAMC@Invalid?5class?5specified?3?5?8?$CFs?8?$AA@ 20128064     bg_saga.obj
 0002:0000d084       ??_C@_07GEGLMCI@class?$CFi?$AA@ 20128084     bg_saga.obj
 0002:0000d08c       ??_C@_07DPIHKJGF@Classes?$AA@ 2012808c     bg_saga.obj
 0002:0000d094       ??_C@_0CD@FDGFFIBB@Siege?5team?5with?5no?5name?5definiti@ 20128094     bg_saga.obj
 0002:0000d0b8       ??_C@_0BG@DPLOPEAL@ext_data?1Siege?1Teams?1?$AA@ 201280b8     bg_saga.obj
 0002:0000d0d0       ??_C@_0BF@KACDOLPP@ext_data?1Siege?1Teams?$AA@ 201280d0     bg_saga.obj
 0002:0000d0e8       ??_C@_05OKHHMPNJ@?4team?$AA@ 201280e8     bg_saga.obj
 0002:0000d0f0       __real@c2340000            201280f0     bg_slidemove.obj
 0002:0000d0f4       __real@42340000            201280f4     bg_slidemove.obj
 0002:0000d0f8       __real@3dcccccd            201280f8     bg_slidemove.obj
 0002:0000d0fc       ??_C@_0O@JDFCILJF@func_rotating?$AA@ 201280fc     bg_slidemove.obj
 0002:0000d10c       __real@bf333333            2012810c     bg_slidemove.obj
 0002:0000d110       ??_C@_0M@CDHDENEF@?$CFi?3stepped?6?$AA@ 20128110     bg_slidemove.obj
 0002:0000d11c       __real@3e99999a            2012811c     bg_slidemove.obj
 0002:0000d120       ??_C@_0BE@FLPNHHPN@?$CFi?3bend?5can?8t?5step?6?$AA@ 20128120     bg_slidemove.obj
 0002:0000d138       __real@4050800000000000    20128138     bg_slidemove.obj
 0002:0000d140       ??_C@_08GLJJKINI@VH_FLIER?$AA@ 20128140     bg_vehicleLoad.obj
 0002:0000d14c       ??_C@_09IHBEGJAE@VH_ANIMAL?$AA@ 2012814c     bg_vehicleLoad.obj
 0002:0000d158       ??_C@_0L@PJKFHOGE@VH_SPEEDER?$AA@ 20128158     bg_vehicleLoad.obj
 0002:0000d164       ??_C@_0L@NKPJKKBD@VH_FIGHTER?$AA@ 20128164     bg_vehicleLoad.obj
 0002:0000d170       ??_C@_09EMIPDFIK@VH_WALKER?$AA@ 20128170     bg_vehicleLoad.obj
 0002:0000d17c       ??_C@_07FABGOOCC@VH_NONE?$AA@ 2012817c     bg_vehicleLoad.obj
 0002:0000d184       ??_C@_0BF@FIODOCFH@turret2GunnerViewTag?$AA@ 20128184     bg_vehicleLoad.obj
 0002:0000d19c       ??_C@_0BE@LBDLJCMI@turret2PassengerNum?$AA@ 2012819c     bg_vehicleLoad.obj
 0002:0000d1b0       ??_C@_0P@FJKEHIDI@turret2AIRange?$AA@ 201281b0     bg_vehicleLoad.obj
 0002:0000d1c0       ??_C@_0O@FKFOBAOB@turret2AILead?$AA@ 201281c0     bg_vehicleLoad.obj
 0002:0000d1d0       ??_C@_09JCMLJIGJ@turret2AI?$AA@ 201281d0     bg_vehicleLoad.obj
 0002:0000d1dc       ??_C@_0BB@GKFEIPAN@turret2TurnSpeed?$AA@ 201281dc     bg_vehicleLoad.obj
 0002:0000d1f0       ??_C@_0P@MBHAFEOP@turret2Muzzle2?$AA@ 201281f0     bg_vehicleLoad.obj
 0002:0000d200       ??_C@_0P@OKFNAHCM@turret2Muzzle1?$AA@ 20128200     bg_vehicleLoad.obj
 0002:0000d210       ??_C@_0BD@ENIGHIPL@turret2ClampPitchD?$AA@ 20128210     bg_vehicleLoad.obj
 0002:0000d224       ??_C@_0BD@BOFPFLOL@turret2ClampPitchU?$AA@ 20128224     bg_vehicleLoad.obj
 0002:0000d238       ??_C@_0BB@DIKMIGDC@turret2ClampYawR?$AA@ 20128238     bg_vehicleLoad.obj
 0002:0000d24c       ??_C@_0BB@OMONLJON@turret2ClampYawL?$AA@ 2012824c     bg_vehicleLoad.obj
 0002:0000d260       ??_C@_0BB@NCOFGCLN@turret2PitchAxis?$AA@ 20128260     bg_vehicleLoad.obj
 0002:0000d274       ??_C@_0P@PPHMAOEC@turret2YawAxis?$AA@ 20128274     bg_vehicleLoad.obj
 0002:0000d284       ??_C@_0BB@EBFMNEBJ@turret2PitchBone?$AA@ 20128284     bg_vehicleLoad.obj
 0002:0000d298       ??_C@_0P@GMMFLIOG@turret2YawBone?$AA@ 20128298     bg_vehicleLoad.obj
 0002:0000d2a8       ??_C@_0BG@KBCLJNLB@turret2AmmoRechargeMS?$AA@ 201282a8     bg_vehicleLoad.obj
 0002:0000d2c0       ??_C@_0P@GBCMHONA@turret2AmmoMax?$AA@ 201282c0     bg_vehicleLoad.obj
 0002:0000d2d0       ??_C@_0N@GAMMJDLC@turret2Delay?$AA@ 201282d0     bg_vehicleLoad.obj
 0002:0000d2e0       ??_C@_0M@CJIFPDBG@turret2Weap?$AA@ 201282e0     bg_vehicleLoad.obj
 0002:0000d2ec       ??_C@_0BF@EJJOIICO@turret1GunnerViewTag?$AA@ 201282ec     bg_vehicleLoad.obj
 0002:0000d304       ??_C@_0BE@MNFKLHBD@turret1PassengerNum?$AA@ 20128304     bg_vehicleLoad.obj
 0002:0000d318       ??_C@_0P@GACJEEPN@turret1AIRange?$AA@ 20128318     bg_vehicleLoad.obj
 0002:0000d328       ??_C@_0O@NENBBHAC@turret1AILead?$AA@ 20128328     bg_vehicleLoad.obj
 0002:0000d338       ??_C@_09IAHODHIH@turret1AI?$AA@ 20128338     bg_vehicleLoad.obj
 0002:0000d344       ??_C@_0BB@PDLGOJAM@turret1TurnSpeed?$AA@ 20128344     bg_vehicleLoad.obj
 0002:0000d358       ??_C@_0P@PIPNGICK@turret1Muzzle2?$AA@ 20128358     bg_vehicleLoad.obj
 0002:0000d368       ??_C@_0P@NDNADLOJ@turret1Muzzle1?$AA@ 20128368     bg_vehicleLoad.obj
 0002:0000d378       ??_C@_0BD@PAEMBEDF@turret1ClampPitchD?$AA@ 20128378     bg_vehicleLoad.obj
 0002:0000d38c       ??_C@_0BD@KDJFDHCF@turret1ClampPitchU?$AA@ 2012838c     bg_vehicleLoad.obj
 0002:0000d3a0       ??_C@_0BB@KBEOOADD@turret1ClampYawR?$AA@ 201283a0     bg_vehicleLoad.obj
 0002:0000d3b4       ??_C@_0BB@HFAPNPOM@turret1ClampYawL?$AA@ 201283b4     bg_vehicleLoad.obj
 0002:0000d3c8       ??_C@_0BB@ELAHAELM@turret1PitchAxis?$AA@ 201283c8     bg_vehicleLoad.obj
 0002:0000d3dc       ??_C@_0P@MGPBDCIH@turret1YawAxis?$AA@ 201283dc     bg_vehicleLoad.obj
 0002:0000d3ec       ??_C@_0BB@NILOLCBI@turret1PitchBone?$AA@ 201283ec     bg_vehicleLoad.obj
 0002:0000d400       ??_C@_0P@FFEIIECD@turret1YawBone?$AA@ 20128400     bg_vehicleLoad.obj
 0002:0000d410       ??_C@_0BG@IIODCJED@turret1AmmoRechargeMS?$AA@ 20128410     bg_vehicleLoad.obj
 0002:0000d428       ??_C@_0P@FIKBECBF@turret1AmmoMax?$AA@ 20128428     bg_vehicleLoad.obj
 0002:0000d438       ??_C@_0N@FBCEIJCP@turret1Delay?$AA@ 20128438     bg_vehicleLoad.obj
 0002:0000d448       ??_C@_0M@KPBBIBLI@turret1Weap?$AA@ 20128448     bg_vehicleLoad.obj
 0002:0000d454       ??_C@_0BP@GIMDHKNG@cameraPitchDependantVertOffset?$AA@ 20128454     bg_vehicleLoad.obj
 0002:0000d474       ??_C@_0M@HCDOHHGA@cameraAlpha?$AA@ 20128474     bg_vehicleLoad.obj
 0002:0000d480       ??_C@_09DEDNKOMM@cameraFOV?$AA@ 20128480     bg_vehicleLoad.obj
 0002:0000d48c       ??_C@_0BC@HAMFPJAF@cameraPitchOffset?$AA@ 2012848c     bg_vehicleLoad.obj
 0002:0000d4a0       ??_C@_0BB@PHKMDBPA@cameraHorzOffset?$AA@ 201284a0     bg_vehicleLoad.obj
 0002:0000d4b4       ??_C@_0BB@JIEFMMG@cameraVertOffset?$AA@ 201284b4     bg_vehicleLoad.obj
 0002:0000d4c8       ??_C@_0M@NABKGBHB@cameraRange?$AA@ 201284c8     bg_vehicleLoad.obj
 0002:0000d4d4       ??_C@_0P@GNOAPEOI@cameraOverride?$AA@ 201284d4     bg_vehicleLoad.obj
 0002:0000d4e4       ??_C@_0BH@HMLFHDGJ@CloakingDeviceOffSound?$AA@ 201284e4     bg_vehicleLoad.obj
 0002:0000d4fc       ??_C@_0BG@PFPCOFJB@CloakingDeviceOnSound?$AA@ 201284fc     bg_vehicleLoad.obj
 0002:0000d514       ??_C@_0P@FFKEJJLI@CloakingDevice?$AA@ 20128514     bg_vehicleLoad.obj
 0002:0000d524       ??_C@_0BM@FOOHJKCD@SpeedMultiplierForRamDamage?$AA@ 20128524     bg_vehicleLoad.obj
 0002:0000d540       ??_C@_0P@PMEODJBE@ResistsMarking?$AA@ 20128540     bg_vehicleLoad.obj
 0002:0000d550       ??_C@_0BM@LGBMEDDK@AllWeaponsDoDamageToShields?$AA@ 20128550     bg_vehicleLoad.obj
 0002:0000d56c       ??_C@_0BK@HMHIDDFE@AllWeaponsDoDamageToArmor?$AA@ 2012856c     bg_vehicleLoad.obj
 0002:0000d588       ??_C@_0BE@INPBIKLG@CantKnockoutShields?$AA@ 20128588     bg_vehicleLoad.obj
 0002:0000d59c       ??_C@_0BC@HAFDLJBA@MBFdisableshields?$AA@ 2012859c     bg_vehicleLoad.obj
 0002:0000d5b0       ??_C@_0BB@LGKMCAAB@MBFstopaltfiring?$AA@ 201285b0     bg_vehicleLoad.obj
 0002:0000d5c4       ??_C@_0BF@GPMLJGFL@MBFstopprimaryfiring?$AA@ 201285c4     bg_vehicleLoad.obj
 0002:0000d5dc       ??_C@_0BL@MPFJFOIP@VehicleMovementModesActive?$AA@ 201285dc     bg_vehicleLoad.obj
 0002:0000d5f8       ??_C@_0P@OINMICGP@explosionDelay?$AA@ 201285f8     bg_vehicleLoad.obj
 0002:0000d608       ??_C@_09FEKLMMFJ@flammable?$AA@ 20128608     bg_vehicleLoad.obj
 0002:0000d614       ??_C@_0BB@PDHEMPIJ@killRiderOnDeath?$AA@ 20128614     bg_vehicleLoad.obj
 0002:0000d628       ??_C@_09JBJPOHNK@hideRider?$AA@ 20128628     bg_vehicleLoad.obj
 0002:0000d634       ??_C@_0O@NGNHGBJN@maxPassengers?$AA@ 20128634     bg_vehicleLoad.obj
 0002:0000d644       ??_C@_0BA@HFCGNKHF@explosionDamage?$AA@ 20128644     bg_vehicleLoad.obj
 0002:0000d654       ??_C@_0BA@LKLGPLNG@explosionRadius?$AA@ 20128654     bg_vehicleLoad.obj
 0002:0000d664       ??_C@_08PPAAKLBH@loudness?$AA@ 20128664     bg_vehicleLoad.obj
 0002:0000d670       ??_C@_0L@CNKMJODB@visibility?$AA@ 20128670     bg_vehicleLoad.obj
 0002:0000d67c       ??_C@_0O@DAFJHCFD@turboRecharge?$AA@ 2012867c     bg_vehicleLoad.obj
 0002:0000d68c       ??_C@_0O@LHGBPOCO@turboDuration?$AA@ 2012868c     bg_vehicleLoad.obj
 0002:0000d69c       ??_C@_08POLMHDEL@fuelRate?$AA@ 2012869c     bg_vehicleLoad.obj
 0002:0000d6a8       ??_C@_07PBHPKAIK@fuelMax?$AA@ 201286a8     bg_vehicleLoad.obj
 0002:0000d6b0       ??_C@_08DLBCDKOK@bouyancy?$AA@ 201286b0     bg_vehicleLoad.obj
 0002:0000d6bc       ??_C@_0L@KPACIHBI@waterProof?$AA@ 201286bc     bg_vehicleLoad.obj
 0002:0000d6c8       ??_C@_0O@JOCPMJAA@hoverStrength?$AA@ 201286c8     bg_vehicleLoad.obj
 0002:0000d6d8       ??_C@_0M@HKBHLPFK@hoverHeight?$AA@ 201286d8     bg_vehicleLoad.obj
 0002:0000d6e4       ??_C@_07GFBFDLBM@gravity?$AA@ 201286e4     bg_vehicleLoad.obj
 0002:0000d6ec       ??_C@_0O@JIDEEHO@landingHeight?$AA@ 201286ec     bg_vehicleLoad.obj
 0002:0000d6fc       ??_C@_0N@GDPHOKJG@weapMuzzle10?$AA@ 201286fc     bg_vehicleLoad.obj
 0002:0000d70c       ??_C@_0M@BPIGPFLJ@weapMuzzle9?$AA@ 2012870c     bg_vehicleLoad.obj
 0002:0000d718       ??_C@_0M@GJNMEPI@weapMuzzle8?$AA@ 20128718     bg_vehicleLoad.obj
 0002:0000d724       ??_C@_0M@IBAFNIDH@weapMuzzle7?$AA@ 20128724     bg_vehicleLoad.obj
 0002:0000d730       ??_C@_0M@JIBOOJHG@weapMuzzle6?$AA@ 20128730     bg_vehicleLoad.obj
 0002:0000d73c       ??_C@_0M@LDDDLKLF@weapMuzzle5?$AA@ 2012873c     bg_vehicleLoad.obj
 0002:0000d748       ??_C@_0M@KKCIILPE@weapMuzzle4?$AA@ 20128748     bg_vehicleLoad.obj
 0002:0000d754       ??_C@_0M@OFGJBNDD@weapMuzzle3?$AA@ 20128754     bg_vehicleLoad.obj
 0002:0000d760       ??_C@_0M@PMHCCMHC@weapMuzzle2?$AA@ 20128760     bg_vehicleLoad.obj
 0002:0000d76c       ??_C@_0M@NHFPHPLB@weapMuzzle1?$AA@ 2012876c     bg_vehicleLoad.obj
 0002:0000d778       ??_C@_0BB@PMCLALPP@weap2SoundNoAmmo?$AA@ 20128778     bg_vehicleLoad.obj
 0002:0000d78c       ??_C@_0BB@EBOBGHDB@weap1SoundNoAmmo?$AA@ 2012878c     bg_vehicleLoad.obj
 0002:0000d7a0       ??_C@_0BE@BOOILCOO@weap2AmmoRechargeMS?$AA@ 201287a0     bg_vehicleLoad.obj
 0002:0000d7b4       ??_C@_0BE@DHCAAGBM@weap1AmmoRechargeMS?$AA@ 201287b4     bg_vehicleLoad.obj
 0002:0000d7c8       ??_C@_0N@IHPKDNMK@weap2AmmoMax?$AA@ 201287c8     bg_vehicleLoad.obj
 0002:0000d7d8       ??_C@_0N@LOHHABAP@weap1AmmoMax?$AA@ 201287d8     bg_vehicleLoad.obj
 0002:0000d7e8       ??_C@_08FMMAJAPJ@weap2Aim?$AA@ 201287e8     bg_vehicleLoad.obj
 0002:0000d7f4       ??_C@_08BLGAOKCJ@weap1Aim?$AA@ 201287f4     bg_vehicleLoad.obj
 0002:0000d800       ??_C@_09LIOCECKM@weap2Link?$AA@ 20128800     bg_vehicleLoad.obj
 0002:0000d80c       ??_C@_09DOHGDAAC@weap1Link?$AA@ 2012880c     bg_vehicleLoad.obj
 0002:0000d818       ??_C@_0L@KPBIONAP@weap2Delay?$AA@ 20128818     bg_vehicleLoad.obj
 0002:0000d824       ??_C@_0L@JOPAPHJC@weap1Delay?$AA@ 20128824     bg_vehicleLoad.obj
 0002:0000d830       ??_C@_05DDNDDHFP@weap2?$AA@ 20128830     bg_vehicleLoad.obj
 0002:0000d838       ??_C@_05BIPOGEJM@weap1?$AA@ 20128838     bg_vehicleLoad.obj
 0002:0000d840       ??_C@_07PEBKCGPE@rwingFX?$AA@ 20128840     bg_vehicleLoad.obj
 0002:0000d848       ??_C@_07JNCLAFON@lwingFX?$AA@ 20128848     bg_vehicleLoad.obj
 0002:0000d850       ??_C@_06PEEHBBLG@noseFX?$AA@ 20128850     bg_vehicleLoad.obj
 0002:0000d858       ??_C@_08NBOBHDEO@injureFX?$AA@ 20128858     bg_vehicleLoad.obj
 0002:0000d864       ??_C@_05BMHOEJHI@dmgFX?$AA@ 20128864     bg_vehicleLoad.obj
 0002:0000d86c       ??_C@_06GMJLHFJI@wakeFX?$AA@ 2012886c     bg_vehicleLoad.obj
 0002:0000d874       ??_C@_09BPBLMDGM@explodeFX?$AA@ 20128874     bg_vehicleLoad.obj
 0002:0000d880       ??_C@_07OJDPNJKI@trailFX?$AA@ 20128880     bg_vehicleLoad.obj
 0002:0000d888       ??_C@_0N@KHLFFGCJ@turboStartFX?$AA@ 20128888     bg_vehicleLoad.obj
 0002:0000d898       ??_C@_07MMLPAJOM@turboFX?$AA@ 20128898     bg_vehicleLoad.obj
 0002:0000d8a0       ??_C@_09EJLKNCKH@exhaustFX?$AA@ 201288a0     bg_vehicleLoad.obj
 0002:0000d8ac       ??_C@_0M@FAJFECEE@soundShift4?$AA@ 201288ac     bg_vehicleLoad.obj
 0002:0000d8b8       ??_C@_0M@BPNENEID@soundShift3?$AA@ 201288b8     bg_vehicleLoad.obj
 0002:0000d8c4       ??_C@_0M@GMPOFMC@soundShift2?$AA@ 201288c4     bg_vehicleLoad.obj
 0002:0000d8d0       ??_C@_0M@CNOCLGAB@soundShift1?$AA@ 201288d0     bg_vehicleLoad.obj
 0002:0000d8dc       ??_C@_0M@OPNACIAF@soundFlyBy2?$AA@ 201288dc     bg_vehicleLoad.obj
 0002:0000d8e8       ??_C@_0L@MNOPHOMD@soundFlyBy?$AA@ 201288e8     bg_vehicleLoad.obj
 0002:0000d8f4       ??_C@_09HDMMGPMA@soundLand?$AA@ 201288f4     bg_vehicleLoad.obj
 0002:0000d900       ??_C@_0L@PMBLMBGF@soundHyper?$AA@ 20128900     bg_vehicleLoad.obj
 0002:0000d90c       ??_C@_0L@BNNFFMJG@soundTurbo?$AA@ 2012890c     bg_vehicleLoad.obj
 0002:0000d918       ??_C@_09IGHJKBGG@soundSpin?$AA@ 20128918     bg_vehicleLoad.obj
 0002:0000d924       ??_C@_0BB@GGMAFHFB@soundEngineStart?$AA@ 20128924     bg_vehicleLoad.obj
 0002:0000d938       ??_C@_0N@JPGBMOIF@soundTakeOff?$AA@ 20128938     bg_vehicleLoad.obj
 0002:0000d948       ??_C@_0M@DFCNLFDF@health_left?$AA@ 20128948     bg_vehicleLoad.obj
 0002:0000d954       ??_C@_0N@EMHJOGPP@health_right?$AA@ 20128954     bg_vehicleLoad.obj
 0002:0000d964       ??_C@_0M@MOOOFAHG@health_back?$AA@ 20128964     bg_vehicleLoad.obj
 0002:0000d970       ??_C@_0N@CDHFELM@health_front?$AA@ 20128970     bg_vehicleLoad.obj
 0002:0000d980       ??_C@_0N@JONDFKLC@shieldShader?$AA@ 20128980     bg_vehicleLoad.obj
 0002:0000d990       ??_C@_0BA@FMKKHFFJ@crosshairShader?$AA@ 20128990     bg_vehicleLoad.obj
 0002:0000d9a0       ??_C@_09CMMAKMMC@icon_left?$AA@ 201289a0     bg_vehicleLoad.obj
 0002:0000d9ac       ??_C@_0L@GPLJGMFJ@icon_right?$AA@ 201289ac     bg_vehicleLoad.obj
 0002:0000d9b8       ??_C@_09NHADEJIB@icon_back?$AA@ 201289b8     bg_vehicleLoad.obj
 0002:0000d9c4       ??_C@_0L@CBPHNOBK@icon_front?$AA@ 201289c4     bg_vehicleLoad.obj
 0002:0000d9d0       ??_C@_0BD@KLFJKOII@dmgIndicBackground?$AA@ 201289d0     bg_vehicleLoad.obj
 0002:0000d9e4       ??_C@_0P@FPBFALOJ@dmgIndicShield?$AA@ 201289e4     bg_vehicleLoad.obj
 0002:0000d9f4       ??_C@_0O@DJHCJKGN@dmgIndicFrame?$AA@ 201289f4     bg_vehicleLoad.obj
 0002:0000da04       ??_C@_09FONOLKPA@radarIcon?$AA@ 20128a04     bg_vehicleLoad.obj
 0002:0000da10       ??_C@_08EJIADHP@droidNPC?$AA@ 20128a10     bg_vehicleLoad.obj
 0002:0000da1c       ??_C@_09PMPDIAJG@riderAnim?$AA@ 20128a1c     bg_vehicleLoad.obj
 0002:0000da28       ??_C@_08CCPHKHEL@g2radius?$AA@ 20128a28     bg_vehicleLoad.obj
 0002:0000da34       ??_C@_0BA@PLDNJPJN@surfDestruction?$AA@ 20128a34     bg_vehicleLoad.obj
 0002:0000da44       ??_C@_0BG@ICOPODEK@malfunctionArmorLevel?$AA@ 20128a44     bg_vehicleLoad.obj
 0002:0000da5c       ??_C@_09FGFEKOJH@toughness?$AA@ 20128a5c     bg_vehicleLoad.obj
 0002:0000da68       ??_C@_0BB@BMKKPECK@shieldRechargeMS?$AA@ 20128a68     bg_vehicleLoad.obj
 0002:0000da7c       ??_C@_07EEEOBDLK@shields?$AA@ 20128a7c     bg_vehicleLoad.obj
 0002:0000da84       ??_C@_05JJEJIJLL@armor?$AA@ 20128a84     bg_vehicleLoad.obj
 0002:0000da8c       ??_C@_04IJEANHEE@mass?$AA@ 20128a8c     bg_vehicleLoad.obj
 0002:0000da94       ??_C@_0BG@HOKPMJKB@speedDependantTurning?$AA@ 20128a94     bg_vehicleLoad.obj
 0002:0000daac       ??_C@_08IOPKEDDJ@maxSlope?$AA@ 20128aac     bg_vehicleLoad.obj
 0002:0000dab8       ??_C@_08LKDNMFOC@friction?$AA@ 20128ab8     bg_vehicleLoad.obj
 0002:0000dac4       ??_C@_08LOEOBHC@traction?$AA@ 20128ac4     bg_vehicleLoad.obj
 0002:0000dad0       ??_C@_0BA@DEALIFEA@turnWhenStopped?$AA@ 20128ad0     bg_vehicleLoad.obj
 0002:0000dae0       ??_C@_0N@BEECELKI@turningSpeed?$AA@ 20128ae0     bg_vehicleLoad.obj
 0002:0000daf0       ??_C@_0L@PFPFAHKM@mousePitch?$AA@ 20128af0     bg_vehicleLoad.obj
 0002:0000dafc       ??_C@_08EAELEJGF@mouseYaw?$AA@ 20128afc     bg_vehicleLoad.obj
 0002:0000db08       ??_C@_07HAHFHPDC@braking?$AA@ 20128b08     bg_vehicleLoad.obj
 0002:0000db10       ??_C@_09IPOAKDJE@rollLimit?$AA@ 20128b10     bg_vehicleLoad.obj
 0002:0000db1c       ??_C@_0L@CFHLLIPB@pitchLimit?$AA@ 20128b1c     bg_vehicleLoad.obj
 0002:0000db28       ??_C@_0N@ENHLHJGE@bankingSpeed?$AA@ 20128b28     bg_vehicleLoad.obj
 0002:0000db38       ??_C@_0L@FDBPLPOD@strafePerc?$AA@ 20128b38     bg_vehicleLoad.obj
 0002:0000db44       ??_C@_0P@HHEMMPFK@throttleSticks?$AA@ 20128b44     bg_vehicleLoad.obj
 0002:0000db54       ??_C@_09JCLBALJJ@decelIdle?$AA@ 20128b54     bg_vehicleLoad.obj
 0002:0000db60       ??_C@_0N@OKFAMOHD@acceleration?$AA@ 20128b60     bg_vehicleLoad.obj
 0002:0000db70       ??_C@_09HICLJFH@accelIdle?$AA@ 20128b70     bg_vehicleLoad.obj
 0002:0000db7c       ??_C@_09JLKIBNNM@speedIdle?$AA@ 20128b7c     bg_vehicleLoad.obj
 0002:0000db88       ??_C@_08EEILJPJB@speedMin?$AA@ 20128b88     bg_vehicleLoad.obj
 0002:0000db94       ??_C@_0L@MLDLGLOI@turboSpeed?$AA@ 20128b94     bg_vehicleLoad.obj
 0002:0000dba0       ??_C@_08FGAAHLPO@speedMax?$AA@ 20128ba0     bg_vehicleLoad.obj
 0002:0000dbac       ??_C@_0BA@BPLGJHPJ@centerOfGravity?$AA@ 20128bac     bg_vehicleLoad.obj
 0002:0000dbbc       ??_C@_06IJDLPEM@length?$AA@ 20128bbc     bg_vehicleLoad.obj
 0002:0000dbc4       ??_C@_07OIEJFMLD@lookYaw?$AA@ 20128bc4     bg_vehicleLoad.obj
 0002:0000dbcc       ??_C@_09EPEKCJNM@lookPitch?$AA@ 20128bcc     bg_vehicleLoad.obj
 0002:0000dbd8       ??_C@_08FEOKBMLD@numHands?$AA@ 20128bd8     bg_vehicleLoad.obj
 0002:0000dbe4       ??_C@_04GPMDFGEJ@type?$AA@ 20128be4     bg_vehicleLoad.obj
 0002:0000dbec       ??_C@_0BA@KPKBCLLA@explodeOnExpire?$AA@ 20128bec     bg_vehicleLoad.obj
 0002:0000dbfc       ??_C@_08MOKDPMFA@lifetime?$AA@ 20128bfc     bg_vehicleLoad.obj
 0002:0000dc08       ??_C@_06LNLHEAAG@height?$AA@ 20128c08     bg_vehicleLoad.obj
 0002:0000dc10       ??_C@_05IGKADHGO@width?$AA@ 20128c10     bg_vehicleLoad.obj
 0002:0000dc18       ??_C@_06KJINILIP@health?$AA@ 20128c18     bg_vehicleLoad.obj
 0002:0000dc20       ??_C@_0M@EIOFGFCL@ammoPerShot?$AA@ 20128c20     bg_vehicleLoad.obj
 0002:0000dc2c       ??_C@_06GJOIPFFF@damage?$AA@ 20128c2c     bg_vehicleLoad.obj
 0002:0000dc34       ??_C@_0L@FFLAGJDE@lockOnTime?$AA@ 20128c34     bg_vehicleLoad.obj
 0002:0000dc40       ??_C@_09DIOLNDJN@homingFOV?$AA@ 20128c40     bg_vehicleLoad.obj
 0002:0000dc4c       ??_C@_06GMBBIPLD@homing?$AA@ 20128c4c     bg_vehicleLoad.obj
 0002:0000dc54       ??_C@_09DPJGNNNM@loopSound?$AA@ 20128c54     bg_vehicleLoad.obj
 0002:0000dc60       ??_C@_0L@NDLIJKLF@g2MarkSize?$AA@ 20128c60     bg_vehicleLoad.obj
 0002:0000dc6c       ??_C@_0N@LOKNPDPD@g2MarkShader?$AA@ 20128c6c     bg_vehicleLoad.obj
 0002:0000dc7c       ??_C@_08LBKCHJGI@impactFX?$AA@ 20128c7c     bg_vehicleLoad.obj
 0002:0000dc88       ??_C@_06KCPOJGHJ@shotFX?$AA@ 20128c88     bg_vehicleLoad.obj
 0002:0000dc90       ??_C@_08OEIEAIMH@muzzleFX?$AA@ 20128c90     bg_vehicleLoad.obj
 0002:0000dc9c       ??_C@_0P@MLELMPKF@saberBlockable?$AA@ 20128c9c     bg_vehicleLoad.obj
 0002:0000dcac       ??_C@_09LOOPDJEK@ionWeapon?$AA@ 20128cac     bg_vehicleLoad.obj
 0002:0000dcb8       ??_C@_0L@IPNKNAOM@hasGravity?$AA@ 20128cb8     bg_vehicleLoad.obj
 0002:0000dcc4       ??_C@_0L@BOMCPGNF@projectile?$AA@ 20128cc4     bg_vehicleLoad.obj
 0002:0000dcd0       ??_C@_0FD@MDELBJLL@?$FO3BG_ParseVehWeaponParm?3?5VEC3?5ss@ 20128cd0     bg_vehicleLoad.obj
 0002:0000dd24       ??_C@_0DL@FMGLONEB@?$FO1ERROR?3?5unexpected?5EOF?5while?5pa@ 20128d24     bg_vehicleLoad.obj
 0002:0000dd60       ??_C@_0DC@DEIKKAAA@?$FO1ERROR?3?5Vehicle?5Weapon?5token?5?8?$CF@ 20128d60     bg_vehicleLoad.obj
 0002:0000dd94       ??_C@_0DL@NMOBCAIH@?$FO1ERROR?3?5Unknown?5Vehicle?5Weapon?5@ 20128d94     bg_vehicleLoad.obj
 0002:0000ddd0       ??_C@_0L@MLJDLEMM@vehWeapons?$AA@ 20128dd0     bg_vehicleLoad.obj
 0002:0000dddc       ??_C@_0DG@NFPGFPBD@?$FO1ERROR?3?5Trying?5to?5read?5Vehicle?5@ 20128ddc     bg_vehicleLoad.obj
 0002:0000de14       ??_C@_0CM@BOPHHAJF@?$FO1ERROR?3?5Could?5not?5find?5Vehicle?5@ 20128e14     bg_vehicleLoad.obj
 0002:0000de40       ??_C@_0EC@OJBJIBOI@?$FO1ERROR?3?5Too?5many?5Vehicle?5Weapon@ 20128e40     bg_vehicleLoad.obj
 0002:0000de88       ??_C@_0FB@JIOAPADB@?$FO3BG_ParseVehicleParm?3?5VEC3?5ssca@ 20128e88     bg_vehicleLoad.obj
 0002:0000dedc       ??_C@_0DA@KBNENJDB@Vehicle?5Weapon?5extensions?5?$CI?$CK?4vwp@ 20128edc     bg_vehicleLoad.obj
 0002:0000df0c       ??_C@_01CLKCMJKC@?5?$AA@   20128f0c     bg_vehicleLoad.obj
 0002:0000df10       ??_C@_0BN@HEKLMLDI@ext_data?1vehicles?1weapons?1?$CFs?$AA@ 20128f10     bg_vehicleLoad.obj
 0002:0000df30       ??_C@_0BK@NBKBPLIB@ext_data?1vehicles?1weapons?$AA@ 20128f30     bg_vehicleLoad.obj
 0002:0000df4c       ??_C@_04HHPJGBOE@?4vwp?$AA@ 20128f4c     bg_vehicleLoad.obj
 0002:0000df58       ??_C@_0FG@LMELNMJI@Vehicle?5extensions?5?$CI?$CK?4veh?$CJ?5someh@ 20128f58     bg_vehicleLoad.obj
 0002:0000dfb0       ??_C@_0CF@EBIOONKP@Unable?5to?5alloc?5memory?5for?5vehic@ 20128fb0     bg_vehicleLoad.obj
 0002:0000dfd8       ??_C@_0BF@IBNPKGMN@ext_data?1vehicles?1?$CFs?$AA@ 20128fd8     bg_vehicleLoad.obj
 0002:0000dff0       ??_C@_0BC@OPBPEGFG@ext_data?1vehicles?$AA@ 20128ff0     bg_vehicleLoad.obj
 0002:0000e004       ??_C@_04OKEAIOKD@?4veh?$AA@ 20129004     bg_vehicleLoad.obj
 0002:0000e00c       ??_C@_07ECBLGCPH@?$CKdriver?$AA@ 2012900c     bg_vehicleLoad.obj
 0002:0000e014       ??_C@_0CC@FMEFNJAG@sound?1vehicles?1common?1release?4wa@ 20129014     bg_vehicleLoad.obj
 0002:0000e038       ??_C@_0L@FJMBPMOH@ships?1fire?$AA@ 20129038     bg_vehicleLoad.obj
 0002:0000e044       ??_C@_0BH@EGNCFGHP@volumetric?1black_smoke?$AA@ 20129044     bg_vehicleLoad.obj
 0002:0000e05c       ??_C@_0BB@DNJHOLNH@ships?1swoop_dust?$AA@ 2012905c     bg_vehicleLoad.obj
 0002:0000e070       ??_C@_0CC@DCOMBCFJ@sound?1vehicles?1common?1fire_lp?4wa@ 20129070     bg_vehicleLoad.obj
 0002:0000e094       ??_C@_0BK@NCALAGBO@ships?1ship_explosion_mark?$AA@ 20129094     bg_vehicleLoad.obj
 0002:0000e0b0       ??_C@_0BM@KNIODCMI@models?1players?1?$CFs?1model?4glm?$AA@ 201290b0     bg_vehicleLoad.obj
 0002:0000e0cc       ??_C@_0DE@EKJMGPEC@?$FO1ERROR?3?5unexpected?5EOF?5while?5pa@ 201290cc     bg_vehicleLoad.obj
 0002:0000e100       ??_C@_0CL@OGPLJEAB@?$FO1ERROR?3?5Vehicle?5token?5?8?$CFs?8?5has?5@ 20129100     bg_vehicleLoad.obj
 0002:0000e12c       ??_C@_08HAIKMFBJ@vehicles?$AA@ 2012912c     bg_vehicleLoad.obj
 0002:0000e138       ??_C@_0CP@GGAMJIMN@?$FO1ERROR?3?5Trying?5to?5read?5Vehicle?5@ 20129138     bg_vehicleLoad.obj
 0002:0000e168       ??_C@_0CF@JDPFBFFF@?$FO1ERROR?3?5Could?5not?5find?5Vehicle?5@ 20129168     bg_vehicleLoad.obj
 0002:0000e190       ??_C@_0DL@LHHFHKNO@?$FO1ERROR?3?5Too?5many?5Vehicles?5?$CImax?5@ 20129190     bg_vehicleLoad.obj
 0002:0000e1cc       ??_C@_0DC@CNDALACO@BG_GetVehicleModelName?3?5?5couldn?8@ 201291cc     bg_vehicleLoad.obj
 0002:0000e200       ??_C@_0N@LHMLEIMD@AMMO_DETPACK?$AA@ 20129200     bg_weaponsdat.obj
 0002:0000e210       ??_C@_0O@PPOFKLMB@AMMO_TRIPMINE?$AA@ 20129210     bg_weaponsdat.obj
 0002:0000e220       ??_C@_0N@BOPOGHGH@AMMO_THERMAL?$AA@ 20129220     bg_weaponsdat.obj
 0002:0000e230       ??_C@_0O@NIJEBGEM@AMMO_EMPLACED?$AA@ 20129230     bg_weaponsdat.obj
 0002:0000e240       ??_C@_0N@LEJMABGK@AMMO_ROCKETS?$AA@ 20129240     bg_weaponsdat.obj
 0002:0000e250       ??_C@_0BB@KMFOMLNM@AMMO_METAL_BOLTS?$AA@ 20129250     bg_weaponsdat.obj
 0002:0000e264       ??_C@_0P@NIADJGMJ@AMMO_POWERCELL?$AA@ 20129264     bg_weaponsdat.obj
 0002:0000e274       ??_C@_0N@IMNJPGI@AMMO_BLASTER?$AA@ 20129274     bg_weaponsdat.obj
 0002:0000e284       ??_C@_0L@HPHDMAHK@AMMO_FORCE?$AA@ 20129284     bg_weaponsdat.obj
 0002:0000e290       ??_C@_09GMGNMCAA@AMMO_NONE?$AA@ 20129290     bg_weaponsdat.obj
 0002:0000e29c       ??_C@_0P@PJJFHPAA@altdropdetpack?$AA@ 2012929c     bg_weaponsdat.obj
 0002:0000e2ac       ??_C@_0M@HCDDCMJF@dropdetpack?$AA@ 201292ac     bg_weaponsdat.obj
 0002:0000e2b8       ??_C@_0BC@OGLPBDCI@altplacelasertrap?$AA@ 201292b8     bg_weaponsdat.obj
 0002:0000e2cc       ??_C@_0P@LDEEGBPC@placelasertrap?$AA@ 201292cc     bg_weaponsdat.obj
 0002:0000e2dc       ??_C@_0BI@MIGEAPKH@altfirethermaldetonator?$AA@ 201292dc     bg_weaponsdat.obj
 0002:0000e2f4       ??_C@_0BF@MDMDPOLM@firethermaldetonator?$AA@ 201292f4     bg_weaponsdat.obj
 0002:0000e30c       ??_C@_0O@OKPBLDCP@altfirerocket?$AA@ 2012930c     bg_weaponsdat.obj
 0002:0000e31c       ??_C@_0L@PCBKMMHF@firerocket?$AA@ 2012931c     bg_weaponsdat.obj
 0002:0000e328       ??_C@_0BB@JKDKKBDI@altfireflechette?$AA@ 20129328     bg_weaponsdat.obj
 0002:0000e33c       ??_C@_0O@GEGOFEIP@fireflechette?$AA@ 2012933c     bg_weaponsdat.obj
 0002:0000e34c       ??_C@_0N@OJPFKKLH@altfiredemp2?$AA@ 2012934c     bg_weaponsdat.obj
 0002:0000e35c       ??_C@_09LFMNIHGA@firedemp2?$AA@ 2012935c     bg_weaponsdat.obj
 0002:0000e368       ??_C@_0BA@BLBNHPDO@altfirerepeater?$AA@ 20129368     bg_weaponsdat.obj
 0002:0000e378       ??_C@_0N@JLPDLOKG@firerepeater?$AA@ 20129378     bg_weaponsdat.obj
 0002:0000e388       ??_C@_0BB@EEAKHFOK@altfirebowcaster?$AA@ 20129388     bg_weaponsdat.obj
 0002:0000e39c       ??_C@_0O@LKFOIAFN@firebowcaster?$AA@ 2012939c     bg_weaponsdat.obj
 0002:0000e3ac       ??_C@_0BB@KNJNFKCM@altfiredisruptor?$AA@ 201293ac     bg_weaponsdat.obj
 0002:0000e3c0       ??_C@_0O@FDMJKPJL@firedisruptor?$AA@ 201293c0     bg_weaponsdat.obj
 0002:0000e3d0       ??_C@_0P@BDHIHINN@altfireblaster?$AA@ 201293d0     bg_weaponsdat.obj
 0002:0000e3e0       ??_C@_0M@JINOCLEI@fireblaster?$AA@ 201293e0     bg_weaponsdat.obj
 0002:0000e3ec       ??_C@_0BF@MEJGLKHO@altfireblasterpistol?$AA@ 201293ec     bg_weaponsdat.obj
 0002:0000e404       ??_C@_0BC@HDOODKCN@fireblasterpistol?$AA@ 20129404     bg_weaponsdat.obj
 0002:0000e418       ??_C@_0BC@FJBIHIG@altfireconcussion?$AA@ 20129418     bg_weaponsdat.obj
 0002:0000e42c       ??_C@_0P@FAGKPFFM@fireconcussion?$AA@ 2012942c     bg_weaponsdat.obj
 0002:0000e43c       ??_C@_0BD@ONDPODHO@altfirebryarpistol?$AA@ 2012943c     bg_weaponsdat.obj
 0002:0000e450       ??_C@_0BA@ILGMCDMG@firebryarpistol?$AA@ 20129450     bg_weaponsdat.obj
 0002:0000e460       ??_C@_0N@JJFBDGBC@altfiremelee?$AA@ 20129460     bg_weaponsdat.obj
 0002:0000e470       ??_C@_09MFGJBLMF@firemelee?$AA@ 20129470     bg_weaponsdat.obj
 0002:0000e47c       ??_C@_0BB@PGFFELOK@altfirestunbaton?$AA@ 2012947c     bg_weaponsdat.obj
 0002:0000e490       ??_C@_0O@IABLOFN@firestunbaton?$AA@ 20129490     bg_weaponsdat.obj
 0002:0000e4a0       ??_C@_0EE@DLMGDLJO@BG_GetNextValueGroup?5couldn?8t?5fi@ 201294a0     bg_weaponsdat.obj
 0002:0000e4e4       ??_C@_0BD@BIJGOMCM@altmissileFuncName?$AA@ 201294e4     bg_weaponsdat.obj
 0002:0000e4f8       ??_C@_0BA@HOMFCMJE@missileFuncName?$AA@ 201294f8     bg_weaponsdat.obj
 0002:0000e508       ??_C@_08KBNOAPDK@altrange?$AA@ 20129508     bg_weaponsdat.obj
 0002:0000e514       ??_C@_0M@EDFLBNKI@altfiretime?$AA@ 20129514     bg_weaponsdat.obj
 0002:0000e520       ??_C@_0BB@COPDPFIM@altenergypershot?$AA@ 20129520     bg_weaponsdat.obj
 0002:0000e534       ??_C@_05CCGOGOBM@range?$AA@ 20129534     bg_weaponsdat.obj
 0002:0000e53c       ??_C@_08MIBMMOBD@firetime?$AA@ 2012953c     bg_weaponsdat.obj
 0002:0000e548       ??_C@_0O@NAKHAADL@energypershot?$AA@ 20129548     bg_weaponsdat.obj
 0002:0000e558       ??_C@_0N@HEBFOKJO@ammolowcount?$AA@ 20129558     bg_weaponsdat.obj
 0002:0000e568       ??_C@_08FMNNAFNN@ammotype?$AA@ 20129568     bg_weaponsdat.obj
 0002:0000e574       ??_C@_07FJBHJADN@AMMOMAX?$AA@ 20129574     bg_weaponsdat.obj
 0002:0000e57c       ??_C@_0L@IKPJMOKN@weapontype?$AA@ 2012957c     bg_weaponsdat.obj
 0002:0000e588       ??_C@_0CO@GNFFACDF@BG_LoadWeaponsData?5Error?3?5File?5N@ 20129588     bg_weaponsdat.obj
 0002:0000e5b8       ??_C@_0BF@EHPHLHDP@ext_data?1weapons?4dat?$AA@ 201295b8     bg_weaponsdat.obj
 0002:0000e5d0       ??_C@_0CB@LNGBPGCI@NULL?5PS?5in?5BG_FighterUpdate?5?$CI?$CFs?$CJ@ 201295d0     FighterNPC.obj
 0002:0000e5f8       __real@3fa99999a0000000    201295f8     FighterNPC.obj
 0002:0000e600       __real@c2a00000            20129600     FighterNPC.obj
 0002:0000e608       __real@c09f400000000000    20129608     FighterNPC.obj
 0002:0000e610       __real@43480000            20129610     FighterNPC.obj
 0002:0000e618       __real@40c3240000000000    20129618     FighterNPC.obj
 0002:0000e620       __real@3ff5555560000000    20129620     FighterNPC.obj
 0002:0000e628       __real@461c4000            20129628     FighterNPC.obj
 0002:0000e630       __real@4029000000000000    20129630     FighterNPC.obj
 0002:0000e638       __real@3f6e147b            20129638     FighterNPC.obj
 0002:0000e63c       __real@3f547ae1            2012963c     FighterNPC.obj
 0002:0000e640       __real@3f733333            20129640     FighterNPC.obj
 0002:0000e644       __real@437f0000            20129644     g_active.obj
 0002:0000e648       __real@406fe00000000000    20129648     g_active.obj
 0002:0000e650       ??_C@_0BH@CIEIFFOL@sound?1player?1gurp2?4wav?$AA@ 20129650     g_active.obj
 0002:0000e668       ??_C@_0BH@KONMCHEF@sound?1player?1gurp1?4wav?$AA@ 20129668     g_active.obj
 0002:0000e680       __real@404a000000000000    20129680     g_active.obj
 0002:0000e688       ??_C@_0CJ@OOBJBOCC@cp?5?$CCTen?5seconds?5until?5inactivity@ 20129688     g_active.obj
 0002:0000e6b4       ??_C@_0BK@CMFHJBAI@Dropped?5due?5to?5inactivity?$AA@ 201296b4     g_active.obj
 0002:0000e6d0       ??_C@_0BL@NBPAAOGK@sound?1player?1fallsplat?4wav?$AA@ 201296d0     g_active.obj
 0002:0000e6f0       __real@3fc47ae147ae147b    201296f0     g_active.obj
 0002:0000e6f8       __real@4a095440            201296f8     g_active.obj
 0002:0000e6fc       __real@4abebc20            201296fc     g_active.obj
 0002:0000e700       __real@3ff4ccccc0000000    20129700     g_active.obj
 0002:0000e708       ??_C@_0CG@IOOKDBNH@sound?1chars?1probe?1misc?1probedroi@ 20129708     g_active.obj
 0002:0000e730       ??_C@_0CA@LMAJNECC@sound?1chars?1mouse?1misc?1mouse_lp?$AA@ 20129730     g_active.obj
 0002:0000e750       ??_C@_0CF@GKMDDIEL@sound?1chars?1mark2?1misc?1mark2_mov@ 20129750     g_active.obj
 0002:0000e778       ??_C@_0CG@OEDGGKMM@sound?1chars?1r2d2?1misc?1r2_move_lp@ 20129778     g_active.obj
 0002:0000e7a0       ??_C@_0CF@IPPOHCHK@sound?1chars?1r2d2?1misc?1r2_move_lp@ 201297a0     g_active.obj
 0002:0000e7c8       ??_C@_09FNMDCDOI@spectator?$AA@ 201297c8     g_active.obj
 0002:0000e7d4       ??_C@_0BM@LMLMICOM@sound?1weapons?1melee?1punch?$CFd?$AA@ 201297d4     g_active.obj
 0002:0000e7f0       ??_C@_0M@HEAHHNIP@?$CKr_leg_foot?$AA@ 201297f0     g_active.obj
 0002:0000e7fc       ??_C@_0M@IIIHJCEC@?$CKl_leg_foot?$AA@ 201297fc     g_active.obj
 0002:0000e808       ??_C@_0L@FMHDEMAN@?$CKjump1?4wav?$AA@ 20129808     g_active.obj
 0002:0000e814       ??_C@_0N@CIPOKOBF@?$CKpain100?4wav?$AA@ 20129814     g_active.obj
 0002:0000e824       ??_C@_0M@FAKIOGIA@?$CKpain25?4wav?$AA@ 20129824     g_active.obj
 0002:0000e830       ??_C@_08IPBPDGPB@cp?5?$CC?$CFs?6?$CC?$AA@ 20129830     g_active.obj
 0002:0000e83c       ??_C@_09DFEBFALI@PLDUELTIE?$AA@ 2012983c     g_active.obj
 0002:0000e848       ??_C@_0EM@IFPLGEBL@mlog_privateduelstats?3?5?$CFs?5defeat@ 20129848     g_active.obj
 0002:0000e898       ??_C@_0EL@EGIALPBC@print?5?$CC?$CFs?5?$FO7defeated?5?$CFs?5?$FO7with?5?$FO@ 20129898     g_active.obj
 0002:0000e8e4       ??_C@_0M@MIDAEIOB@print?5?$CC?$CFs?6?$CC?$AA@ 201298e4     g_active.obj
 0002:0000e8f0       ??_C@_09HNLILNJH@MP_SVGAME?$AA@ 201298f0     g_active.obj
 0002:0000e8fc       ??_C@_0L@GCPAPBDO@PLDUELSTOP?$AA@ 201298fc     g_active.obj
 0002:0000e908       __real@3f80000000000000    20129908     g_active.obj
 0002:0000e910       ??_C@_0BH@JPPKHAKF@sound?1player?1roll1?4wav?$AA@ 20129910     g_active.obj
 0002:0000e928       ??_C@_0L@JLBEBBAD@pmove_msec?$AA@ 20129928     g_active.obj
 0002:0000e934       ??_C@_02NCPIBIBE@33?$AA@   20129934     g_active.obj
 0002:0000e938       ??_C@_01KJLJFBPL@8?$AA@    20129938     g_active.obj
 0002:0000e93c       ??_C@_09IIOBMIO@timescale?$AA@ 2012993c     g_active.obj
 0002:0000e948       ??_C@_03GNABGMEE@100?$AA@  20129948     g_active.obj
 0002:0000e94c       ??_C@_0BB@LCCFDFNF@trigger_autosave?$AA@ 2012994c     g_autosave.obj
 0002:0000e960       ??_C@_08MFGLINDE@?$FO5Done?4?6?$AA@ 20129960     g_autosave.obj
 0002:0000e96c       ??_C@_0P@NLDGCNAK@?$CFf?5?$CFf?5?$CFf?5?$CFi?5?$CFi?$AA@ 2012996c     g_autosave.obj
 0002:0000e97c       ??_C@_0BI@OLMBIBD@?$FO5Empty?5autosave?5file?$CB?6?$AA@ 2012997c     g_autosave.obj
 0002:0000e994       ??_C@_0BL@GKNPLLAC@?$FO5No?5autosave?5file?5found?4?6?$AA@ 20129994     g_autosave.obj
 0002:0000e9b0       ??_C@_0P@JHJNGDFP@maps?1?$CFs?4autosp?$AA@ 201299b0     g_autosave.obj
 0002:0000e9c0       ??_C@_0CA@BCDJDBKP@?$FO5Loading?5Autosave?5File?5Data?4?4?4?$AA@ 201299c0     g_autosave.obj
 0002:0000e9e0       ??_C@_0BA@BKOBDHLJ@?$CFf?5?$CFf?5?$CFf?5?$CFi?5?$CFi?6?$AA@ 201299e0     g_autosave.obj
 0002:0000e9f0       ??_C@_0CC@OCHFJKPH@?$FO5Couldn?8t?5create?5autosave?5file?4@ 201299f0     g_autosave.obj
 0002:0000ea14       ??_C@_0BP@GLMLIBGA@?$FO5Saving?5Autosave?5File?5Data?4?4?4?$AA@ 20129a14     g_autosave.obj
 0002:0000ea34       ??_C@_06DPNAHHLB@Botman?$AA@ 20129a34     g_bot.obj
 0002:0000ea3c       ??_C@_06CEPMGFLP@Rumble?$AA@ 20129a3c     g_bot.obj
 0002:0000ea44       ??_C@_07KGGOBFAO@Carnage?$AA@ 20129a44     g_bot.obj
 0002:0000ea4c       ??_C@_05POKBCEBI@Skull?$AA@ 20129a4c     g_bot.obj
 0002:0000ea54       ??_C@_04FHDEHLF@Hawk?$AA@  20129a54     g_bot.obj
 0002:0000ea5c       ??_C@_05FABPBJPP@Raven?$AA@ 20129a5c     g_bot.obj
 0002:0000ea64       ??_C@_06ELEELEKI@Falcon?$AA@ 20129a64     g_bot.obj
 0002:0000ea6c       ??_C@_05OELHFOBC@Lando?$AA@ 20129a6c     g_bot.obj
 0002:0000ea74       ??_C@_04IGIDBPIA@Solo?$AA@ 20129a74     g_bot.obj
 0002:0000ea7c       ??_C@_05NHOJJJKA@Vader?$AA@ 20129a7c     g_bot.obj
 0002:0000ea84       ??_C@_04IBFGIKGM@Maul?$AA@ 20129a84     g_bot.obj
 0002:0000ea8c       ??_C@_06ODFPKNJM@Demise?$AA@ 20129a8c     g_bot.obj
 0002:0000ea94       ??_C@_04GEDDIIMJ@Doom?$AA@ 20129a94     g_bot.obj
 0002:0000ea9c       ??_C@_06NFPMDKDO@Voodoo?$AA@ 20129a9c     g_bot.obj
 0002:0000eaa4       ??_C@_04LHPKHFIG@Vlad?$AA@ 20129aa4     g_bot.obj
 0002:0000eaac       ??_C@_04LPGOCJOA@Voss?$AA@ 20129aac     g_bot.obj
 0002:0000eab4       ??_C@_07KOLMEHAM@Jackson?$AA@ 20129ab4     g_bot.obj
 0002:0000eabc       ??_C@_04KDEOOPC@Core?$AA@  20129abc     g_bot.obj
 0002:0000eac4       ??_C@_04LFKEHHHJ@Fist?$AA@ 20129ac4     g_bot.obj
 0002:0000eacc       ??_C@_03OJCMCBEM@Hog?$AA@  20129acc     g_bot.obj
 0002:0000ead0       ??_C@_03KDPKJOPE@Dog?$AA@  20129ad0     g_bot.obj
 0002:0000ead4       ??_C@_05DPPDEOGP@Woman?$AA@ 20129ad4     g_bot.obj
 0002:0000eadc       ??_C@_03FKOEHDN@Man?$AA@   20129adc     g_bot.obj
 0002:0000eae0       ??_C@_0M@OPJLFMMA@Frontrunner?$AA@ 20129ae0     g_bot.obj
 0002:0000eaec       ??_C@_03LAAADJHA@Mac?$AA@  20129aec     g_bot.obj
 0002:0000eaf0       ??_C@_03HBBDILEF@Joe?$AA@  20129af0     g_bot.obj
 0002:0000eaf4       ??_C@_03MEKJFIOB@Fox?$AA@  20129af4     g_bot.obj
 0002:0000eaf8       ??_C@_04KCMBACAJ@Wolf?$AA@ 20129af8     g_bot.obj
 0002:0000eb00       ??_C@_05PGNIIEDH@Kitty?$AA@ 20129b00     g_bot.obj
 0002:0000eb08       ??_C@_0N@CNFLCLLH@Battlemaster?$AA@ 20129b08     g_bot.obj
 0002:0000eb18       ??_C@_0M@NLIGPNLD@Guardmaster?$AA@ 20129b18     g_bot.obj
 0002:0000eb24       ??_C@_06OHBFBCK@Trojan?$AA@ 20129b24     g_bot.obj
 0002:0000eb2c       ??_C@_05JHNGEIBD@Virus?$AA@ 20129b2c     g_bot.obj
 0002:0000eb34       ??_C@_02GALKDFIP@Jr?$AA@   20129b34     g_bot.obj
 0002:0000eb38       ??_C@_08CDJPGLCH@Leadrush?$AA@ 20129b38     g_bot.obj
 0002:0000eb44       ??_C@_0L@FJMFFAAC@Leadridden?$AA@ 20129b44     g_bot.obj
 0002:0000eb50       ??_C@_03JKPMJNOG@007?$AA@  20129b50     g_bot.obj
 0002:0000eb54       ??_C@_07NNDPHJJB@Slasher?$AA@ 20129b54     g_bot.obj
 0002:0000eb5c       ??_C@_05MOPCKLDD@Swift?$AA@ 20129b5c     g_bot.obj
 0002:0000eb64       ??_C@_09JLBLAIG@Swiftkick?$AA@ 20129b64     g_bot.obj
 0002:0000eb70       ??_C@_08GJEPMMPC@Backstab?$AA@ 20129b70     g_bot.obj
 0002:0000eb7c       ??_C@_07LLDDPFGO@Stabber?$AA@ 20129b7c     g_bot.obj
 0002:0000eb84       ??_C@_0L@HNBOKMMM@Gunslinger?$AA@ 20129b84     g_bot.obj
 0002:0000eb90       ??_C@_07CKIIGDHM@Gunfire?$AA@ 20129b90     g_bot.obj
 0002:0000eb98       ??_C@_08LGBKBIPA@Missfire?$AA@ 20129b98     g_bot.obj
 0002:0000eba4       ??_C@_04KJBLIMKH@Noob?$AA@ 20129ba4     g_bot.obj
 0002:0000ebac       ??_C@_04BOFMEMBJ@Hack?$AA@ 20129bac     g_bot.obj
 0002:0000ebb4       ??_C@_06LHHPKIEA@Hacker?$AA@ 20129bb4     g_bot.obj
 0002:0000ebbc       ??_C@_04LOFJNELM@Soul?$AA@ 20129bbc     g_bot.obj
 0002:0000ebc4       ??_C@_09CKOIPFKL@Skywalker?$AA@ 20129bc4     g_bot.obj
 0002:0000ebd0       ??_C@_06CDNIBPMO@Runner?$AA@ 20129bd0     g_bot.obj
 0002:0000ebd8       ??_C@_05PGGAFPFO@Death?$AA@ 20129bd8     g_bot.obj
 0002:0000ebe0       ??_C@_05IKMPHNH@Lamer?$AA@ 20129be0     g_bot.obj
 0002:0000ebe8       ??_C@_06NPNCGLLF@Hunter?$AA@ 20129be8     g_bot.obj
 0002:0000ebf0       ??_C@_03HEBKFNAF@101?$AA@  20129bf0     g_bot.obj
 0002:0000ebf4       ??_C@_02CONMDCHF@69?$AA@   20129bf4     g_bot.obj
 0002:0000ebf8       ??_C@_06NPAAKFED@Player?$AA@ 20129bf8     g_bot.obj
 0002:0000ec00       ??_C@_0M@ELJHHIGK@Spacefiller?$AA@ 20129c00     g_bot.obj
 0002:0000ec0c       ??_C@_07BKFKJCO@Lagalot?$AA@ 20129c0c     g_bot.obj
 0002:0000ec14       ??_C@_06CJCFJDME@Knight?$AA@ 20129c14     g_bot.obj
 0002:0000ec1c       ??_C@_08ECCKCEJI@Attacker?$AA@ 20129c1c     g_bot.obj
 0002:0000ec28       ??_C@_08HDIPELHE@Defender?$AA@ 20129c28     g_bot.obj
 0002:0000ec34       ??_C@_08JHGIFPME@Assassin?$AA@ 20129c34     g_bot.obj
 0002:0000ec40       ??_C@_09FGKMIPGL@Protector?$AA@ 20129c40     g_bot.obj
 0002:0000ec4c       ??_C@_06OOFIBKJO@Sniper?$AA@ 20129c4c     g_bot.obj
 0002:0000ec54       ??_C@_0L@JIDGEBOJ@Apprentice?$AA@ 20129c54     g_bot.obj
 0002:0000ec60       ??_C@_09LPICCHAM@Destroyer?$AA@ 20129c60     g_bot.obj
 0002:0000ec6c       ??_C@_07HLININDE@Avenger?$AA@ 20129c6c     g_bot.obj
 0002:0000ec74       ??_C@_03EHAPBBEA@One?$AA@  20129c74     g_bot.obj
 0002:0000ec78       ??_C@_05BPGNDIAE@Black?$AA@ 20129c78     g_bot.obj
 0002:0000ec80       ??_C@_07PGPHJOIL@Smiling?$AA@ 20129c80     g_bot.obj
 0002:0000ec88       ??_C@_04POJMCEFD@Sith?$AA@ 20129c88     g_bot.obj
 0002:0000ec90       ??_C@_04NMIHPMCJ@Jedi?$AA@ 20129c90     g_bot.obj
 0002:0000ec98       ??_C@_05GAOCCKGO@Crazy?$AA@ 20129c98     g_bot.obj
 0002:0000eca0       ??_C@_03PPEBKPLH@Mad?$AA@  20129ca0     g_bot.obj
 0002:0000eca4       ??_C@_05KOJKBBHA@Small?$AA@ 20129ca4     g_bot.obj
 0002:0000ecac       ??_C@_03ICBMLNJK@Big?$AA@  20129cac     g_bot.obj
 0002:0000ecb0       ??_C@_04INCLAMME@Holy?$AA@ 20129cb0     g_bot.obj
 0002:0000ecb8       ??_C@_02IGABPKMB@My?$AA@   20129cb8     g_bot.obj
 0002:0000ecbc       ??_C@_03FCPPNJEH@Our?$AA@  20129cbc     g_bot.obj
 0002:0000ecc0       ??_C@_04OILGNHAN@Hero?$AA@ 20129cc0     g_bot.obj
 0002:0000ecc8       ??_C@_05BBLLBHEM@Medic?$AA@ 20129cc8     g_bot.obj
 0002:0000ecd0       ??_C@_07GCAPPOJF@Sniping?$AA@ 20129cd0     g_bot.obj
 0002:0000ecd8       ??_C@_05JHGGGLAP@Needy?$AA@ 20129cd8     g_bot.obj
 0002:0000ece0       ??_C@_07KOCOBOLI@Slowest?$AA@ 20129ce0     g_bot.obj
 0002:0000ece8       ??_C@_07MIBGPIAH@Fastest?$AA@ 20129ce8     g_bot.obj
 0002:0000ecf0       ??_C@_07GGBBCKMG@Lasting?$AA@ 20129cf0     g_bot.obj
 0002:0000ecf8       ??_C@_07NIHMGLKE@Dancing?$AA@ 20129cf8     g_bot.obj
 0002:0000ed00       ??_C@_06JABFDNKL@Dickie?$AA@ 20129d00     g_bot.obj
 0002:0000ed08       ??_C@_04GEJMBPHJ@Jack?$AA@ 20129d08     g_bot.obj
 0002:0000ed10       ??_C@_05MFCKIKKI@Macro?$AA@ 20129d10     g_bot.obj
 0002:0000ed18       ??_C@_05PFFKMBGJ@Micro?$AA@ 20129d18     g_bot.obj
 0002:0000ed20       ??_C@_06CNOMCGLH@Lesser?$AA@ 20129d20     g_bot.obj
 0002:0000ed28       ??_C@_05NDCNHMNP@Under?$AA@ 20129d28     g_bot.obj
 0002:0000ed30       ??_C@_06OCBCBHML@Hollow?$AA@ 20129d30     g_bot.obj
 0002:0000ed38       ??_C@_07DEECLLBF@Shallow?$AA@ 20129d38     g_bot.obj
 0002:0000ed40       ??_C@_05BPDAAPMI@Grand?$AA@ 20129d40     g_bot.obj
 0002:0000ed48       ??_C@_06LBAHHGIM@Slower?$AA@ 20129d48     g_bot.obj
 0002:0000ed50       ??_C@_06IPNKADFG@Faster?$AA@ 20129d50     g_bot.obj
 0002:0000ed58       ??_C@_05MBEDHMDH@Funny?$AA@ 20129d58     g_bot.obj
 0002:0000ed60       ??_C@_09EJFGJKCI@Commander?$AA@ 20129d60     g_bot.obj
 0002:0000ed6c       ??_C@_0L@PIPBLLIH@Retreating?$AA@ 20129d6c     g_bot.obj
 0002:0000ed78       ??_C@_07PPLDFOLH@Jumping?$AA@ 20129d78     g_bot.obj
 0002:0000ed80       ??_C@_06GJILLPFB@Rising?$AA@ 20129d80     g_bot.obj
 0002:0000ed88       ??_C@_06HIOFDHED@Hiding?$AA@ 20129d88     g_bot.obj
 0002:0000ed90       ??_C@_07JKJCPGE@Running?$AA@ 20129d90     g_bot.obj
 0002:0000ed98       ??_C@_06PMIHANFD@Stupid?$AA@ 20129d98     g_bot.obj
 0002:0000eda0       ??_C@_05JPFKAFFB@Moron?$AA@ 20129da0     g_bot.obj
 0002:0000eda8       ??_C@_05EECOFMBD@Idiot?$AA@ 20129da8     g_bot.obj
 0002:0000edb0       ??_C@_08FKKLPIIB@Darkened?$AA@ 20129db0     g_bot.obj
 0002:0000edbc       ??_C@_06BOLACBCI@Fallen?$AA@ 20129dbc     g_bot.obj
 0002:0000edc4       ??_C@_07FFMBFKAD@Falling?$AA@ 20129dc4     g_bot.obj
 0002:0000edcc       ??_C@_07LLMDOAHM@Ancient?$AA@ 20129dcc     g_bot.obj
 0002:0000edd4       ??_C@_03ILBCOJBH@New?$AA@  20129dd4     g_bot.obj
 0002:0000edd8       ??_C@_03FNJAPEGP@Old?$AA@  20129dd8     g_bot.obj
 0002:0000eddc       ??_C@_05EKMKKMBL@Young?$AA@ 20129ddc     g_bot.obj
 0002:0000ede4       ??_C@_03OEKCDGAI@Mrs?$AA@  20129de4     g_bot.obj
 0002:0000ede8       ??_C@_04INDFNAKP@Miss?$AA@ 20129de8     g_bot.obj
 0002:0000edf0       ??_C@_02GFPFCDAK@Mr?$AA@   20129df0     g_bot.obj
 0002:0000edf4       ??_C@_04IANPACPF@Lazy?$AA@ 20129df4     g_bot.obj
 0002:0000edfc       ??_C@_05GGOIJPPE@Green?$AA@ 20129dfc     g_bot.obj
 0002:0000ee04       ??_C@_07COILLMAG@Defiant?$AA@ 20129e04     g_bot.obj
 0002:0000ee0c       ??_C@_06LFEFCPBA@Johnny?$AA@ 20129e0c     g_bot.obj
 0002:0000ee14       ??_C@_04NANCPOOO@Dead?$AA@ 20129e14     g_bot.obj
 0002:0000ee1c       ??_C@_06JGIKNHLC@Living?$AA@ 20129e1c     g_bot.obj
 0002:0000ee24       ??_C@_06GHODPPPK@Hungry?$AA@ 20129e24     g_bot.obj
 0002:0000ee2c       ??_C@_07OLFAKPLM@Charlie?$AA@ 20129e2c     g_bot.obj
 0002:0000ee34       ??_C@_03KHCCLPOB@Bad?$AA@  20129e34     g_bot.obj
 0002:0000ee38       ??_C@_05JEHJEFGH@Lucky?$AA@ 20129e38     g_bot.obj
 0002:0000ee40       ??_C@_08PFDDHKNO@Confused?$AA@ 20129e40     g_bot.obj
 0002:0000ee4c       ??_C@_05KDECPPIC@Angry?$AA@ 20129e4c     g_bot.obj
 0002:0000ee54       ??_C@_03LPLPIENP@JKA?$AA@  20129e54     g_bot.obj
 0002:0000ee58       ??_C@_05IHGBBKBG@Laggy?$AA@ 20129e58     g_bot.obj
 0002:0000ee60       ??_C@_04CAKIPDMC@Your?$AA@ 20129e60     g_bot.obj
 0002:0000ee68       ??_C@_02LMLFJBH@Da?$AA@    20129e68     g_bot.obj
 0002:0000ee6c       ??_C@_03MEJKLNGM@The?$AA@  20129e6c     g_bot.obj
 0002:0000ee70       ??_C@_06GHFEKJM@Silent?$AA@ 20129e70     g_bot.obj
 0002:0000ee78       ??_C@_06FHBILLDG@Hidden?$AA@ 20129e78     g_bot.obj
 0002:0000ee80       ??_C@_04NKHPDAAE@Lost?$AA@ 20129e80     g_bot.obj
 0002:0000ee88       ??_C@_06LFMKDHGH@Broken?$AA@ 20129e88     g_bot.obj
 0002:0000ee90       ??_C@_06CKGHDDKE@Sneaky?$AA@ 20129e90     g_bot.obj
 0002:0000ee98       ??_C@_06KHOKADBJ@Shadow?$AA@ 20129e98     g_bot.obj
 0002:0000eea0       ??_C@_03PADCEAKC@Red?$AA@  20129ea0     g_bot.obj
 0002:0000eea4       ??_C@_05GPLFPNGC@Owned?$AA@ 20129ea4     g_bot.obj
 0002:0000eeac       ??_C@_06CJGHHPFC@Looser?$AA@ 20129eac     g_bot.obj
 0002:0000eeb4       ??_C@_06INNNFHKM@Master?$AA@ 20129eb4     g_bot.obj
 0002:0000eebc       ??_C@_09FLNKKNLH@Professor?$AA@ 20129ebc     g_bot.obj
 0002:0000eec8       ??_C@_05LGOGOPHI@Nooby?$AA@ 20129ec8     g_bot.obj
 0002:0000eed0       ??_C@_04BEGLJGGO@Slow?$AA@ 20129ed0     g_bot.obj
 0002:0000eed8       ??_C@_04HABAFPJG@Fast?$AA@ 20129ed8     g_bot.obj
 0002:0000eee0       ??_C@_05JODGIKH@Light?$AA@ 20129ee0     g_bot.obj
 0002:0000eee8       ??_C@_04PFGBHDOO@John?$AA@ 20129ee8     g_bot.obj
 0002:0000eef0       ??_C@_05NPMMKAPN@First?$AA@ 20129ef0     g_bot.obj
 0002:0000eef8       ??_C@_04DKKAEHDH@Last?$AA@ 20129ef8     g_bot.obj
 0002:0000ef00       ??_C@_06HFEDJPNI@Killer?$AA@ 20129f00     g_bot.obj
 0002:0000ef08       ??_C@_09EADALFHG@Braindead?$AA@ 20129f08     g_bot.obj
 0002:0000ef14       ??_C@_07CBFHPDCL@Redneck?$AA@ 20129f14     g_bot.obj
 0002:0000ef1c       ??_C@_04MGEIGIFP@Dark?$AA@ 20129f1c     g_bot.obj
 0002:0000ef24       ??_C@_04GJNEPEJP@Evil?$AA@ 20129f24     g_bot.obj
 0002:0000ef2c       ??_C@_0BE@IKMJLADL@Max?5infos?5exceeded?6?$AA@ 20129f2c     g_bot.obj
 0002:0000ef40       ??_C@_0BI@BMEIBPEH@Missing?5?$HL?5in?5info?5file?6?$AA@ 20129f40     g_bot.obj
 0002:0000ef58       ??_C@_02DPKJAMEF@?$CFd?$AA@ 20129f58     g_bot.obj
 0002:0000ef5c       ??_C@_0BN@HAJDHEGK@Unexpected?5end?5of?5info?5file?6?$AA@ 20129f5c     g_bot.obj
 0002:0000ef7c       ??_C@_06CBHGEMFM@?$DMNULL?$DO?$AA@ 20129f7c     g_bot.obj
 0002:0000ef84       ??_C@_0CO@OKDDPLPD@?$FO1file?5too?5large?3?5?$CFs?5is?5?$CFi?0?5max?5@ 20129f84     g_bot.obj
 0002:0000efb4       ??_C@_0BG@BJEIGKLP@?$FO1file?5not?5found?3?5?$CFs?6?$AA@ 20129fb4     g_bot.obj
 0002:0000efcc       ??_C@_03FKCNHKDN@cty?$AA@  20129fcc     g_bot.obj
 0002:0000efd0       ??_C@_03JHHHHEKD@ctf?$AA@  20129fd0     g_bot.obj
 0002:0000efd4       ??_C@_05OEDHBHJ@siege?$AA@ 20129fd4     g_bot.obj
 0002:0000efdc       ??_C@_09OHBAKHCG@powerduel?$AA@ 20129fdc     g_bot.obj
 0002:0000efe8       ??_C@_04IONKKEKB@duel?$AA@ 20129fe8     g_bot.obj
 0002:0000eff0       ??_C@_0L@PPBFGKBC@jedimaster?$AA@ 20129ff0     g_bot.obj
 0002:0000effc       ??_C@_08OFGDEOFK@holocron?$AA@ 20129ffc     g_bot.obj
 0002:0000f008       ??_C@_04KADBPNCB@team?$AA@ 2012a008     g_bot.obj
 0002:0000f010       ??_C@_04OILOBHMB@coop?$AA@ 2012a010     g_bot.obj
 0002:0000f018       ??_C@_03PAEKGFEI@ffa?$AA@  2012a018     g_bot.obj
 0002:0000f01c       ??_C@_03HBNNNHNM@map?$AA@  2012a01c     g_bot.obj
 0002:0000f020       ??_C@_06CICODAJE@map?5?$CFs?$AA@ 2012a020     g_bot.obj
 0002:0000f028       ??_C@_07MCHHMPMB@nextmap?$AA@ 2012a028     g_bot.obj
 0002:0000f030       ??_C@_0O@JEFGAJAK@map_restart?50?$AA@ 2012a030     g_bot.obj
 0002:0000f040       ??_C@_03IHCLBPIC@num?$AA@  2012a040     g_bot.obj
 0002:0000f044       ??_C@_08IDJEBFOJ@scripts?1?$AA@ 2012a044     g_bot.obj
 0002:0000f050       ??_C@_07OMEBBDEO@scripts?$AA@ 2012a050     g_bot.obj
 0002:0000f058       ??_C@_06IPPMLGON@?4arena?$AA@ 2012a058     g_bot.obj
 0002:0000f060       ??_C@_0L@MIANDOJK@?$FO?$CFi?$CFs?$FO?$CFi?$CFs?$AA@ 2012a060     g_bot.obj
 0002:0000f06c       ??_C@_0CA@IONCDKGI@addbot?5?$CC?$CFs?$CC?5?$CFf?5?$CC?$CFs?$CC?5?$CFi?5?$CC?$CFs?$CC?5?$CFi?6?$AA@ 2012a06c     g_bot.obj
 0002:0000f08c       ??_C@_09OGEBNCBM@g_spSkill?$AA@ 2012a08c     g_bot.obj
 0002:0000f098       __real@40dfffc000000000    2012a098     g_bot.obj
 0002:0000f0a0       ??_C@_0L@BGEEDJPK@kick?5?$CC?$CFs?$CC?6?$AA@ 2012a0a0     g_bot.obj
 0002:0000f0ac       ??_C@_0BJ@JBHOCGJI@?$FO3Unable?5to?5delay?5spawn?6?$AA@ 2012a0ac     g_bot.obj
 0002:0000f0c8       ??_C@_0BI@KOJDMFEB@BotAISetupClient?5failed?$AA@ 2012a0c8     g_bot.obj
 0002:0000f0e0       ??_C@_07LDEAKKCA@bottype?$AA@ 2012a0e0     g_bot.obj
 0002:0000f0e8       ??_C@_05ODMCMJAJ@skill?$AA@ 2012a0e8     g_bot.obj
 0002:0000f0f0       ??_C@_0M@BMHCFBAN@personality?$AA@ 2012a0f0     g_bot.obj
 0002:0000f0fc       ??_C@_0BJ@GPLOPMDF@?$CF?916s?5?$CF?916s?5?$CF?920s?5?$CF?920s?6?$AA@ 2012a0fc     g_bot.obj
 0002:0000f118       ??_C@_0BC@DLIPHLBC@botfiles?1kyle?4jkb?$AA@ 2012a118     g_bot.obj
 0002:0000f12c       ??_C@_0N@DBLFEAPN@kyle?1default?$AA@ 2012a12c     g_bot.obj
 0002:0000f13c       ??_C@_07PNOKIGNH@funname?$AA@ 2012a13c     g_bot.obj
 0002:0000f144       ??_C@_07JBIOPIKL@Padawan?$AA@ 2012a144     g_bot.obj
 0002:0000f150       ??_C@_0EG@EAKBMKJK@?$FO1name?5?5?5?5?5?5?5?5?5?5?5?5?5model?5?5?5?5?5?5?5?5@ 2012a150     g_bot.obj
 0002:0000f198       ??_C@_04NONLJGOA@?4bot?$AA@ 2012a198     g_bot.obj
 0002:0000f1a0       ??_C@_0BC@BOHIEOJI@botfiles?1bots?4txt?$AA@ 2012a1a0     g_bot.obj
 0002:0000f1b4       ??_C@_0L@IDJNDIMJ@g_botsFile?$AA@ 2012a1b4     g_bot.obj
 0002:0000f1c0       ??_C@_0L@BKCPIMBP@bot_enable?$AA@ 2012a1c0     g_bot.obj
 0002:0000f1cc       ??_C@_0P@IGNPDGBD@bot_minplayers?$AA@ 2012a1cc     g_bot.obj
 0002:0000f1dc       ??_C@_04CAKOHOCJ@Blue?$AA@ 2012a1dc     g_bot.obj
 0002:0000f1e4       ??_C@_01LKDEMHDF@s?$AA@    2012a1e4     g_bot.obj
 0002:0000f1e8       ??_C@_05CEDINIPN@?$CF5?42f?$AA@ 2012a1e8     g_bot.obj
 0002:0000f1f0       ??_C@_0BC@HGPAPBJP@UNABLE_TO_ADD_BOT?$AA@ 2012a1f0     g_bot.obj
 0002:0000f204       ??_C@_0BB@LPCOMELA@ojp_clientplugin?$AA@ 2012a204     g_bot.obj
 0002:0000f218       ??_C@_0BB@OOGPJLCB@OJP?5Basic?5v0?41?42?$AA@ 2012a218     g_bot.obj
 0002:0000f22c       ??_C@_0M@NCLDLCDG@rgb_script2?$AA@ 2012a22c     g_bot.obj
 0002:0000f238       ??_C@_0M@PJJOOBPF@rgb_script1?$AA@ 2012a238     g_bot.obj
 0002:0000f244       ??_C@_09KHMFDLAP@0?0255?0255?$AA@ 2012a244     g_bot.obj
 0002:0000f250       ??_C@_0L@LELJCPHK@rgb_saber2?$AA@ 2012a250     g_bot.obj
 0002:0000f25c       ??_C@_07OJNCNLKO@255?00?00?$AA@ 2012a25c     g_bot.obj
 0002:0000f264       ??_C@_0L@JPJEHMLJ@rgb_saber1?$AA@ 2012a264     g_bot.obj
 0002:0000f270       ??_C@_0BF@HBBFKEDO@botfiles?1default?4jkb?$AA@ 2012a270     g_bot.obj
 0002:0000f288       ??_C@_08CAIDFEMJ@single_1?$AA@ 2012a288     g_bot.obj
 0002:0000f294       ??_C@_06KEONFOCA@color2?$AA@ 2012a294     g_bot.obj
 0002:0000f29c       ??_C@_01FAMBOPH@4?$AA@     2012a29c     g_bot.obj
 0002:0000f2a0       ??_C@_06IPMAANOD@color1?$AA@ 2012a2a0     g_bot.obj
 0002:0000f2a8       ??_C@_03OMLNFKE@sex?$AA@   2012a2a8     g_bot.obj
 0002:0000f2ac       ??_C@_04ICKCIGNO@male?$AA@ 2012a2ac     g_bot.obj
 0002:0000f2b4       ??_C@_06LFOIHHME@gender?$AA@ 2012a2b4     g_bot.obj
 0002:0000f2bc       ??_C@_02PEECMOAB@90?$AA@   2012a2bc     g_bot.obj
 0002:0000f2c0       ??_C@_02PONMODAL@70?$AA@   2012a2c0     g_bot.obj
 0002:0000f2c4       ??_C@_08HBHLIHAM@handicap?$AA@ 2012a2c4     g_bot.obj
 0002:0000f2d0       ??_C@_02PNFIDHGF@50?$AA@   2012a2d0     g_bot.obj
 0002:0000f2d4       ??_C@_05NBLIHODN@?$CF1?42f?$AA@ 2012a2d4     g_bot.obj
 0002:0000f2dc       ??_C@_05DGPADKBM@snaps?$AA@ 2012a2dc     g_bot.obj
 0002:0000f2e4       ??_C@_04HCCHHEEF@rate?$AA@ 2012a2e4     g_bot.obj
 0002:0000f2ec       ??_C@_05GFEIOEMO@25000?$AA@ 2012a2ec     g_bot.obj
 0002:0000f2f4       ??_C@_0BP@NGBNIFAK@?$FO1Error?3?5Bot?5?8?$CFs?8?5not?5defined?6?$AA@ 2012a2f4     g_bot.obj
 0002:0000f314       ??_C@_0N@GEFCGCPK@loaddefered?6?$AA@ 2012a314     g_bot.obj
 0002:0000f324       ??_C@_0L@FBHMLJNH@cl_running?$AA@ 2012a324     g_bot.obj
 0002:0000f330       ??_C@_0EN@LGMEILKG@Usage?3?5Addbot?5?$DMbotname?$DO?5?$FLskill?51@ 2012a330     g_bot.obj
 0002:0000f380       ??_C@_0CK@JCJGCOH@sound?1weapons?1explosions?1cargoex@ 2012a380     g_breakable.obj
 0002:0000f3ac       ??_C@_0CJ@FBOFGAEJ@sound?1weapons?1tie_fighter?1TIEexp@ 2012a3ac     g_breakable.obj
 0002:0000f3d8       ??_C@_0BO@KDNINMPK@explosions?1fighter_explosion2?$AA@ 2012a3d8     g_breakable.obj
 0002:0000f3f8       ??_C@_0CI@EPBKCMAB@models?1map_objects?1ships?1tie_bom@ 2012a3f8     g_breakable.obj
 0002:0000f420       ??_C@_0CJ@IIBAKKLO@models?1map_objects?1ships?1tie_fig@ 2012a420     g_breakable.obj
 0002:0000f44c       __real@c0800000            2012a44c     g_breakable.obj
 0002:0000f450       __real@42400000            2012a450     g_breakable.obj
 0002:0000f458       __real@3ffc000000000000    2012a458     g_breakable.obj
 0002:0000f460       ??_C@_0CI@FLDLAK@no?5model?5set?5on?5?$CFs?5at?5?$CI?$CF?41f?5?$CF?41f@ 2012a460     g_breakable.obj
 0002:0000f488       __real@c7800000            2012a488     g_breakable.obj
 0002:0000f48c       ??_C@_0CF@OILIIBFE@sound?1movers?1objects?1objectBreak@ 2012a48c     g_breakable.obj
 0002:0000f4b4       ??_C@_0CI@KIAEOLCM@sound?1movers?1objects?1objectHitHe@ 2012a4b4     g_breakable.obj
 0002:0000f4dc       ??_C@_0CD@PBPAMPHJ@sound?1movers?1objects?1objectHit?4w@ 2012a4dc     g_breakable.obj
 0002:0000f500       ??_C@_0BJ@PABNCNOJ@melee?1kick_impact_silent?$AA@ 2012a500     g_breakable.obj
 0002:0000f51c       ??_C@_0BC@LDBCNLGD@melee?1kick_impact?$AA@ 2012a51c     g_breakable.obj
 0002:0000f530       ??_C@_0N@PICNJJBP@redCrosshair?$AA@ 2012a530     g_breakable.obj
 0002:0000f540       ??_C@_0N@CLNMLGHB@forcevisible?$AA@ 2012a540     g_breakable.obj
 0002:0000f550       ??_C@_0M@GFKBJGNE@throwtarget?$AA@ 2012a550     g_breakable.obj
 0002:0000f55c       ??_C@_0BL@LLMCEOFK@ships?1tiebomber_explosion2?$AA@ 2012a55c     g_breakable.obj
 0002:0000f578       ??_C@_0BN@OEANKAC@ships?1tiebomber_bomb_falling?$AA@ 2012a578     g_breakable.obj
 0002:0000f598       ??_C@_0CD@IGNNGCKE@sound?1vehicles?1tie?9bomber?1loop?4w@ 2012a598     g_breakable.obj
 0002:0000f5bc       ??_C@_0CH@HNOGPGOF@sound?1weapons?1tie_fighter?1tie_fi@ 2012a5bc     g_breakable.obj
 0002:0000f5e4       ??_C@_0CH@HLMCKPMH@sound?1weapons?1tie_fighter?1tiepas@ 2012a5e4     g_breakable.obj
 0002:0000f60c       ??_C@_0BP@BHOBGKOF@sound?1vehicles?1x?9wing?1loop?4wav?$AA@ 2012a60c     g_breakable.obj
 0002:0000f62c       ??_C@_0CL@DHKODDHE@models?1map_objects?1ships?1x_wing_@ 2012a62c     g_breakable.obj
 0002:0000f658       ??_C@_0BN@IGLGFIPC@team?5name?5?$CFs?5not?5recognized?6?$AA@ 2012a658     g_breakable.obj
 0002:0000f678       ??_C@_04IFBFDIKF@maxs?$AA@ 2012a678     g_breakable.obj
 0002:0000f680       ??_C@_08EBGDHEGE@16?516?516?$AA@ 2012a680     g_breakable.obj
 0002:0000f68c       ??_C@_04FIAKMPII@mins?$AA@ 2012a68c     g_breakable.obj
 0002:0000f694       ??_C@_0M@INCEHMGC@?916?5?916?5?916?$AA@ 2012a694     g_breakable.obj
 0002:0000f6a0       ??_C@_07GLKFFCAP@_u1?4md3?$AA@ 2012a6a0     g_breakable.obj
 0002:0000f6a8       ??_C@_07KKAMMFHF@_d1?4md3?$AA@ 2012a6a8     g_breakable.obj
 0002:0000f6b0       ??_C@_0L@HDLPNNAF@modelscale?$AA@ 2012a6b0     g_breakable.obj
 0002:0000f6bc       ??_C@_0P@OMAFFCFF@modelscale_vec?$AA@ 2012a6bc     g_breakable.obj
 0002:0000f6cc       ??_C@_05JMKGPOEH@0?50?50?$AA@ 2012a6cc     g_breakable.obj
 0002:0000f6d4       ??_C@_06KGHINEPG@radius?$AA@ 2012a6d4     g_breakable.obj
 0002:0000f6dc       ??_C@_08KNOEMJMM@material?$AA@ 2012a6dc     g_breakable.obj
 0002:0000f6e8       ??_C@_08MDEJHCAF@nohumans?$AA@ 2012a6e8     g_client.obj
 0002:0000f6f4       ??_C@_06JHOFIDHH@nobots?$AA@ 2012a6f4     g_client.obj
 0002:0000f6fc       ??_C@_08IDADLKFJ@startoff?$AA@ 2012a6fc     g_client.obj
 0002:0000f708       ??_C@_02PGHGPEOM@?91?$AA@  2012a708     g_client.obj
 0002:0000f70c       ??_C@_0M@HHKKLDCM@cp?5?$CC?$CFs?5?$CFs?6?$CC?$AA@ 2012a70c     g_client.obj
 0002:0000f718       ??_C@_08DHHBNGKN@BECOMEJM?$AA@ 2012a718     g_client.obj
 0002:0000f728       __real@4022000000000000    2012a728     g_client.obj
 0002:0000f730       ??_C@_0BM@DGHFFJBI@Couldn?8t?5find?5a?5spawn?5point?$AA@ 2012a730     g_client.obj
 0002:0000f74c       ??_C@_0BH@BHGKJEKB@info_player_start_blue?$AA@ 2012a74c     g_client.obj
 0002:0000f764       ??_C@_0BG@OMODDIEJ@info_player_start_red?$AA@ 2012a764     g_client.obj
 0002:0000f77c       ??_C@_0BB@BMHFAIEA@info_player_duel?$AA@ 2012a77c     g_client.obj
 0002:0000f790       ??_C@_0BC@JLLAGAOJ@info_player_duel2?$AA@ 2012a790     g_client.obj
 0002:0000f7a4       ??_C@_0BC@LAJNDDCK@info_player_duel1?$AA@ 2012a7a4     g_client.obj
 0002:0000f7b8       ??_C@_0BB@LAEJDCGK@ircg?5?$CFi?5?$CFi?5?$CFi?5?$CFi?$AA@ 2012a7b8     g_client.obj
 0002:0000f7cc       ??_C@_04IEJGKNJ@body?$AA@  2012a7cc     g_client.obj
 0002:0000f7d4       ??_C@_06JGJNMMPB@rcg?5?$CFi?$AA@ 2012a7d4     g_client.obj
 0002:0000f7dc       ??_C@_06PDDIJHJI@?$CKflash?$AA@ 2012a7dc     g_client.obj
 0002:0000f7e4       ??_C@_08PJKKDMJN@?$CKblade?$CFi?$AA@ 2012a7e4     g_client.obj
 0002:0000f7f0       ??_C@_08PPMFHAID@Tongue08?$AA@ 2012a7f0     g_client.obj
 0002:0000f7fc       ??_C@_08COAHMLMK@Tongue01?$AA@ 2012a7fc     g_client.obj
 0002:0000f808       ??_C@_07JCDPMDF@?$CKblade1?$AA@ 2012a808     g_client.obj
 0002:0000f810       ??_C@_0BC@BGMHBOJP@?$CKl_hand_cap_l_arm?$AA@ 2012a810     g_client.obj
 0002:0000f824       ??_C@_0BC@HJGOBMJP@?$CKr_hand_cap_r_arm?$AA@ 2012a824     g_client.obj
 0002:0000f838       ??_C@_07PNIOEPOE@?$CKchestg?$AA@ 2012a838     g_client.obj
 0002:0000f840       ??_C@_07CKKFCGNI@?$CKl_hand?$AA@ 2012a840     g_client.obj
 0002:0000f848       ??_C@_08FNEKKBCI@?$CKflash?$CFi?$AA@ 2012a848     g_client.obj
 0002:0000f854       ??_C@_09DFLEJFMN@?$CKmuzzle?$CFi?$AA@ 2012a854     g_client.obj
 0002:0000f860       ??_C@_0L@CJEIKOKF@?$CKexhaust?$CFi?$AA@ 2012a860     g_client.obj
 0002:0000f86c       ??_C@_0L@JEAMIDKG@?$CKdroidunit?$AA@ 2012a86c     g_client.obj
 0002:0000f878       ??_C@_0L@OPBBEMAA@model_root?$AA@ 2012a878     g_client.obj
 0002:0000f884       ??_C@_0BI@JMFCONIH@NPC?5had?5an?5invalid?5GLA?6?$AA@ 2012a884     g_client.obj
 0002:0000f89c       ??_C@_0P@BNFHKDFH@?1animation?4cfg?$AA@ 2012a89c     g_client.obj
 0002:0000f8ac       ??_C@_0CI@JEEOEJJO@Failed?5to?5load?5humanoid?5animatio@ 2012a8ac     g_client.obj
 0002:0000f8d4       ??_C@_0CH@JMNIMDPG@models?1players?1_humanoid?1animati@ 2012a8d4     g_client.obj
 0002:0000f8fc       ??_C@_03CLKAMBIH@?$CK?$CFs?$AA@ 2012a8fc     g_client.obj
 0002:0000f900       ??_C@_0BG@BBLNABEM@models?1players?1?$CFs?1?$HM?$CFs?$AA@ 2012a900     g_client.obj
 0002:0000f918       ??_C@_0CF@FIHHFCC@models?1players?1?$CFs?1model_default?4@ 2012a918     g_client.obj
 0002:0000f940       ??_C@_0CH@LCIAEFJH@models?1players?1kyle?1model_defaul@ 2012a940     g_client.obj
 0002:0000f968       ??_C@_0BO@KEENCNON@models?1players?1kyle?1model?4glm?$AA@ 2012a968     g_client.obj
 0002:0000f988       ??_C@_0BO@IFHBFKHP@ClientUserinfoChanged?3?5?$CFi?5?$CFs?6?$AA@ 2012a988     g_client.obj
 0002:0000f9a8       ??_C@_0GK@HHPFPHAC@n?2?$CFs?2t?2?$CFi?2model?2?$CFs?2c1?2?$CFs?2c2?2?$CFs?2h@ 2012a9a8     g_client.obj
 0002:0000fa18       ??_C@_0HP@EKFHOAGJ@n?2?$CFs?2t?2?$CFi?2model?2?$CFs?2c1?2?$CFs?2c2?2?$CFs?2h@ 2012aa18     g_client.obj
 0002:0000fa98       ??_C@_0II@GFANFIIN@n?2?$CFs?2t?2?$CFi?2model?2?$CFs?2c1?2?$CFs?2c2?2?$CFs?2h@ 2012aa98     g_client.obj
 0002:0000fb20       ??_C@_08OKGPDOIO@teamtask?$AA@ 2012ab20     g_client.obj
 0002:0000fb2c       ??_C@_0M@IKKMOBIP@teamoverlay?$AA@ 2012ab2c     g_client.obj
 0002:0000fb38       ??_C@_0BA@PDECLNK@char_color_blue?$AA@ 2012ab38     g_client.obj
 0002:0000fb48       ??_C@_0BB@ECHDKGAH@char_color_green?$AA@ 2012ab48     g_client.obj
 0002:0000fb5c       ??_C@_0P@FBLDEJO@char_color_red?$AA@ 2012ab5c     g_client.obj
 0002:0000fb6c       ??_C@_0BD@GODMBNGJ@torso_g1?$HMlower_e1?$AA?$AA@ 2012ab6c     g_client.obj
 0002:0000fb80       ??_C@_01DNKMNLPK@?$HM?$AA@ 2012ab80     g_client.obj
 0002:0000fb84       ??_C@_0BE@NPKEBDLN@print?5?$CC?$CFs?$FO7?5?$CFs?5?$CFs?6?$CC?$AA@ 2012ab84     g_client.obj
 0002:0000fb98       ??_C@_08MPGOGCGH@PLRENAME?$AA@ 2012ab98     g_client.obj
 0002:0000fba4       ??_C@_0N@DOJKODFO@NONAMECHANGE?$AA@ 2012aba4     g_client.obj
 0002:0000fbb4       ??_C@_0L@PGGJLCHO@scoreboard?$AA@ 2012abb4     g_client.obj
 0002:0000fbc0       ??_C@_0BA@PKAEEJJB@cg_predictItems?$AA@ 2012abc0     g_client.obj
 0002:0000fbd0       ??_C@_09IPAEKDAI@localhost?$AA@ 2012abd0     g_client.obj
 0002:0000fbdc       ??_C@_02GIIHKPLE@ip?$AA@   2012abdc     g_client.obj
 0002:0000fbe0       ??_C@_0O@JBDOHEEF@?2name?2badinfo?$AA@ 2012abe0     g_client.obj
 0002:0000fbf0       ??_C@_0BB@FFPEABPI@print?5?$CC?$CFs?$FO7?5?$CFs?6?$CC?$AA@ 2012abf0     g_client.obj
 0002:0000fc04       ??_C@_09FKMGKPLO@PLCONNECT?$AA@ 2012ac04     g_client.obj
 0002:0000fc10       ??_C@_0BO@LBPPNMCI@?$CK?$CK?$CK?$CK?$CKSpawning?5Bot?5?$CFs?$FO7?$CK?$CK?$CK?$CK?$CK?5?6?$AA@ 2012ac10     g_client.obj
 0002:0000fc30       ??_C@_0BM@DHLPNGBB@?$CFs?$FO7?5connected?5with?5IP?3?5?$CFs?6?$AA@ 2012ac30     g_client.obj
 0002:0000fc4c       ??_C@_0BD@LEMBFDEN@ClientConnect?3?5?$CFi?6?$AA@ 2012ac4c     g_client.obj
 0002:0000fc60       ??_C@_0BB@KINAMDJK@BotConnectfailed?$AA@ 2012ac60     g_client.obj
 0002:0000fc74       ??_C@_0BH@CEGKALNF@INVALID_ESCAPE_TO_MAIN?$AA@ 2012ac74     g_client.obj
 0002:0000fc8c       ??_C@_08NLHBPEGP@password?$AA@ 2012ac8c     g_client.obj
 0002:0000fc98       ??_C@_07IAHJGILA@Banned?4?$AA@ 2012ac98     g_client.obj
 0002:0000fca0       ??_C@_0CC@NJMNCFMP@sound?1player?1bodyfall_human?$CFi?4wa@ 2012aca0     g_client.obj
 0002:0000fcc4       ??_C@_06EMGELNAF@Motion?$AA@ 2012acc4     g_client.obj
 0002:0000fccc       ??_C@_0N@GGGDBMDO@disconnected?$AA@ 2012accc     g_client.obj
 0002:0000fcdc       ??_C@_0BP@HJHCIPFH@?$CFs?$FO7?5disconnected?5with?5IP?3?5?$CFs?6?$AA@ 2012acdc     g_client.obj
 0002:0000fcfc       ??_C@_0BG@PJMKPFGA@ClientDisconnect?3?5?$CFi?6?$AA@ 2012acfc     g_client.obj
 0002:0000fd18       ??_C@_0FL@OEPLEJKL@AutoGameBalancer?3?5Moved?5?$CFs?$FO7?5to?5@ 2012ad18     g_client.obj
 0002:0000fd78       ??_C@_0GC@JNEMLOEO@print?5?$CCAutoGameBalancer?3?5Moved?5?$CF@ 2012ad78     g_client.obj
 0002:0000fddc       ??_C@_0CO@JFAPDCGA@cp?5?$CCYou?5were?5Team?5Switched?5for?5G@ 2012addc     g_client.obj
 0002:0000fe0c       ??_C@_01KDCPPGHE@r?$AA@    2012ae0c     g_client.obj
 0002:0000fe10       ??_C@_01OJONOECF@b?$AA@    2012ae10     g_client.obj
 0002:0000fe18       ??_C@_0EP@KAMCINC@print?5?$CCAutoGameBalancer?3?5Moved?5?$CF@ 2012ae18     g_client.obj
 0002:0000fe68       ??_C@_0FA@IJDLLOAN@print?5?$CCAutoGameBalancer?3?5Moved?5?$CF@ 2012ae68     g_client.obj
 0002:0000feb8       ??_C@_0BL@PLMNDAFG@models?1players?1wampa?1wampa?$AA@ 2012aeb8     g_client.obj
 0002:0000fed4       ??_C@_0CL@NKMIGCAF@models?1players?1rockettrooper?1roc@ 2012aed4     g_client.obj
 0002:0000ff00       ??_C@_0CL@OENDMLL@models?1players?1hazardtrooper?1haz@ 2012af00     g_client.obj
 0002:0000ff2c       ??_C@_0CB@LBMJECKB@models?1players?1saber_droid?1model@ 2012af2c     g_client.obj
 0002:0000ff50       ??_C@_0CE@KKNJECBL@models?1players?1assassin_droid?1mo@ 2012af50     g_client.obj
 0002:0000ff74       ??_C@_0CB@POFBFIIH@models?1players?1protocol?1protocol@ 2012af74     g_client.obj
 0002:0000ff98       ??_C@_0BJ@DGJBJJFM@models?1players?1_humanoid?$AA@ 2012af98     g_client.obj
 0002:0000ffb8       __real@3ff4000000000000    2012afb8     g_client.obj
 0002:0000ffc0       ??_C@_0BE@OBOCPLPN@g_duelWeaponDisable?$AA@ 2012afc0     g_client.obj
 0002:0000ffd4       ??_C@_0BA@DKHOJHPN@g_weaponDisable?$AA@ 2012afd4     g_client.obj
 0002:0000ffe8       ??_C@_0FG@GJKFMOGI@ERROR?3?5?5The?5game?5doesn?8t?5like?5it@ 2012afe8     g_client.obj
 0002:00010040       ??_C@_0M@HDALJKN@g_jediVmerc?$AA@ 2012b040     g_client.obj
 0002:0001004c       ??_C@_06BALNJMNP@player?$AA@ 2012b04c     g_client.obj
 0002:00010054       ??_C@_07MKKCJLCK@saber?$CFi?$AA@ 2012b054     g_client.obj
 0002:0001005c       ??_C@_0BB@JCCEPCGJ@ClientBegin?3?5?$CFi?6?$AA@ 2012b05c     g_client.obj
 0002:00010070       ??_C@_07EOLFFJKC@PLENTER?$AA@ 2012b070     g_client.obj
 0002:00010078       ??_C@_06DCJKKMHM@dual_1?$AA@ 2012b078     g_client.obj
 0002:00010080       ??_C@_06MEPEPBID@Katarn?$AA@ 2012b080     g_client.obj
 0002:00010088       ??_C@_0BG@BKPINHAJ@Capture?5the?5Ysalamiri?$AA@ 2012b088     g_cmds.obj
 0002:000100a0       ??_C@_0BB@OOIHNFAG@Capture?5the?5Flag?$AA@ 2012b0a0     g_cmds.obj
 0002:000100b4       ??_C@_05JOPHEEP@Siege?$AA@ 2012b0b4     g_cmds.obj
 0002:000100bc       ??_C@_08NFCDKJPC@Team?5FFA?$AA@ 2012b0bc     g_cmds.obj
 0002:000100c8       ??_C@_0O@NNAOEDOE@Single?5Player?$AA@ 2012b0c8     g_cmds.obj
 0002:000100d8       ??_C@_0L@MKHOILHK@Power?5Duel?$AA@ 2012b0d8     g_cmds.obj
 0002:000100e4       ??_C@_04EPBLILKF@Duel?$AA@ 2012b0e4     g_cmds.obj
 0002:000100ec       ??_C@_0M@EBAJNKPF@Jedi?5Master?$AA@ 2012b0ec     g_cmds.obj
 0002:000100f8       ??_C@_0N@BBLBINLJ@Holocron?5FFA?$AA@ 2012b0f8     g_cmds.obj
 0002:00010108       ??_C@_0N@PCEMCJC@Free?5For?5All?$AA@ 2012b108     g_cmds.obj
 0002:00010118       ??_C@_06MHOMHIDM@report?$AA@ 2012b118     g_cmds.obj
 0002:00010120       ??_C@_0BD@JFEBCONJ@search?5and?5destroy?$AA@ 2012b120     g_cmds.obj
 0002:00010134       ??_C@_0P@BDHIOPIB@guard?5location?$AA@ 2012b134     g_cmds.obj
 0002:00010144       ??_C@_08NJPHEENP@cover?5me?$AA@ 2012b144     g_cmds.obj
 0002:00010150       ??_C@_09NKPGKNPA@come?5here?$AA@ 2012b150     g_cmds.obj
 0002:0001015c       ??_C@_0BD@BGOJJIFC@hold?5this?5position?$AA@ 2012b15c     g_cmds.obj
 0002:00010170       ??_C@_0BD@BEPMJBOM@hold?5your?5position?$AA@ 2012b170     g_cmds.obj
 0002:00010184       ??_C@_0BC@BADCIGBJ@scores?5?$CFi?5?$CFi?5?$CFi?$CFs?$AA@ 2012b184     g_cmds.obj
 0002:00010198       ??_C@_0CL@EAFNPFGA@?5?$CFi?5?$CFi?5?$CFi?5?$CFi?5?$CFi?5?$CFi?5?$CFi?5?$CFi?5?$CFi?5?$CFi?5?$CF@ 2012b198     g_cmds.obj
 0002:000101c4       ??_C@_0M@HJDNNOOD@MUSTBEALIVE?$AA@ 2012b1c4     g_cmds.obj
 0002:000101d0       ??_C@_08CAGLGEPK@NOCHEATS?$AA@ 2012b1d0     g_cmds.obj
 0002:000101dc       ??_C@_0CG@OFMIDLCG@print?5?$CCUser?5?$CFs?5is?5not?5on?5the?5ser@ 2012b1dc     g_cmds.obj
 0002:00010204       ??_C@_0BN@FGLBNIJH@print?5?$CCBad?5client?5slot?3?5?$CFi?6?$CC?$AA@ 2012b204     g_cmds.obj
 0002:00010224       ??_C@_0CB@IOMDOEKP@print?5?$CCClient?5?$CFi?5is?5not?5active?6?$CC@ 2012b224     g_cmds.obj
 0002:00010248       ??_C@_04PGKJFGNK@ammo?$AA@ 2012b248     g_cmds.obj
 0002:00010250       ??_C@_09GIANPGEP@weaponnum?$AA@ 2012b250     g_cmds.obj
 0002:0001025c       ??_C@_05BINPNAAL@force?$AA@ 2012b25c     g_cmds.obj
 0002:00010264       ??_C@_09OCPGKIKB@inventory?$AA@ 2012b264     g_cmds.obj
 0002:00010270       ??_C@_03NFKEKGGK@all?$AA@  2012b270     g_cmds.obj
 0002:00010274       ??_C@_0BK@NNAEMDNK@?$CFi?5is?5not?5a?5client?5index?6?$AA@ 2012b274     g_cmds.obj
 0002:00010290       ??_C@_0BM@FJJLMCGD@?$CFi?5is?5not?5an?5active?5client?6?$AA@ 2012b290     g_cmds.obj
 0002:000102b0       ??_C@_0EH@IGPFKLGG@giveother?5requires?5that?5the?5seco@ 2012b2b0     g_cmds.obj
 0002:000102f8       ??_C@_0L@GPCEIOHM@print?5?$CC?$CFs?$CC?$AA@ 2012b2f8     g_cmds.obj
 0002:00010304       ??_C@_0M@MCLKHHDH@godmode?5ON?6?$AA@ 2012b304     g_cmds.obj
 0002:00010310       ??_C@_0N@POKEKLLJ@godmode?5OFF?6?$AA@ 2012b310     g_cmds.obj
 0002:00010320       ??_C@_0N@OBJNJDJO@notarget?5ON?6?$AA@ 2012b320     g_cmds.obj
 0002:00010330       ??_C@_0O@FBINJHBB@notarget?5OFF?6?$AA@ 2012b330     g_cmds.obj
 0002:00010340       ??_C@_0L@MDMNIPJN@noclip?5ON?6?$AA@ 2012b340     g_cmds.obj
 0002:0001034c       ??_C@_0M@MIKGJGLH@noclip?5OFF?6?$AA@ 2012b34c     g_cmds.obj
 0002:00010358       ??_C@_0CP@EMMMGMNN@print?5?$CCMust?5be?5in?5g_gametype?50?5f@ 2012b358     g_cmds.obj
 0002:00010388       ??_C@_0O@BFCLIKIJ@WARNINGTKKICK?$AA@ 2012b388     g_cmds.obj
 0002:00010398       ??_C@_0N@NGBMDIDK@WARNINGTKBAN?$AA@ 2012b398     g_cmds.obj
 0002:000103a8       ??_C@_06HIPIMMDC@TKKICK?$AA@ 2012b3a8     g_cmds.obj
 0002:000103b0       ??_C@_0P@DDDDGIIC@clientkick?5?$CFd?6?$AA@ 2012b3b0     g_cmds.obj
 0002:000103c0       ??_C@_0P@HBOBHJDK@print?5?$CC?$CFs?5?$CFs?6?$CC?$AA@ 2012b3c0     g_cmds.obj
 0002:000103d0       ??_C@_0BA@KIPOJNBC@MP_SVGAME_ADMIN?$AA@ 2012b3d0     g_cmds.obj
 0002:000103e0       ??_C@_05NILOGICP@TKBAN?$AA@ 2012b3e0     g_cmds.obj
 0002:000103e8       ??_C@_0BD@LEAPLLAO@WARNINGSUICIDEKICK?$AA@ 2012b3e8     g_cmds.obj
 0002:000103fc       ??_C@_0BC@CDLOMBJL@WARNINGSUICIDEBAN?$AA@ 2012b3fc     g_cmds.obj
 0002:00010410       ??_C@_0M@DCPLBLGJ@SUICIDEKICK?$AA@ 2012b410     g_cmds.obj
 0002:0001041c       ??_C@_0L@EMMHCEL@SUICIDEBAN?$AA@ 2012b41c     g_cmds.obj
 0002:00010428       ??_C@_0BA@HDFNEMIE@ATTEMPTDUELKILL?$AA@ 2012b428     g_cmds.obj
 0002:00010438       ??_C@_0BE@HKMOJLNI@setteam?3?5?5?$CFi?5?$CFs?5?$CFs?6?$AA@ 2012b438     g_cmds.obj
 0002:0001044c       ??_C@_0O@DCNNJJMK@cp?5?$CC?$CFs?$FO7?5?$CFs?6?$CC?$AA@ 2012b44c     g_cmds.obj
 0002:0001045c       ??_C@_0BC@BJBGMJJL@JOINEDTHEBLUETEAM?$AA@ 2012b45c     g_cmds.obj
 0002:00010470       ??_C@_0BB@ENKCBLGF@JOINEDTHEREDTEAM?$AA@ 2012b470     g_cmds.obj
 0002:00010484       ??_C@_0BA@OPAFLHJM@JOINEDTHEBATTLE?$AA@ 2012b484     g_cmds.obj
 0002:00010494       ??_C@_0BE@CPHOGHGO@JOINEDTHESPECTATORS?$AA@ 2012b494     g_cmds.obj
 0002:000104a8       ??_C@_0M@HAIBCDGI@TOOMANYBLUE?$AA@ 2012b4a8     g_cmds.obj
 0002:000104b4       ??_C@_0L@OBHABNBK@TOOMANYRED?$AA@ 2012b4b4     g_cmds.obj
 0002:000104c0       ??_C@_07NNICNDK@follow2?$AA@ 2012b4c0     g_cmds.obj
 0002:000104c8       ??_C@_07CGPFHOPJ@follow1?$AA@ 2012b4c8     g_cmds.obj
 0002:000104d0       ??_C@_05DBKDOICH@score?$AA@ 2012b4d0     g_cmds.obj
 0002:000104d8       ??_C@_0CL@ICLDEEAC@print?5?$CCCannot?5switch?5teams?5in?5Po@ 2012b4d8     g_cmds.obj
 0002:00010504       ??_C@_0CF@FCNNJGFE@print?5?$CCCannot?5switch?5teams?5in?5Du@ 2012b504     g_cmds.obj
 0002:0001052c       ??_C@_08KHFNHMLJ@NOSWITCH?$AA@ 2012b52c     g_cmds.obj
 0002:00010538       ??_C@_0N@OLKGLLDI@PRINTREDTEAM?$AA@ 2012b538     g_cmds.obj
 0002:00010548       ??_C@_0O@MGKOAHC@PRINTBLUETEAM?$AA@ 2012b548     g_cmds.obj
 0002:00010558       ??_C@_0O@FPGJAOKJ@PRINTFREETEAM?$AA@ 2012b558     g_cmds.obj
 0002:00010568       ??_C@_0O@CNECONPH@PRINTSPECTEAM?$AA@ 2012b568     g_cmds.obj
 0002:00010578       ??_C@_0CF@ELCLKFEP@print?5?$CC?8?$CFs?8?5not?5a?5valid?5duel?5tea@ 2012b578     g_cmds.obj
 0002:000105a0       ??_C@_06BNJCAIGJ@double?$AA@ 2012b5a0     g_cmds.obj
 0002:000105a8       ??_C@_06EJFMBPJF@single?$AA@ 2012b5a8     g_cmds.obj
 0002:000105b0       ??_C@_04LIAPHEDB@free?$AA@ 2012b5b0     g_cmds.obj
 0002:000105b8       ??_C@_0O@CJDGLDP@print?5?$CCNone?6?$CC?$AA@ 2012b5b8     g_cmds.obj
 0002:000105c8       ??_C@_0BA@OOACLMEK@print?5?$CCSingle?6?$CC?$AA@ 2012b5c8     g_cmds.obj
 0002:000105d8       ??_C@_0BA@NFNIMDPC@print?5?$CCDouble?6?$CC?$AA@ 2012b5d8     g_cmds.obj
 0002:000105e8       ??_C@_0M@HNCFKAFM@NOCLASSTEAM?$AA@ 2012b5e8     g_cmds.obj
 0002:000105f4       ??_C@_0O@BMHMPEML@NOCLASSSWITCH?$AA@ 2012b5f4     g_cmds.obj
 0002:00010604       ??_C@_0P@IAEIDNPE@print?5?$CC?$CFs?$CFs?6?6?$CC?$AA@ 2012b604     g_cmds.obj
 0002:00010614       ??_C@_02ILOMHBCG@?$FO2?$AA@ 2012b614     g_cmds.obj
 0002:00010618       ??_C@_0BC@MPMNNJPF@FORCEPOWERCHANGED?$AA@ 2012b618     g_cmds.obj
 0002:0001062c       ??_C@_0BO@KJIMFOBJ@Cmd_FollowCycle_f?3?5bad?5dir?5?$CFi?$AA@ 2012b62c     g_cmds.obj
 0002:0001064c       ??_C@_0O@CCPEDGNK@?$CFs?5?$CC?$CFs?$CFc?$CFc?$CFs?$CC?$AA@ 2012b64c     g_cmds.obj
 0002:0001065c       ??_C@_04BLJLMHHG@chat?$AA@ 2012b65c     g_cmds.obj
 0002:00010664       ??_C@_05PMMINOBP@tchat?$AA@ 2012b664     g_cmds.obj
 0002:0001066c       ??_C@_0BH@BEJBMMCB@?$CFs?5?$CC?$CFs?$CC?5?$CC?$CFs?$CC?5?$CC?$CFc?$CC?5?$CC?$CFs?$CC?$AA@ 2012b66c     g_cmds.obj
 0002:00010684       ??_C@_05BDENFOOJ@lchat?$AA@ 2012b684     g_cmds.obj
 0002:0001068c       ??_C@_06JMHAIGFD@ltchat?$AA@ 2012b68c     g_cmds.obj
 0002:00010694       ??_C@_02FIDLOBHM@me?$AA@   2012b694     g_cmds.obj
 0002:00010698       ??_C@_07OKFGPCEA@destroy?$AA@ 2012b698     g_cmds.obj
 0002:000106a0       ??_C@_03GMGBHMEH@bow?$AA@  2012b6a0     g_cmds.obj
 0002:000106a4       ??_C@_05IBKAECLI@kneel?$AA@ 2012b6a4     g_cmds.obj
 0002:000106ac       ??_C@_03OFAPEBGM@?$CFs?6?$AA@ 2012b6ac     g_cmds.obj
 0002:000106b0       ??_C@_05JMJKDBEJ@?$CFs?$CFs?6?$AA@ 2012b6b0     g_cmds.obj
 0002:000106b8       ??_C@_0O@FGLMEIPO@?$BJ?$CI?$CFs?$CFc?$CFc?$BJ?$CJ?$BJ?3?5?$AA@ 2012b6b8     g_cmds.obj
 0002:000106c8       ??_C@_0BB@OADDLILN@sayteam?3?5?$CFs?3?5?$CFs?6?$AA@ 2012b6c8     g_cmds.obj
 0002:000106dc       ??_C@_0O@FNNABOLL@?$BJ?$FL?$CFs?$CFc?$CFc?$BJ?$FN?$BJ?3?5?$AA@ 2012b6dc     g_cmds.obj
 0002:000106ec       ??_C@_09GPHNFPKO@?$CFs?$CFc?$CFc?$BJ?3?5?$AA@ 2012b6ec     g_cmds.obj
 0002:000106f8       ??_C@_0N@PIPLJLA@say?3?5?$CFs?3?5?$CFs?6?$AA@ 2012b6f8     g_cmds.obj
 0002:00010708       ??_C@_0EC@EPBABIKC@cp?5?$CC?$FO4Please?5Don?8t?5Spam?4?6Wait?5?$CF?4@ 2012b708     g_cmds.obj
 0002:0001074c       ??_C@_0BE@DNAOGBCN@tell?3?5?$CFs?5to?5?$CFs?3?5?$CFs?6?$AA@ 2012b74c     g_cmds.obj
 0002:00010760       ??_C@_0BC@EJMMBHCM@NOVOICECHATASSPEC?$AA@ 2012b760     g_cmds.obj
 0002:00010774       ??_C@_0DD@PMAOHMJI@print?5?$CCCannot?5call?5a?5team?5vote?5i@ 2012b774     g_cmds.obj
 0002:000107a8       ??_C@_0CA@ENAIANHJ@print?5?$CC?$CFs?5called?5a?5team?5vote?4?6?$CC?$AA@ 2012b7a8     g_cmds.obj
 0002:000107c8       ??_C@_05DNIIFBMG@?$CFs?5?$CFs?$AA@ 2012b7c8     g_cmds.obj
 0002:000107d0       ??_C@_0O@NFCDAKOF@clientkick?5?$CFs?$AA@ 2012b7d0     g_cmds.obj
 0002:000107e0       ??_C@_0ED@BFBJHNNM@print?5?$CCCannot?5call?5a?5team?5vote?5o@ 2012b7e0     g_cmds.obj
 0002:00010824       ??_C@_0DA@BDICJJF@print?5?$CC?$CFs?5is?5not?5a?5valid?5player?5@ 2012b824     g_cmds.obj
 0002:00010858       ??_C@_0FN@MHDNDEKJ@print?5?$CCTeam?5vote?5commands?5are?3?5l@ 2012b858     g_cmds.obj
 0002:000108b8       ??_C@_0BO@PMPHENKD@print?5?$CCInvalid?5vote?5string?4?6?$CC?$AA@ 2012b8b8     g_cmds.obj
 0002:000108d8       ??_C@_04FNIJDBCC@kick?$AA@ 2012b8d8     g_cmds.obj
 0002:000108e0       ??_C@_06DFLPLEOP@leader?$AA@ 2012b8e0     g_cmds.obj
 0002:000108e8       ??_C@_0L@GMGOMDJC@NOSPECVOTE?$AA@ 2012b8e8     g_cmds.obj
 0002:000108f4       ??_C@_0N@CEFMMENN@MAXTEAMVOTES?$AA@ 2012b8f4     g_cmds.obj
 0002:00010904       ??_C@_0BA@OKMADPLA@TEAMVOTEALREADY?$AA@ 2012b904     g_cmds.obj
 0002:00010914       ??_C@_06BKDGNJDA@NOVOTE?$AA@ 2012b914     g_cmds.obj
 0002:0001091c       ??_C@_0DJ@IPGECJAB@print?5?$CCCannot?5call?5a?5team?5vote?5i@ 2012b91c     g_cmds.obj
 0002:00010958       ??_C@_0P@CFKEACHA@PLTEAMVOTECAST?$AA@ 2012b958     g_cmds.obj
 0002:00010968       ??_C@_0N@DFLDHGJO@NOVOTEASSPEC?$AA@ 2012b968     g_cmds.obj
 0002:00010978       ??_C@_0BE@DFLGCFGH@TEAMVOTEALREADYCAST?$AA@ 2012b978     g_cmds.obj
 0002:0001098c       ??_C@_0BB@ENJPDDMP@NOTEAMVOTEINPROG?$AA@ 2012b98c     g_cmds.obj
 0002:000109a0       ??_C@_0CF@GJFHLKOA@print?5?$CCusage?3?5setviewpos?5x?5y?5z?5y@ 2012b9a0     g_cmds.obj
 0002:000109c8       ??_C@_0DP@COGOMHHI@print?5?$CCSABERSTANCEDEBUG?3?5Attempt@ 2012b9c8     g_cmds.obj
 0002:00010a08       ??_C@_0EC@NNNMICGN@print?5?$CCSABERSTANCEDEBUG?3?5Attempt@ 2012ba08     g_cmds.obj
 0002:00010a4c       ??_C@_0DM@CFILFKNO@print?5?$CCSABERSTANCEDEBUG?3?5Attempt@ 2012ba4c     g_cmds.obj
 0002:00010a88       ??_C@_0ED@MFKFDKKB@print?5?$CCSABERSTANCEDEBUG?3?5Attempt@ 2012ba88     g_cmds.obj
 0002:00010ad0       ??_C@_0EB@FJEOABKD@print?5?$CCSABERSTANCEDEBUG?3?5Attempt@ 2012bad0     g_cmds.obj
 0002:00010b14       ??_C@_0BA@EMFPPJJG@NODUEL_GAMETYPE?$AA@ 2012bb14     g_cmds.obj
 0002:00010b24       ??_C@_0BB@CJNJILNG@PLDUELCHALLENGED?$AA@ 2012bb24     g_cmds.obj
 0002:00010b38       ??_C@_0P@OAICFCJM@cp?5?$CC?$CFs?6?5?$FO7?$CFs?6?$CC?$AA@ 2012bb38     g_cmds.obj
 0002:00010b48       ??_C@_0BA@HBPDMLPA@PLDUELCHALLENGE?$AA@ 2012bb48     g_cmds.obj
 0002:00010b58       ??_C@_0BF@HAEAHCKD@print?5?$CC?$CFs?5?$FO7?$CFs?5?$CFs?$CB?6?$CC?$AA@ 2012bb58     g_cmds.obj
 0002:00010b70       ??_C@_0N@HFLBPIIP@PLDUELACCEPT?$AA@ 2012bb70     g_cmds.obj
 0002:00010b80       ??_C@_0O@JELJOHM@CANTDUEL_BUSY?$AA@ 2012bb80     g_cmds.obj
 0002:00010b90       ??_C@_0BB@IHHKICJB@CANTDUEL_JUSTDID?$AA@ 2012bb90     g_cmds.obj
 0002:00010ba4       ??_C@_0P@LNNCCPC@VOTEINPROGRESS?$AA@ 2012bba4     g_cmds.obj
 0002:00010bb8       ??_C@_0KJ@BAKDCPAJ@print?5?$CCVote?5commands?5are?3?5map_re@ 2012bbb8     g_cmds.obj
 0002:00010c64       ??_C@_0N@KEELBNDE@PLCALLEDVOTE?$AA@ 2012bc64     g_cmds.obj
 0002:00010c74       ??_C@_07CMIPDAGF@?$CFs?5?$CC?$CFs?$CC?$AA@ 2012bc74     g_cmds.obj
 0002:00010c7c       ??_C@_02DKCKIIND@?$CFs?$AA@ 2012bc7c     g_cmds.obj
 0002:00010c80       ??_C@_0N@NPFCFAAA@vstr?5nextmap?$AA@ 2012bc80     g_cmds.obj
 0002:00010c90       ??_C@_0BK@IOHPLFMM@print?5?$CCnextmap?5not?5set?4?6?$CC?$AA@ 2012bc90     g_cmds.obj
 0002:00010cac       ??_C@_0O@NAKAIOHD@clientkick?5?$CFd?$AA@ 2012bcac     g_cmds.obj
 0002:00010cc0       ??_C@_0EA@JHCLLCKN@print?5?$CCthere?5is?5no?5client?5named?5@ 2012bcc0     g_cmds.obj
 0002:00010d00       ??_C@_0CC@OPBOEFBE@print?5?$CCKick?5voting?5is?5disabled?4?6@ 2012bd00     g_cmds.obj
 0002:00010d24       ??_C@_0CD@EDBOGCHD@print?5?$CCinvalid?5client?5number?5?$CFd?4@ 2012bd24     g_cmds.obj
 0002:00010d48       ??_C@_07PDFGKPOF@kick?5?$CFs?$AA@ 2012bd48     g_cmds.obj
 0002:00010d50       ??_C@_0DH@DKINEMBE@print?5?$CCthere?5is?5no?5client?5with?5t@ 2012bd50     g_cmds.obj
 0002:00010d88       ??_C@_05MBDEGLCK@ERROR?$AA@ 2012bd88     g_cmds.obj
 0002:00010d90       ??_C@_08JJAPLNHH@longname?$AA@ 2012bd90     g_cmds.obj
 0002:00010d9c       ??_C@_0BI@EHIPCLJD@?$CFs?5?$CFs?$DL?5set?5nextmap?5?$CC?$CFs?$CC?$AA@ 2012bd9c     g_cmds.obj
 0002:00010db4       ??_C@_0BN@DDNEJHJ@NOVOTE_MAPNOTSUPPORTEDBYGAME?$AA@ 2012bdb4     g_cmds.obj
 0002:00010dd4       ??_C@_0CB@LICNKDMO@print?5?$CCMap?5voting?5is?5disabled?4?6?$CC@ 2012bdd4     g_cmds.obj
 0002:00010df8       ??_C@_0FO@GGNOECCK@print?5?$CCYou?5can?5only?5do?5map?5resta@ 2012bdf8     g_cmds.obj
 0002:00010e58       ??_C@_0BL@HOKFFIC@print?5?$CCInvalid?5gametype?4?6?$CC?$AA@ 2012be58     g_cmds.obj
 0002:00010e74       ??_C@_05DIALNFFA@?$CFs?5?$CFd?$AA@ 2012be74     g_cmds.obj
 0002:00010e7c       ??_C@_0CG@KMPLIGGM@print?5?$CCGametype?5voting?5is?5disabl@ 2012be7c     g_cmds.obj
 0002:00010ea4       ??_C@_09GCIEGDDN@fraglimit?$AA@ 2012bea4     g_cmds.obj
 0002:00010eb0       ??_C@_09KPHKOKCC@timelimit?$AA@ 2012beb0     g_cmds.obj
 0002:00010ebc       ??_C@_0L@LPENDGCI@g_doWarmup?$AA@ 2012bebc     g_cmds.obj
 0002:00010ec8       ??_C@_0L@NBDAICFL@clientkick?$AA@ 2012bec8     g_cmds.obj
 0002:00010ed4       ??_C@_0L@GFINLBEC@g_gametype?$AA@ 2012bed4     g_cmds.obj
 0002:00010ee0       ??_C@_0M@NBIMEKNE@map_restart?$AA@ 2012bee0     g_cmds.obj
 0002:00010eec       ??_C@_08GAPKJHJJ@MAXVOTES?$AA@ 2012beec     g_cmds.obj
 0002:00010ef8       ??_C@_0L@JNGMNPKH@PLVOTECAST?$AA@ 2012bef8     g_cmds.obj
 0002:00010f04       ??_C@_0M@LOKNBEMN@VOTEALREADY?$AA@ 2012bf04     g_cmds.obj
 0002:00010f10       ??_C@_0N@DNEGNLDF@NOVOTEINPROG?$AA@ 2012bf10     g_cmds.obj
 0002:00010f20       ??_C@_0BI@FJNBDMBJ@print?5?$CCunknown?5cmd?5?$CFs?6?$CC?$AA@ 2012bf20     g_cmds.obj
 0002:00010f38       ??_C@_0N@GJHJILLH@print?5?$CC?$CFs?4?6?$CC?$AA@ 2012bf38     g_cmds.obj
 0002:00010f48       ??_C@_0BI@EPMKDBE@ONLY_ADD_BOTS_AS_SERVER?$AA@ 2012bf48     g_cmds.obj
 0002:00010f60       ??_C@_06CJHCPEHG@addbot?$AA@ 2012bf60     g_cmds.obj
 0002:00010f68       ??_C@_0O@LFEDKAGB@debugBMove_Up?$AA@ 2012bf68     g_cmds.obj
 0002:00010f78       ??_C@_0BA@KHAOBFHD@debugBMove_Left?$AA@ 2012bf78     g_cmds.obj
 0002:00010f88       ??_C@_0BB@NDFECBPK@debugBMove_Right?$AA@ 2012bf88     g_cmds.obj
 0002:00010f9c       ??_C@_0BA@FMMNPADA@debugBMove_Back?$AA@ 2012bf9c     g_cmds.obj
 0002:00010fac       ??_C@_0BD@LJJDOGJN@debugBMove_Forward?$AA@ 2012bfac     g_cmds.obj
 0002:00010fc0       ??_C@_0N@GJLBDMLG@thedestroyer?$AA@ 2012bfc0     g_cmds.obj
 0002:00010fd0       ??_C@_0BA@PEFFABAA@autosave_delete?$AA@ 2012bfd0     g_cmds.obj
 0002:00010fe0       ??_C@_0O@BBDMJEPH@autosave_save?$AA@ 2012bfe0     g_cmds.obj
 0002:00010ff0       ??_C@_0N@IEGIBDCA@autosave_add?$AA@ 2012bff0     g_cmds.obj
 0002:00011000       ??_C@_0P@GCLNAFKL@?$CBspawnholocron?$AA@ 2012c000     g_cmds.obj
 0002:00011010       ??_C@_0P@CFLBPEFN@?$CBsaveholocrons?$AA@ 2012c010     g_cmds.obj
 0002:00011020       ??_C@_0N@OJAAOPNB@?$CBaddholocron?$AA@ 2012c020     g_cmds.obj
 0002:00011030       ??_C@_0MF@FDFAJIOH@cp?5?$CCThis?5mod?5is?5based?5on?5code?5ta@ 2012c030     g_cmds.obj
 0002:000110f8       ??_C@_0L@FJABKNNA@lamercheck?$AA@ 2012c0f8     g_cmds.obj
 0002:00011104       ??_C@_09FGJHPKEH@killother?$AA@ 2012c104     g_cmds.obj
 0002:00011110       ??_C@_05HGBBFANE@t_use?$AA@ 2012c110     g_cmds.obj
 0002:00011118       ??_C@_0BC@IKOGLIOK@print?5?$CC?$CFs?5?$CI?$CFs?$CJ?5?6?$CC?$AA@ 2012c118     g_cmds.obj
 0002:0001112c       ??_C@_0BJ@EDEBLPIH@CANNOT_TASK_INTERMISSION?$AA@ 2012c12c     g_cmds.obj
 0002:00011148       ??_C@_05BLKJBNOD@stats?$AA@ 2012c148     g_cmds.obj
 0002:00011150       ??_C@_0L@CCEFBCKP@setviewpos?$AA@ 2012c150     g_cmds.obj
 0002:0001115c       ??_C@_02DPGMDCM@gc?$AA@    2012c15c     g_cmds.obj
 0002:00011160       ??_C@_08OLLMCBNG@teamvote?$AA@ 2012c160     g_cmds.obj
 0002:0001116c       ??_C@_0N@JDBKAFAM@callteamvote?$AA@ 2012c16c     g_cmds.obj
 0002:0001117c       ??_C@_04GHHIKFLG@vote?$AA@ 2012c17c     g_cmds.obj
 0002:00011184       ??_C@_08NNMLCPB@callvote?$AA@ 2012c184     g_cmds.obj
 0002:00011190       ??_C@_05LCFPHLEE@where?$AA@ 2012c190     g_cmds.obj
 0002:00011198       ??_C@_0N@GENKAHPG@forcechanged?$AA@ 2012c198     g_cmds.obj
 0002:000111a8       ??_C@_0L@MIIDNALC@siegeclass?$AA@ 2012c1a8     g_cmds.obj
 0002:000111b4       ??_C@_08MDJNPNKN@duelteam?$AA@ 2012c1b4     g_cmds.obj
 0002:000111c0       ??_C@_0L@FFKCNEMH@followprev?$AA@ 2012c1c0     g_cmds.obj
 0002:000111cc       ??_C@_0L@GBHEMAKD@follownext?$AA@ 2012c1cc     g_cmds.obj
 0002:000111d8       ??_C@_06HNJAFFAK@follow?$AA@ 2012c1d8     g_cmds.obj
 0002:000111e0       ??_C@_09EFOFPGPE@levelshot?$AA@ 2012c1e0     g_cmds.obj
 0002:000111ec       ??_C@_04BJJEOANI@kill?$AA@ 2012c1ec     g_cmds.obj
 0002:000111f4       ??_C@_06IHODGGMJ@noclip?$AA@ 2012c1f4     g_cmds.obj
 0002:000111fc       ??_C@_08HPLPOCJL@notarget?$AA@ 2012c1fc     g_cmds.obj
 0002:00011208       ??_C@_03DKFAMNOH@god?$AA@  2012c208     g_cmds.obj
 0002:0001120c       ??_C@_09DEEIHCPJ@giveother?$AA@ 2012c20c     g_cmds.obj
 0002:00011218       ??_C@_04BMBHJADG@give?$AA@ 2012c218     g_cmds.obj
 0002:00011220       ??_C@_0N@BFFGCGIH@EndCinematic?$AA@ 2012c220     g_cmds.obj
 0002:00011230       ??_C@_09JLHFKJAF@voice_cmd?$AA@ 2012c230     g_cmds.obj
 0002:0001123c       ??_C@_04LBPCFPDD@tell?$AA@ 2012c23c     g_cmds.obj
 0002:00011244       ??_C@_08NBFNGOHN@say_team?$AA@ 2012c244     g_cmds.obj
 0002:00011250       ??_C@_03BANJEMDJ@say?$AA@  2012c250     g_cmds.obj
 0002:00011254       ??_C@_04NHLBEKIN@bot_?$AA@ 2012c254     g_cmds.obj
 0002:0001125c       ??_C@_08DMPOOPJI@generic6?$AA@ 2012c25c     g_combat.obj
 0002:00011268       ??_C@_08BHNDLMFL@generic5?$AA@ 2012c268     g_combat.obj
 0002:00011274       ??_C@_08OMIINBK@generic4?$AA@ 2012c274     g_combat.obj
 0002:00011280       ??_C@_08EBIJBLNN@generic3?$AA@ 2012c280     g_combat.obj
 0002:0001128c       ??_C@_08FIJCCKJM@generic2?$AA@ 2012c28c     g_combat.obj
 0002:00011298       ??_C@_08HDLPHJFP@generic1?$AA@ 2012c298     g_combat.obj
 0002:000112a4       ??_C@_09KBFFALMN@left?5hand?$AA@ 2012c2a4     g_combat.obj
 0002:000112b0       ??_C@_0L@FCEDMIJF@right?5hand?$AA@ 2012c2b0     g_combat.obj
 0002:000112bc       ??_C@_08IGACBHIA@left?5arm?$AA@ 2012c2bc     g_combat.obj
 0002:000112c8       ??_C@_09CJLAAHJC@right?5arm?$AA@ 2012c2c8     g_combat.obj
 0002:000112d4       ??_C@_05HIADHCOO@chest?$AA@ 2012c2d4     g_combat.obj
 0002:000112dc       ??_C@_0BE@NDAPDMBK@front?5left?5shoulder?$AA@ 2012c2dc     g_combat.obj
 0002:000112f0       ??_C@_0BE@MOIKECPN@front?5right?5shouler?$AA@ 2012c2f0     g_combat.obj
 0002:00011304       ??_C@_04JFCNHLLM@back?$AA@ 2012c304     g_combat.obj
 0002:0001130c       ??_C@_0BD@NNOJNAAF@back?5left?5shoulder?$AA@ 2012c30c     g_combat.obj
 0002:00011320       ??_C@_0BE@PCBICGBO@back?5right?5shoulder?$AA@ 2012c320     g_combat.obj
 0002:00011334       ??_C@_05KHICOPKK@waist?$AA@ 2012c334     g_combat.obj
 0002:0001133c       ??_C@_08JHOOJCCC@left?5leg?$AA@ 2012c33c     g_combat.obj
 0002:00011348       ??_C@_09DIFMICDA@right?5leg?$AA@ 2012c348     g_combat.obj
 0002:00011354       ??_C@_09LFLKLKPJ@left?5foot?$AA@ 2012c354     g_combat.obj
 0002:00011360       ??_C@_0L@EGKMHJKB@right?5foot?$AA@ 2012c360     g_combat.obj
 0002:0001136c       ??_C@_0BB@JHNHPELL@MOD_TRIGGER_HURT?$AA@ 2012c36c     g_combat.obj
 0002:00011380       ??_C@_0BB@HMLMKPCA@MOD_TARGET_LASER?$AA@ 2012c380     g_combat.obj
 0002:00011394       ??_C@_0M@NECNIJDJ@MOD_SUICIDE?$AA@ 2012c394     g_combat.obj
 0002:000113a0       ??_C@_0M@JONLOPJN@MOD_FALLING?$AA@ 2012c3a0     g_combat.obj
 0002:000113ac       ??_C@_0N@IMHJNLFF@MOD_TELEFRAG?$AA@ 2012c3ac     g_combat.obj
 0002:000113bc       ??_C@_09GPMGMMBL@MOD_CRUSH?$AA@ 2012c3bc     g_combat.obj
 0002:000113c8       ??_C@_08LEPCJCFO@MOD_LAVA?$AA@ 2012c3c8     g_combat.obj
 0002:000113d4       ??_C@_09KBJPPHD@MOD_SLIME?$AA@ 2012c3d4     g_combat.obj
 0002:000113e0       ??_C@_09MAPLCDLI@MOD_WATER?$AA@ 2012c3e0     g_combat.obj
 0002:000113ec       ??_C@_0L@DCIPPFM@MOD_SENTRY?$AA@ 2012c3ec     g_combat.obj
 0002:000113f8       ??_C@_0P@IJFAOGGM@MOD_FORCE_DARK?$AA@ 2012c3f8     g_combat.obj
 0002:00011408       ??_C@_0N@NCLFMFFC@MOD_CONC_ALT?$AA@ 2012c408     g_combat.obj
 0002:00011418       ??_C@_08PGHOOCPG@MOD_CONC?$AA@ 2012c418     g_combat.obj
 0002:00011424       ??_C@_0M@BLFBGBEL@MOD_VEHICLE?$AA@ 2012c424     g_combat.obj
 0002:00011430       ??_C@_0BE@CLHJHBEF@MOD_DET_PACK_SPLASH?$AA@ 2012c430     g_combat.obj
 0002:00011444       ??_C@_0BG@NHEMKAKE@MOD_TIMED_MINE_SPLASH?$AA@ 2012c444     g_combat.obj
 0002:0001145c       ??_C@_0BF@MDPIBGNN@MOD_TRIP_MINE_SPLASH?$AA@ 2012c45c     g_combat.obj
 0002:00011474       ??_C@_0BD@FDHKPAHB@MOD_THERMAL_SPLASH?$AA@ 2012c474     g_combat.obj
 0002:00011488       ??_C@_0M@KKMIONJC@MOD_THERMAL?$AA@ 2012c488     g_combat.obj
 0002:00011494       ??_C@_0BJ@NPHPHGIN@MOD_ROCKET_HOMING_SPLASH?$AA@ 2012c494     g_combat.obj
 0002:000114b0       ??_C@_0BC@FFNGLINL@MOD_ROCKET_HOMING?$AA@ 2012c4b0     g_combat.obj
 0002:000114c4       ??_C@_0BC@KJDNONBC@MOD_ROCKET_SPLASH?$AA@ 2012c4c4     g_combat.obj
 0002:000114d8       ??_C@_0L@FIOJJPEO@MOD_ROCKET?$AA@ 2012c4d8     g_combat.obj
 0002:000114e4       ??_C@_0BJ@JKADNFCE@MOD_FLECHETTE_ALT_SPLASH?$AA@ 2012c4e4     g_combat.obj
 0002:00011500       ??_C@_0O@PEIJDOBJ@MOD_FLECHETTE?$AA@ 2012c500     g_combat.obj
 0002:00011510       ??_C@_0O@HPMOBCGI@MOD_DEMP2_ALT?$AA@ 2012c510     g_combat.obj
 0002:00011520       ??_C@_09OCDIOHGE@MOD_DEMP2?$AA@ 2012c520     g_combat.obj
 0002:0001152c       ??_C@_0BI@KHCHNPBE@MOD_REPEATER_ALT_SPLASH?$AA@ 2012c52c     g_combat.obj
 0002:00011544       ??_C@_0BB@FIBDPJOH@MOD_REPEATER_ALT?$AA@ 2012c544     g_combat.obj
 0002:00011558       ??_C@_0N@PIOKJJGB@MOD_REPEATER?$AA@ 2012c558     g_combat.obj
 0002:00011568       ??_C@_0O@CKLJOKML@MOD_BOWCASTER?$AA@ 2012c568     g_combat.obj
 0002:00011578       ??_C@_0BF@PBKAACHB@MOD_DISRUPTOR_SNIPER?$AA@ 2012c578     g_combat.obj
 0002:00011590       ??_C@_0BF@EALPPLAJ@MOD_DISRUPTOR_SPLASH?$AA@ 2012c590     g_combat.obj
 0002:000115a8       ??_C@_0O@MDCOMFAN@MOD_DISRUPTOR?$AA@ 2012c5a8     g_combat.obj
 0002:000115b8       ??_C@_0N@KMHHOLAJ@MOD_TURBLAST?$AA@ 2012c5b8     g_combat.obj
 0002:000115c8       ??_C@_0M@LMPLBFJN@MOD_BLASTER?$AA@ 2012c5c8     g_combat.obj
 0002:000115d4       ??_C@_0BF@NMLNMPGC@MOD_BRYAR_PISTOL_ALT?$AA@ 2012c5d4     g_combat.obj
 0002:000115ec       ??_C@_0BB@FAIIIKMO@MOD_BRYAR_PISTOL?$AA@ 2012c5ec     g_combat.obj
 0002:00011600       ??_C@_09COBIGJON@MOD_SABER?$AA@ 2012c600     g_combat.obj
 0002:0001160c       ??_C@_09HBIFPGD@MOD_MELEE?$AA@ 2012c60c     g_combat.obj
 0002:00011618       ??_C@_0P@MMJDLCJM@MOD_STUN_BATON?$AA@ 2012c618     g_combat.obj
 0002:00011628       ??_C@_0M@BKDMLGAO@MOD_UNKNOWN?$AA@ 2012c628     g_combat.obj
 0002:00011638       __real@bfd3333333333333    2012c638     g_combat.obj
 0002:00011640       __real@bfd999999999999a    2012c640     g_combat.obj
 0002:00011648       __real@3fd54fdf3b645a1d    2012c648     g_combat.obj
 0002:00011650       __real@3fe54fdf3b645a1d    2012c650     g_combat.obj
 0002:00011658       __real@bfe54fdf3b645a1d    2012c658     g_combat.obj
 0002:00011660       __real@bfd54fdf3b645a1d    2012c660     g_combat.obj
 0002:00011668       ??_C@_0CF@FGKOJGOE@sound?1chars?1sentry?1misc?1sentry_e@ 2012c668     g_combat.obj
 0002:00011690       ??_C@_0CD@GGBNKFJB@sound?1chars?1mark1?1misc?1mark1_exp@ 2012c690     g_combat.obj
 0002:000116b4       ??_C@_0CO@IKNMFJIB@sound?1chars?1interrogator?1misc?1in@ 2012c6b4     g_combat.obj
 0002:000116e4       ??_C@_0CD@ELMECENL@sound?1chars?1mark2?1misc?1mark2_exp@ 2012c6e4     g_combat.obj
 0002:00011708       ??_C@_0BA@LPFGBOPK@env?1med_explode?$AA@ 2012c708     g_combat.obj
 0002:00011718       ??_C@_0CC@JIJANKFO@sound?1chars?1gonk?1misc?1death?$CFd?4wa@ 2012c718     g_combat.obj
 0002:0001173c       ??_C@_0BL@GGKGCEDF@explosions?1droidexplosion1?$AA@ 2012c73c     g_combat.obj
 0002:00011758       ??_C@_0BL@CINMKFOA@explosions?1probeexplosion1?$AA@ 2012c758     g_combat.obj
 0002:00011774       ??_C@_0BO@GMFJMHOB@sound?1chars?1mouse?1misc?1death1?$AA@ 2012c774     g_combat.obj
 0002:00011794       ??_C@_0BC@INALMPEJ@env?1small_explode?$AA@ 2012c794     g_combat.obj
 0002:000117a8       ??_C@_09PCJIFGLC@gloatTime?$AA@ 2012c7a8     g_combat.obj
 0002:000117b4       ??_C@_0N@LPAPAPOG@vehicle_proj?$AA@ 2012c7b4     g_combat.obj
 0002:000117c8       __real@3fb47ae147ae147b    2012c7c8     g_combat.obj
 0002:000117d0       ??_C@_06LHDKCOKJ@rtibia?$AA@ 2012c7d0     g_combat.obj
 0002:000117d8       ??_C@_06IANLMJDK@ltibia?$AA@ 2012c7d8     g_combat.obj
 0002:000117e0       ??_C@_05GBNHBGPF@rhand?$AA@ 2012c7e0     g_combat.obj
 0002:000117e8       ??_C@_07LAEDECAM@rradius?$AA@ 2012c7e8     g_combat.obj
 0002:000117f0       __real@3fb33333            2012c7f0     g_combat.obj
 0002:000117f4       __real@3da3d70a            2012c7f4     g_combat.obj
 0002:000117f8       __real@3f99999a            2012c7f8     g_combat.obj
 0002:000117fc       __real@3fa66666            2012c7fc     g_combat.obj
 0002:00011800       __real@3db851ec            2012c800     g_combat.obj
 0002:00011808       __real@3ff3333340000000    2012c808     g_combat.obj
 0002:00011810       __real@40c00000            2012c810     g_combat.obj
 0002:00011814       __real@c0c00000            2012c814     g_combat.obj
 0002:00011818       ??_C@_0L@MLMKFLFJ@playerlimb?$AA@ 2012c818     g_combat.obj
 0002:00011824       ??_C@_0N@HLEFBOH@?$CFs_cap_r_leg?$AA@ 2012c824     g_combat.obj
 0002:00011834       ??_C@_05KHMEBGJM@r_leg?$AA@ 2012c834     g_combat.obj
 0002:0001183c       ??_C@_0N@DOGIDCAM@?$CFs_cap_l_leg?$AA@ 2012c83c     g_combat.obj
 0002:0001184c       ??_C@_04IGFCMOIC@hips?$AA@ 2012c84c     g_combat.obj
 0002:00011854       ??_C@_05JOBIHFHH@l_leg?$AA@ 2012c854     g_combat.obj
 0002:0001185c       ??_C@_0O@EKMLGHDB@?$CFs_cap_r_hand?$AA@ 2012c85c     g_combat.obj
 0002:0001186c       ??_C@_0N@BGFINEEF@?$CFs_cap_r_arm?$AA@ 2012c86c     g_combat.obj
 0002:0001187c       ??_C@_0N@CPIELHKO@?$CFs_cap_l_arm?$AA@ 2012c87c     g_combat.obj
 0002:0001188c       ??_C@_0P@HDEGEHBA@hips_cap_torso?$AA@ 2012c88c     g_combat.obj
 0002:0001189c       ??_C@_05LAAIDIGB@torso?$AA@ 2012c89c     g_combat.obj
 0002:000118a4       ??_C@_0P@PJCLBOLM@torso_cap_head?$AA@ 2012c8a4     g_combat.obj
 0002:000118b8       __real@bfb999999999999a    2012c8b8     g_combat.obj
 0002:000118c0       ??_C@_0BA@CBMPJHFP@?$CKtorso_cap_head?$AA@ 2012c8c0     g_combat.obj
 0002:000118d0       ??_C@_0BC@NDOFIOKK@?$CKl_arm_cap_l_hand?$AA@ 2012c8d0     g_combat.obj
 0002:000118e4       ??_C@_0BC@LCHBAINC@?$CKr_arm_cap_r_hand?$AA@ 2012c8e4     g_combat.obj
 0002:000118f8       ??_C@_0BB@EDANKLOL@?$CKtorso_cap_l_arm?$AA@ 2012c8f8     g_combat.obj
 0002:0001190c       ??_C@_0BB@HKNBMIAA@?$CKtorso_cap_r_arm?$AA@ 2012c90c     g_combat.obj
 0002:00011920       ??_C@_0BA@KLKCMOPD@?$CKhips_cap_torso?$AA@ 2012c920     g_combat.obj
 0002:00011930       ??_C@_0BA@IFLCIDOF@?$CKhips_cap_l_leg?$AA@ 2012c930     g_combat.obj
 0002:00011940       ??_C@_0BA@LMGOOAAO@?$CKhips_cap_r_leg?$AA@ 2012c940     g_combat.obj
 0002:00011950       ??_C@_02GMCDBJKD@w_?$AA@   2012c950     g_combat.obj
 0002:00011954       __real@c0000000            2012c954     g_combat.obj
 0002:00011958       __real@c1200000            2012c958     g_combat.obj
 0002:0001195c       ??_C@_0BD@EAFFOMNC@torso_antenna_base?$AA@ 2012c95c     g_combat.obj
 0002:00011970       ??_C@_0O@DFENFDEF@torso_antenna?$AA@ 2012c970     g_combat.obj
 0002:00011980       ??_C@_0M@LAGOICHM@torso_front?$AA@ 2012c980     g_combat.obj
 0002:0001198c       ??_C@_0N@CKKOJGGC@?$CKhips_r_knee?$AA@ 2012c98c     g_combat.obj
 0002:0001199c       ??_C@_0N@BNEPHBPB@?$CKhips_l_knee?$AA@ 2012c99c     g_combat.obj
 0002:000119ac       ??_C@_0CK@FNJIBBCL@Duel?5Dismemberment?3?5?$CFs?5dismember@ 2012c9ac     g_combat.obj
 0002:000119d8       __real@3feb333333333333    2012c9d8     g_combat.obj
 0002:000119e0       ??_C@_0P@GPCBJKDH@DEMP2_StunTime?$AA@ 2012c9e0     g_combat.obj
 0002:000119f0       __real@bfd99999a0000000    2012c9f0     g_combat.obj
 0002:000119f8       ??_C@_0CO@OPIBPCIK@killer?5saber?5style?3?5?$CFd?0?5killer?5s@ 2012c9f8     g_combat.obj
 0002:00011a28       ??_C@_0CK@MEICJNLI@killer?3?5?$CFs?0?5hits?5on?5enemy?5?$CFd?0?5he@ 2012ca28     g_combat.obj
 0002:00011a54       ??_C@_0BO@NONEOOBP@victim?3?5?$CFs?0?5hits?5on?5enemy?5?$CFd?6?$AA@ 2012ca54     g_combat.obj
 0002:00011a74       ??_C@_0P@LFIHIEFJ@Kill?5Time?3?5?$CFd?6?$AA@ 2012ca74     g_combat.obj
 0002:00011a84       ??_C@_0BE@GLFPHGFP@Duel?5Kill?5Details?3?6?$AA@ 2012ca84     g_combat.obj
 0002:00011a98       ??_C@_0CE@HGPMHBOH@Kill?3?5?$CFi?5?$CFi?5?$CFi?3?5?$CFs?5killed?5?$CFs?5by?5@ 2012ca98     g_combat.obj
 0002:00011abc       ??_C@_0P@BDPEDPJP@?$DMbad?5obituary?$DO?$AA@ 2012cabc     g_combat.obj
 0002:00011acc       ??_C@_07GECLLGBL@?$DMworld?$DO?$AA@ 2012cacc     g_combat.obj
 0002:00011ad4       ??_C@_0N@HGAIBNNB@?$DMnon?9client?$DO?$AA@ 2012cad4     g_combat.obj
 0002:00011ae4       ??_C@_0BE@JKDIMAEB@chunks?1r2d2head_veh?$AA@ 2012cae4     g_combat.obj
 0002:00011af8       ??_C@_0BE@OOKACJMO@chunks?1r5d2head_veh?$AA@ 2012caf8     g_combat.obj
 0002:00011b0c       ??_C@_0L@FOHODDJF@0x?$CF08x?7?$CFs?6?$AA@ 2012cb0c     g_crash.obj
 0002:00011b18       ??_C@_0BC@EOODALEL@Unknown?5exception?$AA@ 2012cb18     g_crash.obj
 0002:00011b2c       ??_C@_0P@EFDAIKIF@Invalid?5handle?$AA@ 2012cb2c     g_crash.obj
 0002:00011b3c       ??_C@_0BE@JJMBEGLL@Invalid?5disposition?$AA@ 2012cb3c     g_crash.obj
 0002:00011b50       ??_C@_0P@MGPMFBBC@Stack?5overflow?$AA@ 2012cb50     g_crash.obj
 0002:00011b60       ??_C@_0BJ@HGNBDCNI@Noncontinuable?5exception?$AA@ 2012cb60     g_crash.obj
 0002:00011b7c       ??_C@_0BE@MLNNHANJ@Illegal?5instruction?$AA@ 2012cb7c     g_crash.obj
 0002:00011b90       ??_C@_0O@MGKDBHDE@In?5page?5error?$AA@ 2012cb90     g_crash.obj
 0002:00011ba0       ??_C@_0BH@KPGNPNII@Privileged?5instruction?$AA@ 2012cba0     g_crash.obj
 0002:00011bb8       ??_C@_0BB@IPOJFFKA@Integer?5overflow?$AA@ 2012cbb8     g_crash.obj
 0002:00011bcc       ??_C@_0BH@NHLLGLIN@Integer?5divide?5by?5zero?$AA@ 2012cbcc     g_crash.obj
 0002:00011be4       ??_C@_0BA@MKOPBGLC@Float?5underflow?$AA@ 2012cbe4     g_crash.obj
 0002:00011bf4       ??_C@_0BC@CFKBGEGC@Float?5stack?5check?$AA@ 2012cbf4     g_crash.obj
 0002:00011c08       ??_C@_0P@MPCBPAKO@Float?5overflow?$AA@ 2012cc08     g_crash.obj
 0002:00011c18       ??_C@_0BI@NCCJNINI@Float?5invalid?5operation?$AA@ 2012cc18     g_crash.obj
 0002:00011c30       ??_C@_0BF@BGPMFELN@Float?5inexact?5result?$AA@ 2012cc30     g_crash.obj
 0002:00011c48       ??_C@_0BF@JGBFFBDC@Float?5divide?5by?5zero?$AA@ 2012cc48     g_crash.obj
 0002:00011c60       ??_C@_0BH@BHMNNGEN@Float?5denormal?5operand?$AA@ 2012cc60     g_crash.obj
 0002:00011c78       ??_C@_0BG@PAGJAHHI@Array?5bounds?5exceeded?$AA@ 2012cc78     g_crash.obj
 0002:00011c90       ??_C@_0BB@KFJCFCM@Access?5violation?$AA@ 2012cc90     g_crash.obj
 0002:00011ca4       ??_C@_0L@IJAJFAIH@Guard?5page?$AA@ 2012cca4     g_crash.obj
 0002:00011cb0       ??_C@_0M@HBBAMPBG@Single?5step?$AA@ 2012ccb0     g_crash.obj
 0002:00011cbc       ??_C@_0L@DEJAMIEF@Breakpoint?$AA@ 2012ccbc     g_crash.obj
 0002:00011cc8       ??_C@_0BG@GMGPAKFC@Datatype?5misalignment?$AA@ 2012ccc8     g_crash.obj
 0002:00011ce0       ??_C@_0BL@HMAMKACE@Exception?5Address?3?50x?$CF08x?6?$AA@ 2012cce0     g_crash.obj
 0002:00011cfc       ??_C@_0BI@JHADFJIA@Exception?3?5?$CFs?5?$CI0x?$CF08x?$CJ?6?$AA@ 2012ccfc     g_crash.obj
 0002:00011d14       ??_C@_0BC@JIDKCFCN@DLL?5Information?3?6?$AA@ 2012cd14     g_crash.obj
 0002:00011d28       ??_C@_0BC@IFJKEEGH@?$CI?$CFd?$CJ?5?$CFs?5?$FL0x?$CF08x?$FN?6?$AA@ 2012cd28     g_crash.obj
 0002:00011d3c       ??_C@_0BL@KFBJGJCF@?$CI?$CFd?$CJ?5?$CFs?$CI?$CFs?$CL?$CF?$CD0x?$CJ?5?$FL0x?$CF08x?$FN?6?$AA@ 2012cd3c     g_crash.obj
 0002:00011d58       ??_C@_07NBCGADJA@Unknown?$AA@ 2012cd58     g_crash.obj
 0002:00011d60       ??_C@_0M@LMPCPJPK@Backtrace?3?6?$AA@ 2012cd60     g_crash.obj
 0002:00011d6c       ??_C@_0BJ@LJHNKIEP@Attempting?5to?5clean?5up?4?6?$AA@ 2012cd6c     g_crash.obj
 0002:00011d88       ??_C@_0CK@NCILKBBF@?98?$DM?9?9?9?9?9?9?9?9?9?9?9?9?9?9?9?9?9?9?9?9?9?9?9?9?9?9?9?9?9@ 2012cd88     g_crash.obj
 0002:00011db4       ??_C@_08JJJGBFEP@Map?3?5?$CFs?6?$AA@ 2012cdb4     g_crash.obj
 0002:00011dc0       ??_C@_0P@MIGEFII@Build?5Time?3?5?$CFs?$AA@ 2012cdc0     g_crash.obj
 0002:00011dd0       ??_C@_08KPJLBGN@17?301?326?$AA@ 2012cdd0     g_crash.obj
 0002:00011ddc       ??_C@_0P@IBOFMFFB@Build?5Date?3?5?$CFs?$AA@ 2012cddc     g_crash.obj
 0002:00011dec       ??_C@_0M@DCOOFPAG@Jul?5?56?52007?$AA@ 2012cdec     g_crash.obj
 0002:00011df8       ??_C@_0BD@IINNGPCI@Version?3?5?$CFs?5Win32?6?$AA@ 2012cdf8     g_crash.obj
 0002:00011e0c       ??_C@_0CJ@NAGLDNBO@?9?9?9?9?9?9?9?9?9?9?9?9?9?9?9?9?9?9?9?9?9?9?9?9?9?9?9?9?9?9?9?9@ 2012ce0c     g_crash.obj
 0002:00011e38       ??_C@_0CJ@IHNPADG@?5?5?5?5Please?5forward?5to?5the?5OJP?5te@ 2012ce38     g_crash.obj
 0002:00011e64       ??_C@_0CJ@EMPEBNDK@?98?$DM?9?9?9?9?9?9?9?5Crash?5Information?5?9?9?9@ 2012ce64     g_crash.obj
 0002:00011e90       ??_C@_05BMGBEOOC@?$CFs?2?$CFs?$AA@ 2012ce90     g_crash.obj
 0002:00011e98       ??_C@_07FMAMAFJE@fs_game?$AA@ 2012ce98     g_crash.obj
 0002:00011ea0       ??_C@_0M@DGDBFJN@fs_basepath?$AA@ 2012cea0     g_crash.obj
 0002:00011eac       ??_C@_0BP@MBMPKBCB@imagehlp?4dll?5missing?5exports?4?6?$AA@ 2012ceac     g_crash.obj
 0002:00011ecc       ??_C@_0BH@PMEMHADK@SymFunctionTableAccess?$AA@ 2012cecc     g_crash.obj
 0002:00011ee4       ??_C@_0BE@HDOJAMIL@SymEnumerateModules?$AA@ 2012cee4     g_crash.obj
 0002:00011ef8       ??_C@_0BC@BDHGAJGO@SymGetSymFromAddr?$AA@ 2012cef8     g_crash.obj
 0002:00011f0c       ??_C@_09OJFIDCEK@StackWalk?$AA@ 2012cf0c     g_crash.obj
 0002:00011f18       ??_C@_0BB@KAOAIDAF@SymGetModuleBase?$AA@ 2012cf18     g_crash.obj
 0002:00011f2c       ??_C@_0L@GDMHENGB@SymCleanup?$AA@ 2012cf2c     g_crash.obj
 0002:00011f38       ??_C@_0O@MCMFENKA@SymInitialize?$AA@ 2012cf38     g_crash.obj
 0002:00011f48       ??_C@_0BK@CNMKDCG@imagehlp?4dll?5unavailable?6?$AA@ 2012cf48     g_crash.obj
 0002:00011f64       ??_C@_0N@KBGMOMJO@IMAGEHLP?4DLL?$AA@ 2012cf64     g_crash.obj
 0002:00011f74       ??_C@_0DF@NJCCNLKD@LoadDMSSongData?5Error?3?5?5Too?5many@ 2012cf74     g_dynmusic.obj
 0002:00011fac       ??_C@_06LCKMGKAD@time?$CFi?$AA@ 2012cfac     g_dynmusic.obj
 0002:00011fb4       ??_C@_08FDHDFJOB@nextfile?$AA@ 2012cfb4     g_dynmusic.obj
 0002:00011fc0       ??_C@_04MKNBDEPB@exit?$AA@ 2012cfc0     g_dynmusic.obj
 0002:00011fc8       ??_C@_0BA@EEMABGD@music?1?$CFs?1?$CFs?4mp3?$AA@ 2012cfc8     g_dynmusic.obj
 0002:00011fd8       ??_C@_0EB@FNNKCPGF@LoadDMSSongData?5Error?3?5Couldn?8t?5@ 2012cfd8     g_dynmusic.obj
 0002:0001201c       ??_C@_0L@NCPNFLDG@musicfiles?$AA@ 2012d01c     g_dynmusic.obj
 0002:00012028       ??_C@_0DJ@LFIOMEID@LoadLengthforSong?5Warning?3?5Could@ 2012d028     g_dynmusic.obj
 0002:00012068       ??_C@_0FI@KOIJGIEE@LoadDMSSongLengths?5Error?3?5?5Could@ 2012d068     g_dynmusic.obj
 0002:000120c0       ??_C@_0N@MLMMMHDH@musiclengths?$AA@ 2012d0c0     g_dynmusic.obj
 0002:000120d0       ??_C@_0CM@BCFGEOCL@LoadDynamicMusic?$CI?$CJ?5Error?3?5dms?4da@ 2012d0d0     g_dynmusic.obj
 0002:000120fc       ??_C@_0DK@MBLNLEFK@LoadDynamicMusic?$CI?$CJ?5Error?3?5Couldn@ 2012d0fc     g_dynmusic.obj
 0002:00012138       ??_C@_0BJ@JHGOHAHD@ext_data?1musiclength?4dat?$AA@ 2012d138     g_dynmusic.obj
 0002:00012154       ??_C@_04OLMPDHKG@boss?$AA@ 2012d154     g_dynmusic.obj
 0002:0001215c       ??_C@_06DDLLCOJG@action?$AA@ 2012d15c     g_dynmusic.obj
 0002:00012164       ??_C@_07KGALEDAB@explore?$AA@ 2012d164     g_dynmusic.obj
 0002:0001216c       ??_C@_04DLGLELNB@uses?$AA@ 2012d16c     g_dynmusic.obj
 0002:00012178       ??_C@_0EF@HPDGHBDD@LoadDynamicMusicGroup?5Error?3?5?5Co@ 2012d178     g_dynmusic.obj
 0002:000121c0       ??_C@_0L@FLNIADEL@levelmusic?$AA@ 2012d1c0     g_dynmusic.obj
 0002:000121cc       ??_C@_07KMNEBLH@mapname?$AA@ 2012d1cc     g_dynmusic.obj
 0002:000121d4       ??_C@_0BB@ELDPNKAP@ext_data?1dms?4dat?$AA@ 2012d1d4     g_dynmusic.obj
 0002:000121e8       ??_C@_0M@OJHLJIJA@misc_turret?$AA@ 2012d1e8     g_dynmusic.obj
 0002:000121f4       ??_C@_03PFHIMGCB@PAS?$AA@  2012d1f4     g_dynmusic.obj
 0002:000121f8       ??_C@_0BG@HLDOPPDE@music?1death_music?4mp3?$AA@ 2012d1f8     g_dynmusic.obj
 0002:00012210       ??_C@_0BN@JOMLALAO@ExPhys?5object?5in?5solid?5?$CI?$CFi?$CJ?6?$AA@ 2012d210     g_exphysics.obj
 0002:00012230       ??_C@_08IJOKBEEC@DM_DEATH?$AA@ 2012d230     g_ICARUScb.obj
 0002:0001223c       ??_C@_07PBCGJPCG@DM_BOSS?$AA@ 2012d23c     g_ICARUScb.obj
 0002:00012244       ??_C@_09HNPMOFKM@DM_ACTION?$AA@ 2012d244     g_ICARUScb.obj
 0002:00012250       ??_C@_0L@PFMNPJNK@DM_EXPLORE?$AA@ 2012d250     g_ICARUScb.obj
 0002:0001225c       ??_C@_0L@FCOMFILP@DM_SILENCE?$AA@ 2012d25c     g_ICARUScb.obj
 0002:00012268       ??_C@_07GKBKBJNF@DM_AUTO?$AA@ 2012d268     g_ICARUScb.obj
 0002:00012270       ??_C@_06HJLLILNI@FOLLOW?$AA@ 2012d270     g_ICARUScb.obj
 0002:00012278       ??_C@_05HOMNNBLE@SHAKE?$AA@ 2012d278     g_ICARUScb.obj
 0002:00012280       ??_C@_07MMIDIINJ@DISABLE?$AA@ 2012d280     g_ICARUScb.obj
 0002:00012288       ??_C@_04LGBIGMFG@ZOOM?$AA@ 2012d288     g_ICARUScb.obj
 0002:00012290       ??_C@_04DHFLAEAP@FADE?$AA@ 2012d290     g_ICARUScb.obj
 0002:00012298       ??_C@_03KBEKKDN@PAN?$AA@   2012d298     g_ICARUScb.obj
 0002:0001229c       ??_C@_04LPPGDFDD@MOVE?$AA@ 2012d29c     g_ICARUScb.obj
 0002:000122a4       ??_C@_06OBPCDPOI@ENABLE?$AA@ 2012d2a4     g_ICARUScb.obj
 0002:000122ac       ??_C@_0BC@DCPJDDFH@SET_FORCE_PROTECT?$AA@ 2012d2ac     g_ICARUScb.obj
 0002:000122c0       ??_C@_0BH@EHCNIOBE@SET_RENDER_CULL_RADIUS?$AA@ 2012d2c0     g_ICARUScb.obj
 0002:000122d8       ??_C@_0BA@MGPMGCMK@SET_WINTER_GEAR?$AA@ 2012d2d8     g_ICARUScb.obj
 0002:000122e8       ??_C@_0P@FFJDPECA@SET_FORCE_PULL?$AA@ 2012d2e8     g_ICARUScb.obj
 0002:000122f8       ??_C@_0BA@HDLKEJB@SET_NO_PVS_CULL?$AA@ 2012d2f8     g_ICARUScb.obj
 0002:00012308       ??_C@_07NKNJIKBO@SET_HUD?$AA@ 2012d308     g_ICARUScb.obj
 0002:00012310       ??_C@_0BI@LGFLFAFG@SET_CLEAN_DAMAGING_ENTS?$AA@ 2012d310     g_ICARUScb.obj
 0002:00012328       ??_C@_0BC@NILGFJAB@SET_USE_SUBTITLES?$AA@ 2012d328     g_ICARUScb.obj
 0002:0001233c       ??_C@_0BA@GMNGKJBB@SET_MUSIC_STATE?$AA@ 2012d33c     g_ICARUScb.obj
 0002:0001234c       ??_C@_0BC@MGOKPFBI@SET_NO_ACROBATICS?$AA@ 2012d34c     g_ICARUScb.obj
 0002:00012360       ??_C@_0BC@HGGKOEIM@SET_DISMEMBERABLE?$AA@ 2012d360     g_ICARUScb.obj
 0002:00012374       ??_C@_0BD@IEJPBIBL@SET_NO_FALLTODEATH?$AA@ 2012d374     g_ICARUScb.obj
 0002:00012388       ??_C@_0N@MCHHKJNC@SET_NO_FORCE?$AA@ 2012d388     g_ICARUScb.obj
 0002:00012398       ??_C@_0BJ@DHGOHLBA@SET_CINEMATIC_SKIPSCRIPT?$AA@ 2012d398     g_ICARUScb.obj
 0002:000123b4       ??_C@_0O@OBAMDIHH@SET_MORELIGHT?$AA@ 2012d3b4     g_ICARUScb.obj
 0002:000123c4       ??_C@_0BD@BKEIEJGK@SET_USE_CP_NEAREST?$AA@ 2012d3c4     g_ICARUScb.obj
 0002:000123d8       ??_C@_0BE@MIOHBDBD@SET_ICARUS_UNFREEZE?$AA@ 2012d3d8     g_ICARUScb.obj
 0002:000123ec       ??_C@_0BC@MDOENGEI@SET_ICARUS_FREEZE?$AA@ 2012d3ec     g_ICARUScb.obj
 0002:00012400       ??_C@_0O@BFAJHAMD@SET_LOOPSOUND?$AA@ 2012d400     g_ICARUScb.obj
 0002:00012410       ??_C@_0BH@EFNEDILD@SET_END_SCREENDISSOLVE?$AA@ 2012d410     g_ICARUScb.obj
 0002:00012428       ??_C@_0BK@JDOABANO@SET_MISSION_STATUS_SCREEN?$AA@ 2012d428     g_ICARUScb.obj
 0002:00012444       ??_C@_0BI@DOADDMCM@SET_FUNC_USABLE_VISIBLE?$AA@ 2012d444     g_ICARUScb.obj
 0002:0001245c       ??_C@_0N@IHFFKFDD@SET_INACTIVE?$AA@ 2012d45c     g_ICARUScb.obj
 0002:0001246c       ??_C@_0BA@KBIEGLIO@SET_SAFE_REMOVE?$AA@ 2012d46c     g_ICARUScb.obj
 0002:0001247c       ??_C@_0BA@MOAIPFOO@SET_FIRE_WEAPON?$AA@ 2012d47c     g_ICARUScb.obj
 0002:0001248c       ??_C@_0O@BHFJOKNM@SET_NO_GROUPS?$AA@ 2012d48c     g_ICARUScb.obj
 0002:0001249c       ??_C@_0N@DIODOBNH@SET_SHIELDED?$AA@ 2012d49c     g_ICARUScb.obj
 0002:000124ac       ??_C@_0BL@NDLGHCA@SET_DMG_BY_HEAVY_WEAP_ONLY?$AA@ 2012d4ac     g_ICARUScb.obj
 0002:000124c8       ??_C@_0BI@BCAGJEIC@SET_ADJUST_AREA_PORTALS?$AA@ 2012d4c8     g_ICARUScb.obj
 0002:000124e0       ??_C@_0BA@PLJOBBEE@SET_SABERACTIVE?$AA@ 2012d4e0     g_ICARUScb.obj
 0002:000124f0       ??_C@_0BA@BGEBCBDF@SET_WATCHTARGET?$AA@ 2012d4f0     g_ICARUScb.obj
 0002:00012500       ??_C@_0P@MEGONLMA@SET_VIEWENTITY?$AA@ 2012d500     g_ICARUScb.obj
 0002:00012510       ??_C@_0BC@NPKKKDAJ@SET_SABER_OFFENSE?$AA@ 2012d510     g_ICARUScb.obj
 0002:00012524       ??_C@_0BC@LDCIKFMC@SET_SABER_DEFENSE?$AA@ 2012d524     g_ICARUScb.obj
 0002:00012538       ??_C@_0BA@JLKHIGMF@SET_SABER_THROW?$AA@ 2012d538     g_ICARUScb.obj
 0002:00012548       ??_C@_0BG@HFDGIINE@SET_FORCE_SIGHT_LEVEL?$AA@ 2012d548     g_ICARUScb.obj
 0002:00012560       ??_C@_0BG@HHHPIGMP@SET_FORCE_DRAIN_LEVEL?$AA@ 2012d560     g_ICARUScb.obj
 0002:00012578       ??_C@_0BF@JNOBLEFO@SET_FORCE_TEAM_FORCE?$AA@ 2012d578     g_ICARUScb.obj
 0002:00012590       ??_C@_0BE@HMAABLHJ@SET_FORCE_TEAM_HEAL?$AA@ 2012d590     g_ICARUScb.obj
 0002:000125a4       ??_C@_0BH@LJNJPKE@SET_FORCE_ABSORB_LEVEL?$AA@ 2012d5a4     g_ICARUScb.obj
 0002:000125bc       ??_C@_0BI@NCGEAJOG@SET_FORCE_PROTECT_LEVEL?$AA@ 2012d5bc     g_ICARUScb.obj
 0002:000125d4       ??_C@_0BF@GNEGNHDD@SET_FORCE_RAGE_LEVEL?$AA@ 2012d5d4     g_ICARUScb.obj
 0002:000125ec       ??_C@_0BK@KLPNFNFG@SET_FORCE_LIGHTNING_LEVEL?$AA@ 2012d5ec     g_ICARUScb.obj
 0002:00012608       ??_C@_0BF@ICOHGBIM@SET_FORCE_GRIP_LEVEL?$AA@ 2012d608     g_ICARUScb.obj
 0002:00012620       ??_C@_0BK@DDHFCOGI@SET_FORCE_MINDTRICK_LEVEL?$AA@ 2012d620     g_ICARUScb.obj
 0002:0001263c       ??_C@_0BF@IGHFMKJG@SET_FORCE_PULL_LEVEL?$AA@ 2012d63c     g_ICARUScb.obj
 0002:00012654       ??_C@_0BF@HBEGEJMM@SET_FORCE_PUSH_LEVEL?$AA@ 2012d654     g_ICARUScb.obj
 0002:0001266c       ??_C@_0BG@CJIMHENL@SET_FORCE_SPEED_LEVEL?$AA@ 2012d66c     g_ICARUScb.obj
 0002:00012684       ??_C@_0BF@PGEDGGPO@SET_FORCE_JUMP_LEVEL?$AA@ 2012d684     g_ICARUScb.obj
 0002:0001269c       ??_C@_0BF@EEKBIJKH@SET_FORCE_HEAL_LEVEL?$AA@ 2012d69c     g_ICARUScb.obj
 0002:000126b4       ??_C@_0N@BGCLHPNH@SET_FULLNAME?$AA@ 2012d6b4     g_ICARUScb.obj
 0002:000126c4       ??_C@_0BG@DJCCHFHM@SET_MISSIONSTATUSTIME?$AA@ 2012d6c4     g_ICARUScb.obj
 0002:000126dc       ??_C@_09LIMLPIPD@SET_SKILL?$AA@ 2012d6dc     g_ICARUScb.obj
 0002:000126e8       ??_C@_0BD@PCOGAAAD@SET_CLOSINGCREDITS?$AA@ 2012d6e8     g_ICARUScb.obj
 0002:000126fc       ??_C@_09NNKJAGJE@SET_WIDTH?$AA@ 2012d6fc     g_ICARUScb.obj
 0002:00012708       ??_C@_0BG@DKMAIIEP@SET_MISSIONSTATUSTEXT?$AA@ 2012d708     g_ICARUScb.obj
 0002:00012720       ??_C@_0BH@BMEJJMGB@SET_OBJECTIVE_CLEARALL?$AA@ 2012d720     g_ICARUScb.obj
 0002:00012738       ??_C@_09JMMNCAJE@SET_SCALE?$AA@ 2012d738     g_ICARUScb.obj
 0002:00012744       ??_C@_0P@LKFMAHDN@SET_FOLLOWDIST?$AA@ 2012d744     g_ICARUScb.obj
 0002:00012754       ??_C@_0BC@DCANMCAF@SET_TACTICAL_HIDE?$AA@ 2012d754     g_ICARUScb.obj
 0002:00012768       ??_C@_0BC@OJCAJMMB@SET_TACTICAL_SHOW?$AA@ 2012d768     g_ICARUScb.obj
 0002:0001277c       ??_C@_0BC@DFBGHFNC@SET_MISSIONFAILED?$AA@ 2012d77c     g_ICARUScb.obj
 0002:00012790       ??_C@_0BI@CODCHJAL@SET_OBJECTIVE_LIGHTSIDE?$AA@ 2012d790     g_ICARUScb.obj
 0002:000127a8       ??_C@_0BF@FAJJLEFA@SET_OBJECTIVE_FAILED?$AA@ 2012d7a8     g_ICARUScb.obj
 0002:000127c0       ??_C@_0BI@PJLHHILM@SET_OBJECTIVE_SUCCEEDED?$AA@ 2012d7c0     g_ICARUScb.obj
 0002:000127d8       ??_C@_0BD@GJECNCAL@SET_OBJECTIVE_HIDE?$AA@ 2012d7d8     g_ICARUScb.obj
 0002:000127ec       ??_C@_0BD@LCGPIMMP@SET_OBJECTIVE_SHOW?$AA@ 2012d7ec     g_ICARUScb.obj
 0002:00012800       ??_C@_0BA@ELNEOIBH@SET_MENU_SCREEN?$AA@ 2012d800     g_ICARUScb.obj
 0002:00012810       ??_C@_0N@OOOKFJHG@SET_LOADGAME?$AA@ 2012d810     g_ICARUScb.obj
 0002:00012820       ??_C@_0BC@FHGHPDDH@SET_REMOVE_TARGET?$AA@ 2012d820     g_ICARUScb.obj
 0002:00012834       ??_C@_0BD@IBNCHPF@SET_VIDEO_FADE_OUT?$AA@ 2012d834     g_ICARUScb.obj
 0002:00012848       ??_C@_0BC@LBKHPKII@SET_VIDEO_FADE_IN?$AA@ 2012d848     g_ICARUScb.obj
 0002:0001285c       ??_C@_0P@FJMCEAMM@SET_VIDEO_PLAY?$AA@ 2012d85c     g_ICARUScb.obj
 0002:0001286c       ??_C@_0BB@NEEACLOJ@SET_SHOT_SPACING?$AA@ 2012d86c     g_ICARUScb.obj
 0002:00012880       ??_C@_09NFMNPILI@SET_COUNT?$AA@ 2012d880     g_ICARUScb.obj
 0002:0001288c       ??_C@_08BBBBCPHB@SET_WAIT?$AA@ 2012d88c     g_ICARUScb.obj
 0002:00012898       ??_C@_0BC@HJCIKNDI@SET_DEFEND_TARGET?$AA@ 2012d898     g_ICARUScb.obj
 0002:000128ac       ??_C@_0L@MOMGPKCF@SET_PARM16?$AA@ 2012d8ac     g_ICARUScb.obj
 0002:000128b8       ??_C@_0L@OFOLKJOG@SET_PARM15?$AA@ 2012d8b8     g_ICARUScb.obj
 0002:000128c4       ??_C@_0L@PMPAJIKH@SET_PARM14?$AA@ 2012d8c4     g_ICARUScb.obj
 0002:000128d0       ??_C@_0L@LDLBAOGA@SET_PARM13?$AA@ 2012d8d0     g_ICARUScb.obj
 0002:000128dc       ??_C@_0L@KKKKDPCB@SET_PARM12?$AA@ 2012d8dc     g_ICARUScb.obj
 0002:000128e8       ??_C@_0L@IBIHGMOC@SET_PARM11?$AA@ 2012d8e8     g_ICARUScb.obj
 0002:000128f4       ??_C@_0L@JIJMFNKD@SET_PARM10?$AA@ 2012d8f4     g_ICARUScb.obj
 0002:00012900       ??_C@_09KAHNKFOG@SET_PARM9?$AA@ 2012d900     g_ICARUScb.obj
 0002:0001290c       ??_C@_09LJGGJEKH@SET_PARM8?$AA@ 2012d90c     g_ICARUScb.obj
 0002:00012918       ??_C@_09DOPOIIGI@SET_PARM7?$AA@ 2012d918     g_ICARUScb.obj
 0002:00012924       ??_C@_09CHOFLJCJ@SET_PARM6?$AA@ 2012d924     g_ICARUScb.obj
 0002:00012930       ??_C@_09MMIOKOK@SET_PARM5?$AA@ 2012d930     g_ICARUScb.obj
 0002:0001293c       ??_C@_09BFNDNLKL@SET_PARM4?$AA@ 2012d93c     g_ICARUScb.obj
 0002:00012948       ??_C@_09FKJCENGM@SET_PARM3?$AA@ 2012d948     g_ICARUScb.obj
 0002:00012954       ??_C@_09EDIJHMCN@SET_PARM2?$AA@ 2012d954     g_ICARUScb.obj
 0002:00012960       ??_C@_09GIKECPOO@SET_PARM1?$AA@ 2012d960     g_ICARUScb.obj
 0002:0001296c       ??_C@_0BF@DAJAMNKM@SET_NO_IMPACT_DAMAGE?$AA@ 2012d96c     g_ICARUScb.obj
 0002:00012984       ??_C@_0BI@BHHMGCAD@SET_LOCK_PLAYER_WEAPONS?$AA@ 2012d984     g_ICARUScb.obj
 0002:0001299c       ??_C@_0BC@EFECMLCK@SET_PLAYER_LOCKED?$AA@ 2012d99c     g_ICARUScb.obj
 0002:000129b0       ??_C@_0BB@GEHEPADJ@SET_GREET_ALLIES?$AA@ 2012d9b0     g_ICARUScb.obj
 0002:000129c4       ??_C@_0BF@JOJAEOM@SET_FORCE_INVINCIBLE?$AA@ 2012d9c4     g_ICARUScb.obj
 0002:000129dc       ??_C@_0M@ILAOKIII@SET_VAMPIRE?$AA@ 2012d9dc     g_ICARUScb.obj
 0002:000129e8       ??_C@_0O@CNPICDHA@SET_INVISIBLE?$AA@ 2012d9e8     g_ICARUScb.obj
 0002:000129f8       ??_C@_0BB@BABLBAAP@SET_NO_KNOCKBACK?$AA@ 2012d9f8     g_ICARUScb.obj
 0002:00012a0c       ??_C@_0M@FGAKCDPM@SET_SHIELDS?$AA@ 2012da0c     g_ICARUScb.obj
 0002:00012a18       ??_C@_0O@PIJIOCNO@SET_INTERFACE?$AA@ 2012da18     g_ICARUScb.obj
 0002:00012a28       ??_C@_0O@IOGOHDIL@SET_LOOP_ANIM?$AA@ 2012da28     g_ICARUScb.obj
 0002:00012a38       ??_C@_0O@DIKHJEHC@SET_ANIMFRAME?$AA@ 2012da38     g_ICARUScb.obj
 0002:00012a48       ??_C@_0N@DJBDHJON@SET_ENDFRAME?$AA@ 2012da48     g_ICARUScb.obj
 0002:00012a58       ??_C@_0P@OAOLCPEI@SET_STARTFRAME?$AA@ 2012da58     g_ICARUScb.obj
 0002:00012a68       ??_C@_0BC@NCBCMGPD@SET_PLAYER_USABLE?$AA@ 2012da68     g_ICARUScb.obj
 0002:00012a7c       ??_C@_0BE@NLKAELAP@SET_CENTERTEXTCOLOR?$AA@ 2012da7c     g_ICARUScb.obj
 0002:00012a90       ??_C@_0BF@HHIBFNIO@SET_CAPTIONTEXTCOLOR?$AA@ 2012da90     g_ICARUScb.obj
 0002:00012aa8       ??_C@_0BE@GBNNMAAH@SET_SCROLLTEXTCOLOR?$AA@ 2012daa8     g_ICARUScb.obj
 0002:00012abc       ??_C@_0O@GEGILMFD@SET_LCARSTEXT?$AA@ 2012dabc     g_ICARUScb.obj
 0002:00012acc       ??_C@_0P@OLNGDOCE@SET_SCROLLTEXT?$AA@ 2012dacc     g_ICARUScb.obj
 0002:00012adc       ??_C@_0BD@HPODBMDB@SET_FACEEYESOPENED?$AA@ 2012dadc     g_ICARUScb.obj
 0002:00012af0       ??_C@_0BD@CEJECDEG@SET_FACEEYESCLOSED?$AA@ 2012daf0     g_ICARUScb.obj
 0002:00012b04       ??_C@_0P@NAOKHCAE@SET_FACENORMAL?$AA@ 2012db04     g_ICARUScb.obj
 0002:00012b14       ??_C@_0O@LFHHJKCL@SET_FACEFROWN?$AA@ 2012db14     g_ICARUScb.obj
 0002:00012b24       ??_C@_0BD@DICEOCAG@SET_FACEBLINKFROWN?$AA@ 2012db24     g_ICARUScb.obj
 0002:00012b38       ??_C@_0O@LKNNMCLI@SET_FACEBLINK?$AA@ 2012db38     g_ICARUScb.obj
 0002:00012b48       ??_C@_0M@FKCILCFH@SET_FACEAUX?$AA@ 2012db48     g_ICARUScb.obj
 0002:00012b54       ??_C@_0BK@EPKLIKIA@SET_REMOVELHANDBOLT_MODEL?$AA@ 2012db54     g_ICARUScb.obj
 0002:00012b70       ??_C@_0BH@NBMDKLKP@SET_ADDLHANDBOLT_MODEL?$AA@ 2012db70     g_ICARUScb.obj
 0002:00012b88       ??_C@_0BK@IJAOECLF@SET_REMOVERHANDBOLT_MODEL?$AA@ 2012db88     g_ICARUScb.obj
 0002:00012ba4       ??_C@_0BH@BHGGGDJK@SET_ADDRHANDBOLT_MODEL?$AA@ 2012dba4     g_ICARUScb.obj
 0002:00012bbc       ??_C@_0BA@CLFFKDPE@SET_LOOK_TARGET?$AA@ 2012dbbc     g_ICARUScb.obj
 0002:00012bcc       ??_C@_0BF@HIMCMJLH@SET_CAMERA_GROUP_TAG?$AA@ 2012dbcc     g_ICARUScb.obj
 0002:00012be4       ??_C@_0BH@IMNDKFDA@SET_CAMERA_GROUP_Z_OFS?$AA@ 2012dbe4     g_ICARUScb.obj
 0002:00012bfc       ??_C@_0BB@OPDFIPKJ@SET_CAMERA_GROUP?$AA@ 2012dbfc     g_ICARUScb.obj
 0002:00012c10       ??_C@_09LEIHOGOC@SET_SOLID?$AA@ 2012dc10     g_ICARUScb.obj
 0002:00012c1c       ??_C@_0M@CNPNADLA@SET_LOCKYAW?$AA@ 2012dc1c     g_ICARUScb.obj
 0002:00012c28       ??_C@_0O@ILOPGGKE@SET_RIGHTMOVE?$AA@ 2012dc28     g_ICARUScb.obj
 0002:00012c38       ??_C@_0BA@GJFHGBLN@SET_FORWARDMOVE?$AA@ 2012dc38     g_ICARUScb.obj
 0002:00012c48       ??_C@_0BE@NHDEIJFG@SET_DELAYSCRIPTTIME?$AA@ 2012dc48     g_ICARUScb.obj
 0002:00012c5c       ??_C@_08IHBNCAEI@SET_VFOV?$AA@ 2012dc5c     g_ICARUScb.obj
 0002:00012c68       ??_C@_08FIMNAJKL@SET_HFOV?$AA@ 2012dc68     g_ICARUScb.obj
 0002:00012c74       ??_C@_0O@KMFHKGGD@SET_VIGILANCE?$AA@ 2012dc74     g_ICARUScb.obj
 0002:00012c84       ??_C@_0M@DDIBCAII@SET_EARSHOT?$AA@ 2012dc84     g_ICARUScb.obj
 0002:00012c90       ??_C@_0N@OOBBJEFP@SET_VISRANGE?$AA@ 2012dc90     g_ICARUScb.obj
 0002:00012ca0       ??_C@_0O@CFLNLEKH@SET_TIMESCALE?$AA@ 2012dca0     g_ICARUScb.obj
 0002:00012cb0       ??_C@_0P@ENOGJIFF@SET_PAINTARGET?$AA@ 2012dcb0     g_ICARUScb.obj
 0002:00012cc0       ??_C@_0N@CLDMBBPE@SET_LOCATION?$AA@ 2012dcc0     g_ICARUScb.obj
 0002:00012cd0       ??_C@_0M@MHEOHIBC@SET_TARGET2?$AA@ 2012dcd0     g_ICARUScb.obj
 0002:00012cdc       ??_C@_0L@FBAHPHPL@SET_TARGET?$AA@ 2012dcdc     g_ICARUScb.obj
 0002:00012ce8       ??_C@_0P@IDOGHPPF@SET_TARGETNAME?$AA@ 2012dce8     g_ICARUScb.obj
 0002:00012cf8       ??_C@_0O@BIHNOALE@SET_SHOOTDIST?$AA@ 2012dcf8     g_ICARUScb.obj
 0002:00012d08       ??_C@_0M@KAOOOOJM@SET_NOAVOID?$AA@ 2012dd08     g_ICARUScb.obj
 0002:00012d14       ??_C@_0P@OCGKJBJK@SET_INVINCIBLE?$AA@ 2012dd14     g_ICARUScb.obj
 0002:00012d24       ??_C@_0BA@MCLHLCAO@SET_SHADER_ANIM?$AA@ 2012dd24     g_ICARUScb.obj
 0002:00012d34       ??_C@_0BI@FHBPGHHE@SET_DISABLE_SHADER_ANIM?$AA@ 2012dd34     g_ICARUScb.obj
 0002:00012d4c       ??_C@_0O@KHNLKADE@SET_TREASONED?$AA@ 2012dd4c     g_ICARUScb.obj
 0002:00012d5c       ??_C@_0M@PONMNEKN@SET_UNDYING?$AA@ 2012dd5c     g_ICARUScb.obj
 0002:00012d68       ??_C@_0BC@GJNPJIED@SET_NO_ALERT_TALK?$AA@ 2012dd68     g_ICARUScb.obj
 0002:00012d7c       ??_C@_0BD@DFEBOOLL@SET_NO_COMBAT_TALK?$AA@ 2012dd7c     g_ICARUScb.obj
 0002:00012d90       ??_C@_0BA@KOPPGKJB@SET_NO_RESPONSE?$AA@ 2012dd90     g_ICARUScb.obj
 0002:00012da0       ??_C@_0BB@BFGCIINP@SET_FORCED_MARCH?$AA@ 2012dda0     g_ICARUScb.obj
 0002:00012db4       ??_C@_0O@HMLGHAAF@SET_DONT_FLEE?$AA@ 2012ddb4     g_ICARUScb.obj
 0002:00012dc4       ??_C@_0N@CCHDBNOB@SET_ALT_FIRE?$AA@ 2012ddc4     g_ICARUScb.obj
 0002:00012dd4       ??_C@_0BC@GBEDHPDH@SET_FACE_MOVE_DIR?$AA@ 2012ddd4     g_ICARUScb.obj
 0002:00012de8       ??_C@_0BF@GGKDHLOE@SET_LOOK_FOR_ENEMIES?$AA@ 2012dde8     g_ICARUScb.obj
 0002:00012e00       ??_C@_0BC@EHANOKAI@SET_CHASE_ENEMIES?$AA@ 2012de00     g_ICARUScb.obj
 0002:00012e14       ??_C@_0M@OCJLHNHE@SET_RUNNING?$AA@ 2012de14     g_ICARUScb.obj
 0002:00012e20       ??_C@_0M@LMMCOFLG@SET_WALKING?$AA@ 2012de20     g_ICARUScb.obj
 0002:00012e2c       ??_C@_0N@NBNIJBIN@SET_CROUCHED?$AA@ 2012de2c     g_ICARUScb.obj
 0002:00012e3c       ??_C@_08DHHNLFNG@SET_LEAN?$AA@ 2012de3c     g_ICARUScb.obj
 0002:00012e48       ??_C@_0N@HFJGGGKM@SET_NOTARGET?$AA@ 2012de48     g_ICARUScb.obj
 0002:00012e58       ??_C@_0BB@KJBIMBIG@SET_LOCKED_ENEMY?$AA@ 2012de58     g_ICARUScb.obj
 0002:00012e6c       ??_C@_0N@EPACGMAO@SET_DONTFIRE?$AA@ 2012de6c     g_ICARUScb.obj
 0002:00012e7c       ??_C@_0O@PILPAHDH@SET_DONTSHOOT?$AA@ 2012de7c     g_ICARUScb.obj
 0002:00012e8c       ??_C@_0BB@DHKHFOCJ@SET_IGNOREALERTS?$AA@ 2012de8c     g_ICARUScb.obj
 0002:00012ea0       ??_C@_0BC@JIKOHOKF@SET_IGNOREENEMIES?$AA@ 2012dea0     g_ICARUScb.obj
 0002:00012eb4       ??_C@_0P@CDFFAHCE@SET_IGNOREPAIN?$AA@ 2012deb4     g_ICARUScb.obj
 0002:00012ec4       ??_C@_0M@HHFBALFK@SET_GRAVITY?$AA@ 2012dec4     g_ICARUScb.obj
 0002:00012ed0       ??_C@_0N@LABEEBNF@SET_FRICTION?$AA@ 2012ded0     g_ICARUScb.obj
 0002:00012ee0       ??_C@_07GDCPCEMJ@SET_AIM?$AA@ 2012dee0     g_ICARUScb.obj
 0002:00012ee8       ??_C@_0P@CDOEBJIL@SET_AGGRESSION?$AA@ 2012dee8     g_ICARUScb.obj
 0002:00012ef8       ??_C@_0N@ENEAGLJB@SET_YAWSPEED?$AA@ 2012def8     g_ICARUScb.obj
 0002:00012f08       ??_C@_0N@MFKCBDIA@SET_RUNSPEED?$AA@ 2012df08     g_ICARUScb.obj
 0002:00012f18       ??_C@_0O@FHCPKGLE@SET_WALKSPEED?$AA@ 2012df18     g_ICARUScb.obj
 0002:00012f28       ??_C@_08DLBMPBED@SET_ITEM?$AA@ 2012df28     g_ICARUScb.obj
 0002:00012f34       ??_C@_0L@KMEKFCAJ@SET_WEAPON?$AA@ 2012df34     g_ICARUScb.obj
 0002:00012f40       ??_C@_0P@DDEEMLPG@SET_VIEWTARGET?$AA@ 2012df40     g_ICARUScb.obj
 0002:00012f50       ??_C@_0BA@EDMOJBDK@SET_COPY_ORIGIN?$AA@ 2012df50     g_ICARUScb.obj
 0002:00012f60       ??_C@_0BA@EHIICGKM@SET_TEMP_BSTATE?$AA@ 2012df60     g_ICARUScb.obj
 0002:00012f70       ??_C@_09DOHNLJMJ@SET_EVENT?$AA@ 2012df70     g_ICARUScb.obj
 0002:00012f7c       ??_C@_08IGMCLPCI@SET_DYAW?$AA@ 2012df7c     g_ICARUScb.obj
 0002:00012f88       ??_C@_0L@EJDFMFAG@SET_DPITCH?$AA@ 2012df88     g_ICARUScb.obj
 0002:00012f94       ??_C@_0M@OPFCMIGF@SET_CAPTURE?$AA@ 2012df94     g_ICARUScb.obj
 0002:00012fa0       ??_C@_0BD@LFNKCCMB@SET_DEFAULT_BSTATE?$AA@ 2012dfa0     g_ICARUScb.obj
 0002:00012fb4       ??_C@_09MCEALIEB@SET_ARMOR?$AA@ 2012dfb4     g_ICARUScb.obj
 0002:00012fc0       ??_C@_0L@GBDKLNBO@SET_HEALTH?$AA@ 2012dfc0     g_ICARUScb.obj
 0002:00012fcc       ??_C@_0BD@KBJEGDLF@SET_BEHAVIOR_STATE?$AA@ 2012dfcc     g_ICARUScb.obj
 0002:00012fe0       ??_C@_0P@OKLMGBGC@SET_ENEMY_TEAM?$AA@ 2012dfe0     g_ICARUScb.obj
 0002:00012ff0       ??_C@_0BA@CJGNHIBB@SET_PLAYER_TEAM?$AA@ 2012dff0     g_ICARUScb.obj
 0002:00013000       ??_C@_0BH@BAAOGMDN@SET_ANIM_HOLDTIME_BOTH?$AA@ 2012e000     g_ICARUScb.obj
 0002:00013018       ??_C@_0BI@KLCMELNP@SET_ANIM_HOLDTIME_UPPER?$AA@ 2012e018     g_ICARUScb.obj
 0002:00013030       ??_C@_0BI@PAJCCAGG@SET_ANIM_HOLDTIME_LOWER?$AA@ 2012e030     g_ICARUScb.obj
 0002:00013048       ??_C@_0O@DKBIMBCC@SET_ANIM_BOTH?$AA@ 2012e048     g_ICARUScb.obj
 0002:00013058       ??_C@_0P@HNLADLDO@SET_ANIM_LOWER?$AA@ 2012e058     g_ICARUScb.obj
 0002:00013068       ??_C@_0P@CGAOFAIH@SET_ANIM_UPPER?$AA@ 2012e068     g_ICARUScb.obj
 0002:00013078       ??_C@_0M@HFEIMCGA@SET_NAVGOAL?$AA@ 2012e078     g_ICARUScb.obj
 0002:00013084       ??_C@_0L@PNAIICHO@SET_LEADER?$AA@ 2012e084     g_ICARUScb.obj
 0002:00013090       ??_C@_09NJAFKFJO@SET_ENEMY?$AA@ 2012e090     g_ICARUScb.obj
 0002:0001309c       ??_C@_0N@MKMGENPM@SET_Z_OFFSET?$AA@ 2012e09c     g_ICARUScb.obj
 0002:000130ac       ??_C@_0O@ELJCBCEI@SET_ZVELOCITY?$AA@ 2012e0ac     g_ICARUScb.obj
 0002:000130bc       ??_C@_0O@KAKFKJEL@SET_YVELOCITY?$AA@ 2012e0bc     g_ICARUScb.obj
 0002:000130cc       ??_C@_0O@EPGHMCHF@SET_XVELOCITY?$AA@ 2012e0cc     g_ICARUScb.obj
 0002:000130dc       ??_C@_0L@KFPHPPHD@SET_ANGLES?$AA@ 2012e0dc     g_ICARUScb.obj
 0002:000130e8       ??_C@_0BC@LBEEFFOC@SET_TELEPORT_DEST?$AA@ 2012e0e8     g_ICARUScb.obj
 0002:000130fc       ??_C@_0L@BPJLOKNG@SET_ORIGIN?$AA@ 2012e0fc     g_ICARUScb.obj
 0002:00013108       ??_C@_0BB@CHLNDMLC@SET_NO_MINDTRICK?$AA@ 2012e108     g_ICARUScb.obj
 0002:0001311c       ??_C@_0BE@OFDKIIFH@SET_MINDTRICKSCRIPT?$AA@ 2012e11c     g_ICARUScb.obj
 0002:00013130       ??_C@_0BC@JAFPDDCH@SET_FFDEATHSCRIPT?$AA@ 2012e130     g_ICARUScb.obj
 0002:00013144       ??_C@_0BA@CIHEFFLD@SET_FFIRESCRIPT?$AA@ 2012e144     g_ICARUScb.obj
 0002:00013154       ??_C@_0BC@NBLNGHOD@SET_BLOCKEDSCRIPT?$AA@ 2012e154     g_ICARUScb.obj
 0002:00013168       ??_C@_0BC@KCEDBMFJ@SET_DELAYEDSCRIPT?$AA@ 2012e168     g_ICARUScb.obj
 0002:0001317c       ??_C@_0BA@KGGFIBIC@SET_DEATHSCRIPT?$AA@ 2012e17c     g_ICARUScb.obj
 0002:0001318c       ??_C@_0P@DHFIHLAC@SET_FLEESCRIPT?$AA@ 2012e18c     g_ICARUScb.obj
 0002:0001319c       ??_C@_0P@DPLLBBHI@SET_PAINSCRIPT?$AA@ 2012e19c     g_ICARUScb.obj
 0002:000131ac       ??_C@_0BC@BHLPFAHG@SET_VICTORYSCRIPT?$AA@ 2012e1ac     g_ICARUScb.obj
 0002:000131c0       ??_C@_0BB@PGAEMAJB@SET_ATTACKSCRIPT?$AA@ 2012e1c0     g_ICARUScb.obj
 0002:000131d4       ??_C@_0BA@EGDJHKEA@SET_ANGERSCRIPT?$AA@ 2012e1d4     g_ICARUScb.obj
 0002:000131e4       ??_C@_0BA@CACABDOJ@SET_AWAKESCRIPT?$AA@ 2012e1e4     g_ICARUScb.obj
 0002:000131f4       ??_C@_0O@PJHNEIHF@SET_USESCRIPT?$AA@ 2012e1f4     g_ICARUScb.obj
 0002:00013204       ??_C@_0BA@POKGNIDK@SET_SPAWNSCRIPT?$AA@ 2012e204     g_ICARUScb.obj
 0002:00013214       ??_C@_0M@JICHILK@?$FO1ERROR?3?5?$CFs?$AA@ 2012e214     g_ICARUScb.obj
 0002:00013220       ??_C@_0O@MNHPCOJJ@?$FO3WARNING?3?5?$CFs?$AA@ 2012e220     g_ICARUScb.obj
 0002:00013230       ??_C@_0BF@BOEAGMID@?$FO4DEBUG?3?5?$CFs?$CI?$CFd?$CJ?3?5?$CFs?6?$AA@ 2012e230     g_ICARUScb.obj
 0002:00013248       ??_C@_0L@DEHCNGGK@?$FO2INFO?3?5?$CFs?$AA@ 2012e248     g_ICARUScb.obj
 0002:00013258       ??_C@_0EE@MAOPNMEH@Q3_GetAnimLower?3?5attempted?5to?5re@ 2012e258     g_ICARUScb.obj
 0002:000132a0       ??_C@_0EE@EJOALOAB@Q3_GetAnimUpper?3?5attempted?5to?5re@ 2012e2a0     g_ICARUScb.obj
 0002:000132e4       ??_C@_0DD@NINIPANM@Q3_GetAnimBoth?3?5NULL?5legs?5animat@ 2012e2e4     g_ICARUScb.obj
 0002:00013318       ??_C@_0DE@CPECIGDK@Q3_GetAnimBoth?3?5NULL?5torso?5anima@ 2012e318     g_ICARUScb.obj
 0002:0001334c       ??_C@_0N@EJCPOCPL@zojp_coop_?$CFs?$AA@ 2012e34c     g_ICARUScb.obj
 0002:0001335c       ??_C@_05ONEOBAM@?$CFs_?$CFs?$AA@ 2012e35c     g_ICARUScb.obj
 0002:00013364       ??_C@_0BC@LBLHAJCE@CHAN_VOICE_GLOBAL?$AA@ 2012e364     g_ICARUScb.obj
 0002:00013378       ??_C@_0BB@EAIMOIAK@CHAN_VOICE_ATTEN?$AA@ 2012e378     g_ICARUScb.obj
 0002:0001338c       ??_C@_0L@GPGGJDHA@CHAN_VOICE?$AA@ 2012e38c     g_ICARUScb.obj
 0002:00013398       ??_C@_0BE@GJAGLKJK@target_scriptrunner?$AA@ 2012e398     g_ICARUScb.obj
 0002:000133ac       ??_C@_0P@PGMEJIPP@CHAN_ANNOUNCER?$AA@ 2012e3ac     g_ICARUScb.obj
 0002:000133bc       ??_C@_09GAPFPING@PLAY_ROFF?$AA@ 2012e3bc     g_ICARUScb.obj
 0002:000133c8       ??_C@_0CI@FFIBALDO@Q3_Lerp2Angles?3?5ent?5?$CFd?5is?5NOT?5a?5@ 2012e3c8     g_ICARUScb.obj
 0002:000133f0       ??_C@_0CC@LNEIDKPB@Q3_Lerp2Angles?3?5invalid?5entID?5?$CFd@ 2012e3f0     g_ICARUScb.obj
 0002:00013414       ??_C@_0BJ@NFHFAHMF@Q3_Use?3?5string?5is?5NULL?$CB?6?$AA@ 2012e414     g_ICARUScb.obj
 0002:00013430       ??_C@_0BK@GDBGGOJA@Q3_Use?3?5invalid?5entID?5?$CFd?6?$AA@ 2012e430     g_ICARUScb.obj
 0002:0001344c       ??_C@_0BI@NGBBAIEM@Q3_Kill?3?5can?8t?5find?5?$CFs?6?$AA@ 2012e44c     g_ICARUScb.obj
 0002:00013464       ??_C@_05ICAMJEGE@enemy?$AA@ 2012e464     g_ICARUScb.obj
 0002:0001346c       ??_C@_04PJDNGLKJ@self?$AA@ 2012e46c     g_ICARUScb.obj
 0002:00013474       ??_C@_0BK@LFOIBKLL@Q3_Remove?3?5can?8t?5find?5?$CFs?6?$AA@ 2012e474     g_ICARUScb.obj
 0002:00013490       ??_C@_0BK@EIGICDEP@Q3_SetOrigin?3?5bad?5ent?5?$CFd?6?$AA@ 2012e490     g_ICARUScb.obj
 0002:000134ac       ??_C@_0CF@CLCOBJDK@Q3_SetCopyOrigin?3?5ent?5?$CFs?5not?5fou@ 2012e4ac     g_ICARUScb.obj
 0002:000134d4       ??_C@_0CB@HMOFCFID@Q3_SetVelocity?3?5not?5a?5client?5?$CFd?6@ 2012e4d4     g_ICARUScb.obj
 0002:000134f8       ??_C@_0CB@HHAAENCN@Q3_SetVelocity?5invalid?5entID?5?$CFd?6@ 2012e4f8     g_ICARUScb.obj
 0002:0001351c       ??_C@_0CL@DFDCGGCD@Q3_SetAdjustAreaPortals?3?5invalid@ 2012e51c     g_ICARUScb.obj
 0002:00013548       ??_C@_0CM@PFCJFJOO@Q3_SetDmgByHeavyWeapOnly?3?5invali@ 2012e548     g_ICARUScb.obj
 0002:00013574       ??_C@_0CC@CBEAAFOF@Q3_SetShielded?3?5invalid?5entID?5?$CFd@ 2012e574     g_ICARUScb.obj
 0002:00013598       ??_C@_0CH@IBGEOLHN@Q3_SetNoGroups?3?5ent?5?$CFs?5is?5not?5an@ 2012e598     g_ICARUScb.obj
 0002:000135c0       ??_C@_0CC@JDAAAEMN@Q3_SetNoGroups?3?5invalid?5entID?5?$CFd@ 2012e5c0     g_ICARUScb.obj
 0002:000135e4       ??_C@_0BP@DBGLHKIP@Q3_SetEnemy?3?5invalid?5entID?5?$CFd?6?$AA@ 2012e5e4     g_ICARUScb.obj
 0002:00013604       ??_C@_0CC@PLNAMHBG@Q3_SetEnemy?3?5no?5such?5enemy?3?5?8?$CFs?8@ 2012e604     g_ICARUScb.obj
 0002:00013628       ??_C@_04OKGDLNCL@NONE?$AA@ 2012e628     g_ICARUScb.obj
 0002:00013630       ??_C@_0CN@JBFEEHDK@Q3_SetLeader?3?5unable?5to?5locate?5L@ 2012e630     g_ICARUScb.obj
 0002:00013660       ??_C@_0CO@IGMJLPOG@Q3_SetLeader?3?5ent?5?$CFd?5is?5NOT?5a?5pl@ 2012e660     g_ICARUScb.obj
 0002:00013690       ??_C@_0CA@EDGGBFGA@Q3_SetLeader?3?5invalid?5entID?5?$CFd?6?$AA@ 2012e690     g_ICARUScb.obj
 0002:000136b0       ??_C@_0CI@BAAHBENG@Q3_SetNavGoal?3?5can?8t?5find?5NAVGOA@ 2012e6b0     g_ICARUScb.obj
 0002:000136d8       ??_C@_04MLLLIHIP@null?$AA@ 2012e6d8     g_ICARUScb.obj
 0002:000136e0       ??_C@_0DE@BDOKMLCC@Q3_SetNavGoal?3?5NPC?8s?5?$CI?$CC?$CFs?$CC?$CJ?5navg@ 2012e6e0     g_ICARUScb.obj
 0002:00013718       ??_C@_0EC@NEHGLENM@Q3_SetNavGoal?3?5tried?5to?5set?5a?5na@ 2012e718     g_ICARUScb.obj
 0002:00013760       ??_C@_0EB@ONEHNEAG@Q3_SetNavGoal?3?5tried?5to?5set?5a?5na@ 2012e760     g_ICARUScb.obj
 0002:000137a8       ??_C@_0EA@JLCGKAIA@Q3_SetNavGoal?3?5tried?5to?5set?5a?5na@ 2012e7a8     g_ICARUScb.obj
 0002:000137e8       ??_C@_0CO@HFDAMJDC@SetLowerAnim?3?5ent?5?$CFd?5is?5NOT?5a?5pl@ 2012e7e8     g_ICARUScb.obj
 0002:00013818       ??_C@_0CA@BMPEEEHM@SetLowerAnim?3?5invalid?5entID?5?$CFd?6?$AA@ 2012e818     g_ICARUScb.obj
 0002:00013838       ??_C@_0CA@JHMLFJBC@SetUpperAnim?3?5invalid?5entID?5?$CFd?6?$AA@ 2012e838     g_ICARUScb.obj
 0002:00013858       ??_C@_0DC@IDLJGGJG@Q3_SetAnimUpper?3?5unknown?5animati@ 2012e858     g_ICARUScb.obj
 0002:0001388c       ??_C@_0DC@KMJCEHHP@Q3_SetAnimLower?3?5unknown?5animati@ 2012e88c     g_ICARUScb.obj
 0002:000138c0       ??_C@_0CA@FNEGPEPO@Q3_SetHealth?3?5invalid?5entID?5?$CFd?6?$AA@ 2012e8c0     g_ICARUScb.obj
 0002:000138e0       ??_C@_0BP@HOLDOMJL@Q3_SetArmor?3?5invalid?5entID?5?$CFd?6?$AA@ 2012e8e0     g_ICARUScb.obj
 0002:00013900       ??_C@_0DP@FFFMEDFK@Q3_SetBState?3?5?8?$CFs?8?5is?5not?5in?5a?5v@ 2012e900     g_ICARUScb.obj
 0002:00013940       ??_C@_0CC@KDIKBPJM@Q3_SetBState?3?5?8?$CFs?8?5is?5not?5an?5NPC@ 2012e940     g_ICARUScb.obj
 0002:00013964       ??_C@_0CA@DKMIJFEO@Q3_SetBState?3?5invalid?5entID?5?$CFd?6?$AA@ 2012e964     g_ICARUScb.obj
 0002:00013984       ??_C@_0CG@PMDDNOIO@Q3_SetTempBState?3?5?8?$CFs?8?5is?5not?5an@ 2012e984     g_ICARUScb.obj
 0002:000139ac       ??_C@_0CE@BFFBLGPP@Q3_SetTempBState?3?5invalid?5entID?5@ 2012e9ac     g_ICARUScb.obj
 0002:000139d0       ??_C@_0CJ@KAHCEBKN@Q3_SetDefaultBState?3?5?8?$CFs?8?5is?5not@ 2012e9d0     g_ICARUScb.obj
 0002:000139fc       ??_C@_0CH@ICHGEDKM@Q3_SetDefaultBState?3?5invalid?5ent@ 2012e9fc     g_ICARUScb.obj
 0002:00013a24       ??_C@_0CC@PEJEMHCM@Q3_SetDPitch?3?5?8?$CFs?8?5is?5not?5an?5NPC@ 2012ea24     g_ICARUScb.obj
 0002:00013a48       ??_C@_0CA@ILBMHBAO@Q3_SetDPitch?3?5invalid?5entID?5?$CFd?6?$AA@ 2012ea48     g_ICARUScb.obj
 0002:00013a68       ??_C@_0CN@KIDCMBIE@Could?5not?5set?5DYAW?3?5?8?$CFs?8?5has?5an?5@ 2012ea68     g_ICARUScb.obj
 0002:00013a98       ??_C@_0CA@BHHPLFFK@Q3_SetDYaw?3?5?8?$CFs?8?5is?5not?5an?5NPC?6?$AA@ 2012ea98     g_ICARUScb.obj
 0002:00013ab8       ??_C@_0BO@PKCCBPNG@Q3_SetDYaw?3?5invalid?5entID?5?$CFd?6?$AA@ 2012eab8     g_ICARUScb.obj
 0002:00013ad8       ??_C@_0CB@JLIDBBK@Q3_SetWidth?3?5?8?$CFs?8?5is?5not?5an?5NPC?6@ 2012ead8     g_ICARUScb.obj
 0002:00013afc       ??_C@_0BP@IANDDPOM@Q3_SetWidth?3?5invalid?5entID?5?$CFd?6?$AA@ 2012eafc     g_ICARUScb.obj
 0002:00013b1c       ??_C@_0CD@EMLIABEN@Q3_SetInvisible?3?5invalid?5entID?5?$CF@ 2012eb1c     g_ICARUScb.obj
 0002:00013b40       ??_C@_0CE@PIDDFBMB@Q3_SetVampire?3?5NOT?5SUPPORTED?5IN?5@ 2012eb40     g_ICARUScb.obj
 0002:00013b64       ??_C@_0CI@KPHKNKLN@Q3_SetGreetAllies?3?5NOT?5SUPPORTED@ 2012eb64     g_ICARUScb.obj
 0002:00013b8c       ??_C@_0CP@BEGAFINN@Q3_SetViewTarget?3?5can?8t?5find?5Vie@ 2012eb8c     g_ICARUScb.obj
 0002:00013bbc       ??_C@_0CN@CODCDALA@Q3_SetViewTarget?3?5?8?$CFs?8?5is?5not?5a?5@ 2012ebbc     g_ICARUScb.obj
 0002:00013bec       ??_C@_0CE@JBJNCPAN@Q3_SetViewTarget?3?5invalid?5entID?5@ 2012ebec     g_ICARUScb.obj
 0002:00013c10       ??_C@_0DB@JAACPOIM@Q3_SetWatchTarget?3?5can?8t?5find?5Wa@ 2012ec10     g_ICARUScb.obj
 0002:00013c44       ??_C@_0CI@HFOMDJGM@Q3_SetWatchTarget?3?5?8?$CFs?8?5is?5not?5a@ 2012ec44     g_ICARUScb.obj
 0002:00013c6c       ??_C@_0CF@GNDLJGCJ@Q3_SetWatchTarget?3?5invalid?5entID@ 2012ec6c     g_ICARUScb.obj
 0002:00013c94       ??_C@_0CO@MOCJHIOF@Q3_SetLoopSound?3?5can?8t?5find?5soun@ 2012ec94     g_ICARUScb.obj
 0002:00013cc4       ??_C@_0CE@GLDAHAGL@Q3_SetICARUSFreeze?3?5invalid?5ent?5@ 2012ecc4     g_ICARUScb.obj
 0002:00013ce8       ??_C@_0ED@OFAFODDH@Q3_SetViewEntity?5currently?5unsup@ 2012ece8     g_ICARUScb.obj
 0002:00013d2c       ??_C@_0BJ@EFMFEOAN@sound?1weapons?1change?4wav?$AA@ 2012ed2c     g_ICARUScb.obj
 0002:00013d48       ??_C@_0CJ@BPMKFMGM@Q3_SetWeapon?3?5?8?$CFs?8?5is?5not?5a?5play@ 2012ed48     g_ICARUScb.obj
 0002:00013d74       ??_C@_04PIONEEJD@drop?$AA@ 2012ed74     g_ICARUScb.obj
 0002:00013d7c       ??_C@_0CA@KEJIFJCC@Q3_SetWeapon?3?5invalid?5entID?5?$CFd?6?$AA@ 2012ed7c     g_ICARUScb.obj
 0002:00013d9c       ??_C@_0CD@FOPICAPG@Unknown?5weapon?5?$CFs?5in?5Q3_SetWeapo@ 2012ed9c     g_ICARUScb.obj
 0002:00013dc0       ??_C@_0CB@NNJOIHCJ@Q3_SetItem?3?5NOT?5SUPPORTED?5IN?5MP?6@ 2012edc0     g_ICARUScb.obj
 0002:00013de4       ??_C@_0CG@HKPOILBG@Q3_SetWalkSpeed?3?5?8?$CFs?8?5is?5not?5an?5@ 2012ede4     g_ICARUScb.obj
 0002:00013e0c       ??_C@_0CD@HDKKLDHC@Q3_SetWalkSpeed?3?5invalid?5entID?5?$CF@ 2012ee0c     g_ICARUScb.obj
 0002:00013e30       ??_C@_0CF@DLOMEHBN@Q3_SetRunSpeed?3?5?8?$CFs?8?5is?5not?5an?5N@ 2012ee30     g_ICARUScb.obj
 0002:00013e58       ??_C@_0CC@LHPMLMBJ@Q3_SetRunSpeed?3?5invalid?5entID?5?$CFd@ 2012ee58     g_ICARUScb.obj
 0002:00013e7c       ??_C@_0CM@GOJPPMOB@Q3_SetFriction?5currently?5unsuppo@ 2012ee7c     g_ICARUScb.obj
 0002:00013ea8       ??_C@_0CM@LCLLLBGM@Q3_SetFriction?3?5?8?$CFs?8?5is?5not?5an?5N@ 2012eea8     g_ICARUScb.obj
 0002:00013ed4       ??_C@_0CC@HHJNFGMO@Q3_SetFriction?3?5invalid?5entID?5?$CFd@ 2012eed4     g_ICARUScb.obj
 0002:00013ef8       ??_C@_0CL@LJGPGJEA@Q3_SetGravity?3?5?8?$CFs?8?5is?5not?5an?5NP@ 2012eef8     g_ICARUScb.obj
 0002:00013f24       ??_C@_0CB@OPIFNKEA@Q3_SetGravity?3?5invalid?5entID?5?$CFd?6@ 2012ef24     g_ICARUScb.obj
 0002:00013f48       ??_C@_0BO@BMCEKENC@Q3_SetWait?3?5invalid?5entID?5?$CFd?6?$AA@ 2012ef48     g_ICARUScb.obj
 0002:00013f68       ??_C@_0BP@FDBCCMPD@Q3_SetScale?3?5invalid?5entID?5?$CFd?6?$AA@ 2012ef68     g_ICARUScb.obj
 0002:00013f88       ??_C@_0BP@ELEONGFB@Q3_SetCount?3?5invalid?5entID?5?$CFd?6?$AA@ 2012ef88     g_ICARUScb.obj
 0002:00013fa8       ??_C@_0CE@HIBIPDAC@Q3_SetTargetName?3?5invalid?5entID?5@ 2012efa8     g_ICARUScb.obj
 0002:00013fcc       ??_C@_0CA@OAANMDLB@Q3_SetTarget?3?5invalid?5entID?5?$CFd?6?$AA@ 2012efcc     g_ICARUScb.obj
 0002:00013fec       ??_C@_0CE@OMLFNBIO@Q3_SetTarget2?5does?5not?5exist?5in?5@ 2012efec     g_ICARUScb.obj
 0002:00014010       ??_C@_0CJ@OOLBMPHJ@Q3_SetRemoveTarget?3?5NOT?5SUPPORTE@ 2012f010     g_ICARUScb.obj
 0002:0001403c       ??_C@_0CH@OAGBHJHJ@Q3_SetPainTarget?3?5NOT?5SUPPORTED?5@ 2012f03c     g_ICARUScb.obj
 0002:00014064       ??_C@_0CC@HABEDPNL@Q3_SetFullName?3?5invalid?5entID?5?$CFd@ 2012f064     g_ICARUScb.obj
 0002:00014088       ??_C@_0EC@IGJJPGFC@Q3_SetForcePowerLevel?3?5Force?5Pow@ 2012f088     g_ICARUScb.obj
 0002:000140d0       ??_C@_0EC@HPBBHKFG@Q3_SetForcePowerLevel?3?5Force?5pow@ 2012f0d0     g_ICARUScb.obj
 0002:00014114       ??_C@_0DG@MJBIEOCO@Q3_SetForcePowerLevel?3?5ent?5?$CFs?5is@ 2012f114     g_ICARUScb.obj
 0002:0001414c       ??_C@_0CJ@ICGOEIEG@Q3_SetForcePowerLevel?3?5invalid?5e@ 2012f14c     g_ICARUScb.obj
 0002:00014178       ??_C@_0CE@MFFGPCBD@SET_PARM?3?5parmNum?5?$CFd?5out?5of?5rang@ 2012f178     g_ICARUScb.obj
 0002:0001419c       ??_C@_0DG@HLJOBMIH@SET_PARM?3?5parm?$CFd?5string?5too?5long@ 2012f19c     g_ICARUScb.obj
 0002:000141d4       ??_C@_02NJPGOMH@?$CFf?$AA@ 2012f1d4     g_ICARUScb.obj
 0002:000141d8       ??_C@_0BO@PFDMMKKA@Q3_SetParm?3?5invalid?5entID?5?$CFd?6?$AA@ 2012f1d8     g_ICARUScb.obj
 0002:000141f8       ??_C@_0CM@FCFLPAHD@Q3_SetNavGoal?3?5can?8t?5find?5CAPTUR@ 2012f1f8     g_ICARUScb.obj
 0002:00014228       ??_C@_0EE@BIFFCCCD@Q3_SetEvent?3?5NOT?5SUPPORTED?5IN?5MP@ 2012f228     g_ICARUScb.obj
 0002:0001426c       ??_C@_0CH@EPKNBJFO@Q3_SetIgnorePain?3?5?8?$CFs?8?5is?5not?5an@ 2012f26c     g_ICARUScb.obj
 0002:00014294       ??_C@_0CE@COLOOLAO@Q3_SetIgnorePain?3?5invalid?5entID?5@ 2012f294     g_ICARUScb.obj
 0002:000142b8       ??_C@_0CK@CENKJJIL@Q3_SetIgnoreEnemies?3?5?8?$CFs?8?5is?5not@ 2012f2b8     g_ICARUScb.obj
 0002:000142e4       ??_C@_0CH@NDHOKGPO@Q3_SetIgnoreEnemies?3?5invalid?5ent@ 2012f2e4     g_ICARUScb.obj
 0002:0001430c       ??_C@_0CJ@JLNJLKNH@Q3_SetIgnoreAlerts?3?5?8?$CFs?8?5is?5not?5@ 2012f30c     g_ICARUScb.obj
 0002:00014338       ??_C@_0CG@JINEFHH@Q3_SetIgnoreAlerts?3?5invalid?5entI@ 2012f338     g_ICARUScb.obj
 0002:00014360       ??_C@_0CC@IEMHPFPH@Q3_SetNoTarget?3?5invalid?5entID?5?$CFd@ 2012f360     g_ICARUScb.obj
 0002:00014384       ??_C@_0CD@DOGHKGPN@Q3_SetDontShoot?3?5invalid?5entID?5?$CF@ 2012f384     g_ICARUScb.obj
 0002:000143a8       ??_C@_0CF@MHDEKJLA@Q3_SetDontFire?3?5?8?$CFs?8?5is?5not?5an?5N@ 2012f3a8     g_ICARUScb.obj
 0002:000143d0       ??_C@_0CC@PEBOFMJD@Q3_SetDontFire?3?5invalid?5entID?5?$CFd@ 2012f3d0     g_ICARUScb.obj
 0002:000143f4       ??_C@_0CH@KDKLCJLB@Q3_SetFireWeapon?3?5?8?$CFs?8?5is?5not?5an@ 2012f3f4     g_ICARUScb.obj
 0002:0001441c       ??_C@_0CB@KJJALIDN@Q3_FireWeapon?3?5invalid?5entID?5?$CFd?6@ 2012f41c     g_ICARUScb.obj
 0002:00014440       ??_C@_0CH@EKDLFJKF@Q3_SetSafeRemove?3?5?8?$CFs?8?5is?5not?5an@ 2012f440     g_ICARUScb.obj
 0002:00014468       ??_C@_0CE@GPAFMJJM@Q3_SetSafeRemove?3?5invalid?5entID?5@ 2012f468     g_ICARUScb.obj
 0002:0001448c       ??_C@_0CC@IPNFPFEH@Q3_SetInactive?3?5invalid?5entID?5?$CFd@ 2012f48c     g_ICARUScb.obj
 0002:000144b0       ??_C@_0CL@HBFECKBP@Q3_SetFuncUsableVisible?3?5invalid@ 2012f4b0     g_ICARUScb.obj
 0002:000144dc       ??_C@_0CI@GMJBPEBE@Q3_SetLockedEnemy?3?5NOT?5SUPPORTED@ 2012f4dc     g_ICARUScb.obj
 0002:00014504       ??_C@_0CE@HBAEOCKF@Q3_SetWalking?3?5?8?$CFs?8?5is?5not?5an?5NP@ 2012f504     g_ICARUScb.obj
 0002:00014528       ??_C@_0CB@HIEDINLB@Q3_SetWalking?3?5invalid?5entID?5?$CFd?6@ 2012f528     g_ICARUScb.obj
 0002:0001454c       ??_C@_0CJ@JNKJIPFF@Q3_SetUseSubtitles?3?5NOT?5SUPPORTE@ 2012f54c     g_ICARUScb.obj
 0002:00014578       ??_C@_0CK@ODIJCGBB@Q3_SetDismemberable?3?5NOT?5SUPPORT@ 2012f578     g_ICARUScb.obj
 0002:000145a4       ??_C@_0CG@CGPJILHN@Q3_SetMoreLight?3?5NOT?5SUPPORTED?5I@ 2012f5a4     g_ICARUScb.obj
 0002:000145cc       ??_C@_0CB@KCOKMNCM@Q3_SetUndying?3?5invalid?5entID?5?$CFd?6@ 2012f5cc     g_ICARUScb.obj
 0002:000145f0       ??_C@_0CE@EGONICHN@Q3_SetInvincible?3?5invalid?5entID?5@ 2012f5f0     g_ICARUScb.obj
 0002:00014614       ??_C@_0CL@INALFELI@Q3_SetForceInvicible?3?5NOT?5SUPPOR@ 2012f614     g_ICARUScb.obj
 0002:00014640       ??_C@_0CE@DMJKPBFO@Q3_SetNoAvoid?3?5?8?$CFs?8?5is?5not?5an?5NP@ 2012f640     g_ICARUScb.obj
 0002:00014664       ??_C@_0CB@JEJFGKJO@Q3_SetNoAvoid?3?5invalid?5entID?5?$CFd?6@ 2012f664     g_ICARUScb.obj
 0002:00014688       ??_C@_0BP@KHNMPCCN@Q3_SetSolid?3?5invalid?5entID?5?$CFd?6?$AA@ 2012f688     g_ICARUScb.obj
 0002:000146a8       ??_C@_0CI@IPAEJHPL@Q3_SetForwardMove?3?5NOT?5SUPPORTED@ 2012f6a8     g_ICARUScb.obj
 0002:000146d0       ??_C@_0CP@ICAKKLLG@Q3_SetForwardMove?3?5?8?$CFs?8?5is?5not?5a@ 2012f6d0     g_ICARUScb.obj
 0002:00014700       ??_C@_0CF@NEOMJHAB@Q3_SetForwardMove?3?5invalid?5entID@ 2012f700     g_ICARUScb.obj
 0002:00014728       ??_C@_0CG@CIIMNEGA@Q3_SetRightMove?3?5NOT?5SUPPORTED?5I@ 2012f728     g_ICARUScb.obj
 0002:00014750       ??_C@_0CN@LHCDCLFN@Q3_SetRightMove?3?5?8?$CFs?8?5is?5not?5an?5@ 2012f750     g_ICARUScb.obj
 0002:00014780       ??_C@_0CD@OOLKPGHL@Q3_SetRightMove?3?5invalid?5entID?5?$CF@ 2012f780     g_ICARUScb.obj
 0002:000147a4       ??_C@_04HAPDLBFF@auto?$AA@ 2012f7a4     g_ICARUScb.obj
 0002:000147ac       ??_C@_03MCADLMAF@off?$AA@  2012f7ac     g_ICARUScb.obj
 0002:000147b0       ??_C@_0FE@PBBMKJAM@Q3_SetLockAngle?5doesn?8t?5work?5for@ 2012f7b0     g_ICARUScb.obj
 0002:00014804       ??_C@_0CN@GLOHFPCC@Q3_SetLockAngle?3?5?8?$CFs?8?5is?5not?5an?5@ 2012f804     g_ICARUScb.obj
 0002:00014834       ??_C@_0CD@OPPPOEEE@Q3_SetLockAngle?3?5invalid?5entID?5?$CF@ 2012f834     g_ICARUScb.obj
 0002:00014858       ??_C@_0BN@KHJPMOJH@Q3_CameraGroup?3?5Invalid?5Ent?6?$AA@ 2012f858     g_ICARUScb.obj
 0002:00014878       ??_C@_0CJ@CCHBEHGG@Q3_CameraGroupZOfs?3?5NOT?5SUPPORTE@ 2012f878     g_ICARUScb.obj
 0002:000148a4       ??_C@_0CI@MIMKGII@Q3_CameraGroupTag?3?5NOT?5SUPPORTED@ 2012f8a4     g_ICARUScb.obj
 0002:000148cc       ??_C@_0CK@LLMPPIOA@Q3_RemoveRHandModel?3?5NOT?5SUPPORT@ 2012f8cc     g_ICARUScb.obj
 0002:000148f8       ??_C@_0CH@IJNLLMLF@Q3_AddRHandModel?3?5NOT?5SUPPORTED?5@ 2012f8f8     g_ICARUScb.obj
 0002:00014920       ??_C@_0CH@IKNKFMPE@Q3_AddLHandModel?3?5NOT?5SUPPORTED?5@ 2012f920     g_ICARUScb.obj
 0002:00014948       ??_C@_0CK@LIMOBIKB@Q3_RemoveLHandModel?3?5NOT?5SUPPORT@ 2012f948     g_ICARUScb.obj
 0002:00014974       ??_C@_0CC@ENLMPHCF@Q3_LookTarget?3?5Can?8t?5find?5ent?5?$CFs@ 2012f974     g_ICARUScb.obj
 0002:00014998       ??_C@_0CL@EGINOHJI@Q3_LookTarget?3?5?8?$CFs?8?5is?5not?5an?5NP@ 2012f998     g_ICARUScb.obj
 0002:000149c4       ??_C@_0CB@FDJKJBDK@Q3_LookTarget?3?5invalid?5entID?5?$CFd?6@ 2012f9c4     g_ICARUScb.obj
 0002:000149e8       ??_C@_0BO@CHEGICOC@Q3_Face?3?5NOT?5SUPPORTED?5IN?5MP?6?$AA@ 2012f9e8     g_ICARUScb.obj
 0002:00014a08       ??_C@_0CF@GECFLGFB@Q3_SetLocation?3?5NOT?5SUPPORTED?5IN@ 2012fa08     g_ICARUScb.obj
 0002:00014a30       ??_C@_0CO@BICOHEL@Q3_SetLockPlayerWeapons?3?5NOT?5SUP@ 2012fa30     g_ICARUScb.obj
 0002:00014a60       ??_C@_0CI@CBDMPAKK@Q3_SetNoImpactDamage?3?5invalid?5en@ 2012fa60     g_ICARUScb.obj
 0002:00014a88       ??_C@_0CF@OCDMAOLC@Q3_SetBehaviorSet?3?5invalid?5entID@ 2012fa88     g_ICARUScb.obj
 0002:00014ab0       ??_C@_0CM@GKOONPBI@Q3_SetDelayScriptTime?3?5NOT?5SUPPO@ 2012fab0     g_ICARUScb.obj
 0002:00014adc       ??_C@_0CG@JEJEKGMB@Q3_SetPlayerUsable?3?5invalid?5entI@ 2012fadc     g_ICARUScb.obj
 0002:00014b04       ??_C@_0CM@KKBOJBOA@Q3_SetDisableShaderAnims?3?5invali@ 2012fb04     g_ICARUScb.obj
 0002:00014b30       ??_C@_0CE@CNGJJLBJ@Q3_SetShaderAnim?3?5invalid?5entID?5@ 2012fb30     g_ICARUScb.obj
 0002:00014b54       ??_C@_0DE@IKDCFHF@Q3_SetLoopAnim?3?5command?5not?5vali@ 2012fb54     g_ICARUScb.obj
 0002:00014b88       ??_C@_0CE@DIAFPAMK@Q3_SetStartFrame?3?5invalid?5entID?5@ 2012fb88     g_ICARUScb.obj
 0002:00014bac       ??_C@_0DE@BIOPDCDK@Q3_SetEndFrame?3?5command?5not?5vali@ 2012fbac     g_ICARUScb.obj
 0002:00014be0       ??_C@_0CC@DOHEJNMM@Q3_SetEndFrame?3?5invalid?5entID?5?$CFd@ 2012fbe0     g_ICARUScb.obj
 0002:00014c08       ??_C@_0EO@LLBCBGMG@Q3_SetAnimFrame?3?5value?5must?5be?5v@ 2012fc08     g_ICARUScb.obj
 0002:00014c58       ??_C@_0DF@HNCEDKMK@Q3_SetAnimFrame?3?5command?5not?5val@ 2012fc58     g_ICARUScb.obj
 0002:00014c90       ??_C@_0CD@KEGJGNHJ@Q3_SetAnimFrame?3?5invalid?5entID?5?$CF@ 2012fc90     g_ICARUScb.obj
 0002:00014cb4       ??_C@_0CF@IBCLAOLM@Q3_SetLoopAnim?3?5NOT?5SUPPORTED?5IN@ 2012fcb4     g_ICARUScb.obj
 0002:00014cdc       ??_C@_0CE@JOHGFLKG@Q3_SetShields?3?5NOT?5SUPPORTED?5IN?5@ 2012fcdc     g_ICARUScb.obj
 0002:00014d00       ??_C@_0CF@OLBNHFPB@Q3_SetSaberActive?3?5invalid?5entID@ 2012fd00     g_ICARUScb.obj
 0002:00014d28       ??_C@_0CP@KKKLBLDL@Q3_SetSaberActive?3?5?8?$CFs?8?5is?5not?5u@ 2012fd28     g_ICARUScb.obj
 0002:00014d58       ??_C@_0CH@FMKKHNJF@Q3_SetSaberActive?3?5?$CFd?5is?5not?5a?5c@ 2012fd58     g_ICARUScb.obj
 0002:00014d80       ??_C@_0CF@DJKLPEAH@Q3_SetNoKnockback?3?5invalid?5entID@ 2012fd80     g_ICARUScb.obj
 0002:00014da8       ??_C@_0CO@LDABFGLN@Q3_SetCleanDamagingEnts?3?5NOT?5SUP@ 2012fda8     g_ICARUScb.obj
 0002:00014dd8       ??_C@_0CD@JKPKENIC@SetTextColor?3?5NOT?5SUPPORTED?5IN?5M@ 2012fdd8     g_ICARUScb.obj
 0002:00014dfc       ??_C@_0CE@HJDICHCA@Q3_ScrollText?3?5NOT?5SUPPORTED?5IN?5@ 2012fdfc     g_ICARUScb.obj
 0002:00014e20       ??_C@_06OFNJOBDK@enable?$AA@ 2012fe20     g_ICARUScb.obj
 0002:00014e28       ??_C@_07DBNODEFN@disable?$AA@ 2012fe28     g_ICARUScb.obj
 0002:00014e30       ??_C@_0BB@PFLHOBHP@move?5?$CFf?5?$CFf?5?$CFf?5?$CFf?$AA@ 2012fe30     g_ICARUScb.obj
 0002:00014e44       ??_C@_0BJ@GFAAHFGF@pan?5?$CFf?5?$CFf?5?$CFf?5?$CFf?5?$CFf?5?$CFf?5?$CFf?$AA@ 2012fe44     g_ICARUScb.obj
 0002:00014e60       ??_C@_0L@EDJACIGG@zoom?5?$CFf?5?$CFf?$AA@ 2012fe60     g_ICARUScb.obj
 0002:00014e6c       ??_C@_0CA@FEJPBMAO@fade?5?$CFf?5?$CFf?5?$CFf?5?$CFf?5?$CFf?5?$CFf?5?$CFf?5?$CFf?5?$CFf?$AA@ 2012fe6c     g_ICARUScb.obj
 0002:00014e8c       ??_C@_09EHIDJBAC@follow?5?92?$AA@ 2012fe8c     g_ICARUScb.obj
 0002:00014e98       ??_C@_0DN@BLBEPEMJ@follow?5?$CFi?5?$CFi?5?$CFi?5?$CFi?5?$CFi?5?$CFi?5?$CFi?5?$CFi?5?$CF@ 2012fe98     g_ICARUScb.obj
 0002:00014ed8       ??_C@_0DC@BJDDLHEP@?$FO1ERROR?3?5Too?5many?5subjects?5in?5sh@ 2012fed8     g_ICARUScb.obj
 0002:00014f0c       ??_C@_0N@OMACKGLN@?$DM?5?$CFf?5?$CFf?5?$CFf?5?$DO?$AA@ 2012ff0c     g_ICARUScb.obj
 0002:00014f1c       ??_C@_0M@OBNEBHCO@shake?5?$CFf?5?$CFi?$AA@ 2012ff1c     g_ICARUScb.obj
 0002:00014f28       ??_C@_0CK@PGEBAFHM@Q3_SetRenderCullRadius?3?5invalid?5@ 2012ff28     g_ICARUScb.obj
 0002:00014f54       ??_C@_0BB@LBPFIJJK@trigger_location?$AA@ 2012ff54     g_ICARUScb.obj
 0002:00014f68       ??_C@_0CK@LKMFPGNL@Q3_SetForcePower?3?5ent?5?$CD?5?$CFd?5not?5a@ 2012ff68     g_ICARUScb.obj
 0002:00014f94       ??_C@_0CE@GNFBKOJG@Q3_SetForcePower?3?5invalid?5entID?5@ 2012ff94     g_ICARUScb.obj
 0002:00014fb8       ??_C@_0CI@LNPGPGO@ICARUS?5Declared?5Variable?5?$CFs?5not?5@ 2012ffb8     g_ICARUScb.obj
 0002:00014fe0       ??_C@_0DC@ILLMJMFP@ICARUS?5Declared?5Variable?5?$CFs?5fail@ 2012ffe0     g_ICARUScb.obj
 0002:00015014       ??_C@_0DD@DOBHOFPI@ICARUS?5Declared?5Variable?5?$CFs?5coul@ 20130014     g_ICARUScb.obj
 0002:00015048       ??_C@_0DF@MKEPOGFI@Too?5many?5variables?5already?5decla@ 20130048     g_ICARUScb.obj
 0002:00015080       ??_C@_0CH@PPMHHGNA@Q3_Lerp2Start?3?5ent?5?$CFd?5is?5NOT?5a?5m@ 20130080     g_ICARUScb.obj
 0002:000150a8       ??_C@_0CB@JIOOJHHK@Q3_Lerp2Start?3?5invalid?5entID?5?$CFd?6@ 201300a8     g_ICARUScb.obj
 0002:000150cc       ??_C@_0CF@DALAHPCE@Q3_Lerp2End?3?5ent?5?$CFd?5is?5NOT?5a?5mov@ 201300cc     g_ICARUScb.obj
 0002:000150f4       ??_C@_0BP@JAFHMEBM@Q3_Lerp2End?3?5invalid?5entID?5?$CFd?6?$AA@ 201300f4     g_ICARUScb.obj
 0002:00015114       ??_C@_0CF@PAFFJBK@Q3_Lerp2Pos?3?5ent?5?$CFd?5is?5NOT?5a?5mov@ 20130114     g_ICARUScb.obj
 0002:0001513c       ??_C@_0BP@DPCBPJGD@Q3_Lerp2Pos?3?5invalid?5entID?5?$CFd?6?$AA@ 2013013c     g_ICARUScb.obj
 0002:0001515c       ??_C@_0DB@IIFIFGEF@Q3_GetFloat?3?5SET_VIDEO_FADE_OUT?5@ 2013015c     g_ICARUScb.obj
 0002:00015190       ??_C@_0DA@CGHNINKE@Q3_GetFloat?3?5SET_VIDEO_FADE_IN?5n@ 20130190     g_ICARUScb.obj
 0002:000151c0       ??_C@_0CM@PDGGCGPJ@Q3_GetFloat?3?5SET_INTERFACE?5not?5i@ 201301c0     g_ICARUScb.obj
 0002:000151ec       ??_C@_0CJ@JKFCECFM@GetFloat?3?5SET_IGNOREPAIN?0?5?$CFs?5not@ 201301ec     g_ICARUScb.obj
 0002:00015218       ??_C@_0CJ@DINKEEGE@Q3_GetFloat?3?5SET_ARMOR?0?5?$CFs?5not?5a@ 20130218     g_ICARUScb.obj
 0002:00015244       ??_C@_0DF@CBLGIHDP@Q3_GetFloat?3?5SET_ANIM_HOLDTIME_B@ 20130244     g_ICARUScb.obj
 0002:0001527c       ??_C@_0DH@FCHJJJED@Q3_GetFloat?3?5SET_ANIM_HOLDTIME_U@ 2013027c     g_ICARUScb.obj
 0002:000152b4       ??_C@_0DH@GMJBNMGD@Q3_GetFloat?3?5SET_ANIM_HOLDTIME_L@ 201302b4     g_ICARUScb.obj
 0002:000152ec       ??_C@_0CK@IBBFJBGO@Q3_GetFloat?3?5SET_FACE___?5not?5imp@ 201302ec     g_ICARUScb.obj
 0002:00015318       ??_C@_0CN@PLHMDBNJ@Q3_GetFloat?3?5SET_ZVELOCITY?0?5?$CFs?5n@ 20130318     g_ICARUScb.obj
 0002:00015348       ??_C@_0CN@PJKCDGPO@Q3_GetFloat?3?5SET_YVELOCITY?0?5?$CFs?5n@ 20130348     g_ICARUScb.obj
 0002:00015378       ??_C@_0CN@PIBHMLOD@Q3_GetFloat?3?5SET_XVELOCITY?0?5?$CFs?5n@ 20130378     g_ICARUScb.obj
 0002:000153a8       ??_C@_0CN@NDKNJKOD@GET_PARM?3?5?$CFs?5?$CFs?5did?5not?5have?5any@ 201303a8     g_ICARUScb.obj
 0002:000153d8       ??_C@_0DB@MAGBGPGB@Q3_GetVector?3?5SET_TELEPORT_DEST?5@ 201303d8     g_ICARUScb.obj
 0002:0001540c       ??_C@_0CN@GCPIIOJN@Q3_GetString?3?5SET_LCARSTEXT?5not?5@ 2013040c     g_ICARUScb.obj
 0002:0001543c       ??_C@_0CO@IACPECFJ@Q3_GetString?3?5SET_SCROLLTEXT?5not@ 2013043c     g_ICARUScb.obj
 0002:0001546c       ??_C@_0CL@HEMEGJFB@Q3_GetString?3?5SET_LOCKYAW?5not?5im@ 2013046c     g_ICARUScb.obj
 0002:00015498       ??_C@_0CM@NPFJENKG@Q3_GetString?3?5SET_LOADGAME?5not?5i@ 20130498     g_ICARUScb.obj
 0002:000154c4       ??_C@_0CO@FHGHEBEE@Q3_GetString?3?5SET_VIDEO_PLAY?5not@ 201304c4     g_ICARUScb.obj
 0002:000154f4       ??_C@_0CP@KIKCHBDJ@Q3_GetString?3?5SET_COPY_ORIGIN?5no@ 201304f4     g_ICARUScb.obj
 0002:00015524       ??_C@_0DD@BGKFAPKD@Q3_GetString?3?5SET_SCROLLTEXTCOLO@ 20130524     g_ICARUScb.obj
 0002:00015558       ??_C@_0DD@PGFDFPBJ@Q3_GetString?3?5SET_CENTERTEXTCOLO@ 20130558     g_ICARUScb.obj
 0002:0001558c       ??_C@_0DE@KHANCCBA@Q3_GetString?3?5SET_CAPTIONTEXTCOL@ 2013058c     g_ICARUScb.obj
 0002:000155c0       ??_C@_0CO@PDPCBFNG@Q3_GetString?3?5SET_VIEWENTITY?5not@ 201305c0     g_ICARUScb.obj
 0002:000155f0       ??_C@_0CO@GIAIICCI@Q3_GetString?3?5SET_VIEWTARGET?5not@ 201305f0     g_ICARUScb.obj
 0002:00015620       ??_C@_0CN@FPKLKJOO@GetString?3?5SET_LOOK_TARGET?0?5?$CFs?5n@ 20130620     g_ICARUScb.obj
 0002:00015650       ??_C@_0CM@CDPIGBJF@Q3_GetString?3?5invalid?5ent?5?$CFs?5has@ 20130650     g_ICARUScb.obj
 0002:0001567c       ??_C@_0BK@BBPCHLFN@Q3_SetAngles?3?5bad?5ent?5?$CFd?6?$AA@ 2013067c     g_ICARUScb.obj
 0002:00015698       ??_C@_0CI@HPKHKLDB@Q3_Lerp2Origin?3?5ent?5?$CFd?5is?5NOT?5a?5@ 20130698     g_ICARUScb.obj
 0002:000156c0       ??_C@_0CC@EKKFAJJE@Q3_Lerp2Origin?3?5invalid?5entID?5?$CFd@ 201306c0     g_ICARUScb.obj
 0002:000156e4       ??_C@_0CM@ELAHCLFA@Q3_SetOriginOffset?3?5ent?5?$CFd?5is?5NO@ 201306e4     g_ICARUScb.obj
 0002:00015710       ??_C@_0CG@CHMNJDMD@Q3_SetOriginOffset?3?5invalid?5entI@ 20130710     g_ICARUScb.obj
 0002:00015738       ??_C@_0N@NMDKICME@?$CFs?5?$CFf?5?$CF?$CKs?5?$CFf?$AA@ 20130738     g_ICARUScb.obj
 0002:00015748       ??_C@_09MMEFJEMK@?$CFf?5?$CF?$CKs?5?$CFi?$AA@ 20130748     g_ICARUScb.obj
 0002:00015754       ??_C@_09ELNNIIAF@?$CFf?5?$CF?$CKs?5?$CFf?$AA@ 20130754     g_ICARUScb.obj
 0002:00015760       ??_C@_0DD@JBAPGJBO@?$CF?$CKs?5?$CFf?5?$CFf?5?$CFf?5?$CF?$CKs?5?$CFf?5?$CF?$CKs?5?$CF?$CKs?5?$CFf?5?$CF@ 20130760     g_ICARUScb.obj
 0002:00015794       ??_C@_0CF@OGHEHLCD@?$CF?$CKs?5?$CFf?5?$CFf?5?$CFf?5?$CF?$CKs?5?$CF?$CKs?5?$CFf?5?$CFf?5?$CFf?5?$CF?$CK@ 20130794     g_ICARUScb.obj
 0002:000157bc       ??_C@_0BE@OPEMBMCB@?$CF?$CKs?5?$CFf?5?$CFf?5?$CFf?5?$CF?$CKs?5?$CFf?$AA@ 201307bc     g_ICARUScb.obj
 0002:000157d0       ??_C@_0BO@NEIEBHHA@SET_HUD?3?5NOT?5SUPPORTED?5IN?5MP?6?$AA@ 201307d0     g_ICARUScb.obj
 0002:000157f0       ??_C@_0CJ@NFLMPJMH@SET_CLOSINGCREDITS?3?5NOT?5SUPPORTE@ 201307f0     g_ICARUScb.obj
 0002:0001581c       ??_C@_0CM@CKOEEDBF@SET_MISSIONSTATUSTIME?3?5NOT?5SUPPO@ 2013081c     g_ICARUScb.obj
 0002:00015848       ??_C@_0CM@KNDGBPPG@SET_MISSIONSTATUSTEXT?3?5NOT?5SUPPO@ 20130848     g_ICARUScb.obj
 0002:00015874       ??_C@_0BG@IOEGGKJF@Co?9Op?5Mission?5Failed?4?$AA@ 20130874     g_ICARUScb.obj
 0002:0001588c       ??_C@_0BJ@GPKGLAHK@cp?5?$CC?$FO1Mission?5Failed?6?$CFs?$CC?$AA@ 2013088c     g_ICARUScb.obj
 0002:000158a8       ??_C@_0N@KMACKPKL@SP_INGAME_?$CFs?$AA@ 201308a8     g_ICARUScb.obj
 0002:000158b8       ??_C@_0CN@JPBDDHDN@SET_OBJECTIVE_CLEARALL?3?5NOT?5SUPP@ 201308b8     g_ICARUScb.obj
 0002:000158e8       ??_C@_0CE@HHBGLLNI@cp?5?$CC?$FO1Mission?5Objective?5Failed?3?6@ 201308e8     g_ICARUScb.obj
 0002:0001590c       ??_C@_0CG@OBNCMHKO@cp?5?$CC?$FO4Mission?5Objective?5Complete@ 2013090c     g_ICARUScb.obj
 0002:00015934       ??_C@_0CJ@BJMJJPAM@SET_OBJECTIVE_HIDE?3?5NOT?5SUPPORTE@ 20130934     g_ICARUScb.obj
 0002:00015960       ??_C@_0CB@DNCCMHFC@cp?5?$CC?$FO4New?5Mission?5Objective?3?6?$CFs?$CC@ 20130960     g_ICARUScb.obj
 0002:00015984       ??_C@_0O@DMMLDNHP@OBJECTIVES_?$CFs?$AA@ 20130984     g_ICARUScb.obj
 0002:00015994       ??_C@_0CD@FAIDDGDB@SET_LOADGAME?3?5NOT?5SUPPORTED?5IN?5M@ 20130994     g_ICARUScb.obj
 0002:000159b8       ??_C@_0BD@HADIIBLN@inGameCinematic?5?$CFs?$AA@ 201309b8     g_ICARUScb.obj
 0002:000159cc       ??_C@_0DA@HIILJFBD@SET_MISSION_STATUS_SCREEN?3?5NOT?5S@ 201309cc     g_ICARUScb.obj
 0002:000159fc       ??_C@_0CN@JHPKMNGP@SET_END_SCREENDISSOLVE?3?5NOT?5SUPP@ 201309fc     g_ICARUScb.obj
 0002:00015a2c       ??_C@_06KKBPGBGI@locked?$AA@ 20130a2c     g_ICARUScb.obj
 0002:00015a34       ??_C@_08KOCPJOKL@unlocked?$AA@ 20130a34     g_ICARUScb.obj
 0002:00015a40       ??_C@_0CG@DNAENFCD@Q3_SetInterface?3?5NOT?5SUPPORTED?5I@ 20130a40     g_ICARUScb.obj
 0002:00015a68       ??_C@_0CH@JCFAIGEJ@SET_TREASONED?5is?5disabled?0?5do?5no@ 20130a68     g_ICARUScb.obj
 0002:00015a90       ??_C@_0CE@IBMFOANF@Q3_SetBehaviorSet?3?5Invalid?5bSet?5@ 20130a90     g_ICARUScb.obj
 0002:00015ab4       ??_C@_0CC@DOMMKNNO@Q3_SetDefendTarget?5unimplemented@ 20130ab4     g_ICARUScb.obj
 0002:00015ad8       ??_C@_0BO@EICFGPMP@SET_LEAN?5NOT?5SUPPORTED?5IN?5MP?6?$AA@ 20130ad8     g_ICARUScb.obj
 0002:00015af8       ??_C@_05LAPONLG@false?$AA@ 20130af8     g_ICARUScb.obj
 0002:00015b00       ??_C@_04LOAJBDKD@true?$AA@ 20130b00     g_ICARUScb.obj
 0002:00015b08       ??_C@_0CM@KBGGANFK@Q3_SetAnimLower?3?5?$CFs?5does?5not?5hav@ 20130b08     g_ICARUScb.obj
 0002:00015b34       ??_C@_0CM@NCFHKIBJ@Q3_SetAnimUpper?3?5?$CFs?5does?5not?5hav@ 20130b34     g_ICARUScb.obj
 0002:00015b60       ??_C@_04FKOMJDGK@NPC_?$AA@ 20130b60     g_ICARUScb.obj
 0002:00015b68       __real@406fc00000000000    20130b68     g_items.obj
 0002:00015b70       ??_C@_0BM@JFNNBAEN@sound?1effects?1bumpfield?4wav?$AA@ 20130b70     g_items.obj
 0002:00015b8c       ??_C@_0CG@PPCIBEMP@sound?1movers?1doors?1forcefield_of@ 20130b8c     g_items.obj
 0002:00015bb4       ??_C@_0CF@LBOFOBEJ@sound?1movers?1doors?1forcefield_on@ 20130bb4     g_items.obj
 0002:00015bdc       ??_C@_0CA@IPNCHNFD@sound?1weapons?1detpack?1stick?4wav?$AA@ 20130bdc     g_items.obj
 0002:00015bfc       ??_C@_0CF@LJNBJIDP@sound?1movers?1doors?1forcefield_lp@ 20130bfc     g_items.obj
 0002:00015c24       ??_C@_0BP@OJENPHJJ@sound?1chars?1turret?1startup?4wav?$AA@ 20130c24     g_items.obj
 0002:00015c44       ??_C@_0BM@MAPGBELF@sound?1chars?1turret?1ping?4wav?$AA@ 20130c44     g_items.obj
 0002:00015c60       __real@491c4000            20130c60     g_items.obj
 0002:00015c64       ??_C@_0CA@DICAJEGI@sound?1chars?1turret?1shutdown?4wav?$AA@ 20130c64     g_items.obj
 0002:00015c88       __real@3fecccccc0000000    20130c88     g_items.obj
 0002:00015c90       ??_C@_06IMIHEKN@remote?$AA@ 20130c90     g_items.obj
 0002:00015c98       ??_C@_0BB@HABBMFAB@sound?1boba?1JETON?$AA@ 20130c98     g_items.obj
 0002:00015cac       __real@3f8ccccd            20130cac     g_items.obj
 0002:00015cb0       ??_C@_0CJ@GLDMAFKL@WARNING?3?5E?9Web?5has?5no?5free?5bone?5@ 20130cb0     g_items.obj
 0002:00015cdc       ??_C@_0BI@PAKJOHBB@turret?1muzzle_flash?4efx?$AA@ 20130cdc     g_items.obj
 0002:00015cf4       ??_C@_0N@LEJMDHBI@generic_proj?$AA@ 20130cf4     g_items.obj
 0002:00015d04       ??_C@_0M@PPCEEDBK@cannon_Xrot?$AA@ 20130d04     g_items.obj
 0002:00015d10       ??_C@_0M@MCEEGKKK@cannon_Yrot?$AA@ 20130d10     g_items.obj
 0002:00015d1c       ??_C@_0N@MEJHFJDP@?$CKcannonflash?$AA@ 20130d1c     g_items.obj
 0002:00015d2c       __real@43400000            20130d2c     g_items.obj
 0002:00015d30       ??_C@_0BF@GCEDHLNA@sound?1items?1respawn1?$AA@ 20130d30     g_items.obj
 0002:00015d48       ??_C@_0BM@BNLFEEPK@RespawnItem?3?5bad?5teammaster?$AA@ 20130d48     g_items.obj
 0002:00015d64       ??_C@_0N@OCCHADDH@Item?3?5?$CFi?5?$CFs?6?$AA@ 20130d64     g_items.obj
 0002:00015d74       ??_C@_0CJ@EMOANFCC@FinishSpawningItem?3?5?$CFs?5startsoli@ 20130d74     g_items.obj
 0002:00015da0       __real@417e6666            20130da0     g_items.obj
 0002:00015da4       ??_C@_0CH@HHMBIMLK@?$FO3WARNING?3?5No?5team_CTF_blueflag?5@ 20130da4     g_items.obj
 0002:00015dcc       ??_C@_0CG@DNHJENHJ@?$FO3WARNING?3?5No?5team_CTF_redflag?5i@ 20130dcc     g_items.obj
 0002:00015df4       ??_C@_0BD@LOGEPNHD@RegisterItem?3?5NULL?$AA@ 20130df4     g_items.obj
 0002:00015e08       ??_C@_0L@BHNPAADM@disable_?$CFs?$AA@ 20130e08     g_items.obj
 0002:00015e14       ??_C@_0DA@BNIPPBOB@Error?3?5G_AmmoDisabled?5couldn?8t?5f@ 20130e14     g_items.obj
 0002:00015e44       ??_C@_0DB@CBODIJGE@Error?3?5G_AmmoDisabled?5run?5for?5an@ 20130e44     g_items.obj
 0002:00015e78       ??_C@_0O@MNEGCFDN@noglobalsound?$AA@ 20130e78     g_items.obj
 0002:00015e88       ??_C@_04PNOAOIAG@wait?$AA@ 20130e88     g_items.obj
 0002:00015e90       __real@3f1a36e2e0000000    20130e90     g_items.obj
 0002:00015e98       ??_C@_09NHBGIJCK@sentryGun?$AA@ 20130e98     g_items.obj
 0002:00015ea4       ??_C@_0BG@OPKCOLIH@detpack?1explosion?4efx?$AA@ 20130ea4     g_items.obj
 0002:00015ebc       ??_C@_06KJINBPNG@Turret?$AA@ 20130ebc     g_log.obj
 0002:00015ec4       ??_C@_0N@ECMOFALD@Emplaced?5gun?$AA@ 20130ec4     g_log.obj
 0002:00015ed4       ??_C@_07MIOHHHKI@Detpack?$AA@ 20130ed4     g_log.obj
 0002:00015edc       ??_C@_08LAHOBLIM@Tripmine?$AA@ 20130edc     g_log.obj
 0002:00015ee8       ??_C@_07GBNCFIAM@Thermal?$AA@ 20130ee8     g_log.obj
 0002:00015ef0       ??_C@_0BA@DJIGCIDL@Rocket?5Launcher?$AA@ 20130ef0     g_log.obj
 0002:00015f00       ??_C@_09NIJHHNG@Flechette?$AA@ 20130f00     g_log.obj
 0002:00015f0c       ??_C@_05PLOLPNOE@Demp2?$AA@ 20130f0c     g_log.obj
 0002:00015f14       ??_C@_08HKBCBJDF@Repeater?$AA@ 20130f14     g_log.obj
 0002:00015f20       ??_C@_09NDLJKDAE@Bowcaster?$AA@ 20130f20     g_log.obj
 0002:00015f2c       ??_C@_09DKCOIMMC@Disruptor?$AA@ 20130f2c     g_log.obj
 0002:00015f38       ??_C@_07HHOBKAAD@Blaster?$AA@ 20130f38     g_log.obj
 0002:00015f40       ??_C@_0N@KFIALKIM@Bryar?5Pistol?$AA@ 20130f40     g_log.obj
 0002:00015f50       ??_C@_05KCEPFHMP@Saber?$AA@ 20130f50     g_log.obj
 0002:00015f58       ??_C@_0L@IAAENFDO@Stun?5Baton?$AA@ 20130f58     g_log.obj
 0002:00015f64       ??_C@_09CPHJPBDM@No?5Weapon?$AA@ 20130f64     g_log.obj
 0002:00015f70       ??_C@_0CB@FOMKLEFI@Damage?9Typed?5Kills?5per?5Player?3?6?6@ 20130f70     g_log.obj
 0002:00015f94       ??_C@_0BL@MFCNIKCL@Typed?5Damage?5per?5Player?3?6?6?$AA@ 20130f94     g_log.obj
 0002:00015fb0       ??_C@_0BL@JIOEEMEF@Weapon?5Kills?5per?5Player?3?6?6?$AA@ 20130fb0     g_log.obj
 0002:00015fcc       ??_C@_0BM@LIHNDKLG@Weapon?5Damage?5per?5Player?3?6?6?$AA@ 20130fcc     g_log.obj
 0002:00015fe8       ??_C@_0BM@KPDEJINI@Weapon?5Deaths?5per?5Player?3?6?6?$AA@ 20130fe8     g_log.obj
 0002:00016004       ??_C@_0BO@BFNFPBI@Weapon?5Use?5Time?5per?5Player?3?6?6?$AA@ 20131004     g_log.obj
 0002:00016024       ??_C@_0BL@CJNMLKAL@Weapon?5Shots?5per?5Player?3?6?6?$AA@ 20131024     g_log.obj
 0002:00016040       ??_C@_03EGHOKNNL@?6?6?6?$AA@ 20131040     g_log.obj
 0002:00016044       ??_C@_0L@MKEHHKLO@?6?$CK?$CK?$CKTOTAL?3?$AA@ 20131044     g_log.obj
 0002:00016050       ??_C@_03JMKEEFMB@?7?$CFd?$AA@ 20131050     g_log.obj
 0002:00016054       ??_C@_09MGFHLAFE@?$DMUnknown?$DO?$AA@ 20131054     g_log.obj
 0002:00016060       ??_C@_03JJCHMBFH@?7?$CFs?$AA@ 20131060     g_log.obj
 0002:00016064       ??_C@_0BN@MEEADNMP@Weapon?5Pickups?5per?5Player?3?6?6?$AA@ 20131064     g_log.obj
 0002:00016084       ??_C@_0BA@KOEEDGLD@?6?6?6Level?3?7?$CFs?6?6?6?$AA@ 20131084     g_log.obj
 0002:00016094       ??_C@_0CB@PAFHPFHO@?$CF25s?3?5?5Damage?3?5?$CF6d?0?5?5Kills?3?5?$CF5d?6@ 20131094     g_log.obj
 0002:000160b8       ??_C@_0CC@IGLCDGIG@?6?$CK?$CK?$CK?$CKCombat?5Data?5By?5Damage?5Type?3@ 201310b8     g_log.obj
 0002:000160dc       ??_C@_0DE@JELLGPPF@?$CF15s?3?5?5Damage?3?5?$CF6d?0?5?5Kills?3?5?$CF5d?0@ 201310dc     g_log.obj
 0002:00016110       ??_C@_0BN@FIPOFFMM@?6?$CK?$CK?$CK?$CKCombat?5Data?5by?5Weapon?3?6?$AA@ 20131110     g_log.obj
 0002:00016130       ??_C@_0DA@FNJFIEEP@?$CF15s?3?5?5Pickups?3?5?$CF4d?0?5?5Time?3?5?5?$CF5d@ 20131130     g_log.obj
 0002:00016160       ??_C@_0BG@ONGDBFEP@?6?$CK?$CK?$CK?$CKData?5by?5Weapon?3?6?$AA@ 20131160     g_log.obj
 0002:00016178       ??_C@_0CK@PKHINOIC@?$CK?$CK?$CK?$CK?$CK?$CK?$CK?$CK?$CK?$CK?$CK?$CK?$CK?$CK?$CK?$CK?$CK?$CK?$CK?$CK?$CK?$CK?$CK?$CK?$CK?$CK?$CK?$CK?$CKWea@ 20131178     g_log.obj
 0002:000161a8       ??_C@_0HA@BJGPOMPP@This?5server?5is?5running?5OJP?5Basic@ 201311a8     g_main.obj
 0002:00016218       ??_C@_08FGADKLKA@ojp_MOTD?$AA@ 20131218     g_main.obj
 0002:00016224       ??_C@_0P@CJMDLLFL@ojp_clientMOTD?$AA@ 20131224     g_main.obj
 0002:00016234       ??_C@_02PJNFELNH@30?$AA@   20131234     g_main.obj
 0002:00016238       ??_C@_0BE@PNCNIINE@g_corpseRemovalTime?$AA@ 20131238     g_main.obj
 0002:0001624c       ??_C@_0O@GODFPPPO@bot_cpu_usage?$AA@ 2013124c     g_main.obj
 0002:0001625c       ??_C@_0M@FLFIAPIC@255?5255?5255?$AA@ 2013125c     g_main.obj
 0002:00016268       ??_C@_0P@BGCCDGH@ojp_spmodelrgb?$AA@ 20131268     g_main.obj
 0002:00016278       ??_C@_03DIELNALK@jan?$AA@  20131278     g_main.obj
 0002:0001627c       ??_C@_0M@GFJKPIBO@ojp_spmodel?$AA@ 2013127c     g_main.obj
 0002:00016288       ??_C@_0BC@MCDIPNFA@ojp_skipcutscenes?$AA@ 20131288     g_main.obj
 0002:0001629c       ??_C@_06HNKPDEND@mapURL?$AA@ 2013129c     g_main.obj
 0002:000162a4       ??_C@_0BA@LKLOOHJN@g_allowBotLimit?$AA@ 201312a4     g_main.obj
 0002:000162b4       ??_C@_09BFGHHNHF@g_maxBots?$AA@ 201312b4     g_main.obj
 0002:000162c0       ??_C@_0M@KKHGNHKK@g_minHumans?$AA@ 201312c0     g_main.obj
 0002:000162cc       ??_C@_0P@JMKMDFGK@g_logDuelStats?$AA@ 201312cc     g_main.obj
 0002:000162dc       ??_C@_0M@NHLLHJKC@g_duelStats?$AA@ 201312dc     g_main.obj
 0002:000162e8       ??_C@_0BD@DBMPDOLK@g_playerDuelShield?$AA@ 201312e8     g_main.obj
 0002:000162fc       ??_C@_0M@GLNFAALG@g_multiDuel?$AA@ 201312fc     g_main.obj
 0002:00016308       ??_C@_0M@BMOHFNJH@g_duelTimer?$AA@ 20131308     g_main.obj
 0002:00016314       ??_C@_0P@PLEAPNHK@bot_thinklevel?$AA@ 20131314     g_main.obj
 0002:00016324       ??_C@_0BF@HEMLOJBG@g_powerDuelEndHealth?$AA@ 20131324     g_main.obj
 0002:0001633c       ??_C@_03GLMKKOKP@150?$AA@  2013133c     g_main.obj
 0002:00016340       ??_C@_0BH@CDIBHMCP@g_powerDuelStartHealth?$AA@ 20131340     g_main.obj
 0002:00016358       ??_C@_0BC@FPNNEGCD@g_showDuelHealths?$AA@ 20131358     g_main.obj
 0002:0001636c       ??_C@_0L@DAEEHDAH@g_austrian?$AA@ 2013136c     g_main.obj
 0002:00016378       ??_C@_0BF@DPGGOCKB@d_noIntermissionWait?$AA@ 20131378     g_main.obj
 0002:00016390       ??_C@_0N@HKKKJLPN@g_siegeTeam2?$AA@ 20131390     g_main.obj
 0002:000163a0       ??_C@_0N@FBIHMIDO@g_siegeTeam1?$AA@ 201313a0     g_main.obj
 0002:000163b0       ??_C@_0N@DPKJPEMM@g_npcspskill?$AA@ 201313b0     g_main.obj
 0002:000163c0       ??_C@_0O@EFILLAD@d_saberCombat?$AA@ 201313c0     g_main.obj
 0002:000163d0       ??_C@_0O@KBBKEPAG@d_slowmodeath?$AA@ 201313d0     g_main.obj
 0002:000163e0       ??_C@_0BG@OHLJLMIG@d_asynchronousGroupAI?$AA@ 201313e0     g_main.obj
 0002:000163f8       ??_C@_0M@KDCPFGFC@d_noGroupAI?$AA@ 201313f8     g_main.obj
 0002:00016404       ??_C@_08FGECBEPC@d_JediAI?$AA@ 20131404     g_main.obj
 0002:00016410       ??_C@_0M@JHJLEPDG@d_npcfreeze?$AA@ 20131410     g_main.obj
 0002:0001641c       ??_C@_07EHELAHI@d_npcai?$AA@ 2013141c     g_main.obj
 0002:00016424       ??_C@_07BOCLBODN@d_break?$AA@ 20131424     g_main.obj
 0002:0001642c       ??_C@_0M@GIJCBOLH@d_npcaiming?$AA@ 2013142c     g_main.obj
 0002:00016438       ??_C@_08MPEFLAKD@d_noroam?$AA@ 20131438     g_main.obj
 0002:00016444       ??_C@_0BF@EEKIGGHA@d_saberSPStyleDamage?$AA@ 20131444     g_main.obj
 0002:0001645c       ??_C@_0BF@FJGJKEAP@g_saberRestrictForce?$AA@ 2013145c     g_main.obj
 0002:00016474       ??_C@_0BH@LALHPAIJ@g_saberRealisticCombat?$AA@ 20131474     g_main.obj
 0002:0001648c       ??_C@_09BHDNFBCL@d_patched?$AA@ 2013148c     g_main.obj
 0002:00016498       ??_C@_0M@DKNJPLAK@d_altRoutes?$AA@ 20131498     g_main.obj
 0002:000164a4       ??_C@_0BE@PKCIBOOO@g_autoBanTKSpammers?$AA@ 201314a4     g_main.obj
 0002:000164b8       ??_C@_0BF@BOCGFHGA@g_autoKickTKSpammers?$AA@ 201314b8     g_main.obj
 0002:000164d0       ??_C@_0BG@NDKAELLB@g_autoBanKillSpammers?$AA@ 201314d0     g_main.obj
 0002:000164e8       ??_C@_0BH@HJKAODEO@g_autoKickKillSpammers?$AA@ 201314e8     g_main.obj
 0002:00016500       ??_C@_0BB@JFDLGIMF@g_vehAutoAimLead?$AA@ 20131500     g_main.obj
 0002:00016514       ??_C@_0BF@KOOBPECE@bg_fighterAltControl?$AA@ 20131514     g_main.obj
 0002:0001652c       ??_C@_0BC@HHPGHHIK@g_siegeTeamSwitch?$AA@ 2013152c     g_main.obj
 0002:00016540       ??_C@_0BD@FJOJPMLN@d_saberStanceDebug?$AA@ 20131540     g_main.obj
 0002:00016554       ??_C@_03KHGJEAFP@0?44?$AA@ 20131554     g_main.obj
 0002:00016558       ??_C@_0BH@EKBEPDMH@g_saberWallDamageScale?$AA@ 20131558     g_main.obj
 0002:00016570       ??_C@_0BG@HDBKMGHE@g_saberLockRandomNess?$AA@ 20131570     g_main.obj
 0002:00016588       ??_C@_0BC@FMBEGICA@g_debugSaberLocks?$AA@ 20131588     g_main.obj
 0002:0001659c       ??_C@_0BG@ILAOLKEC@g_saberDmgDelay_Wound?$AA@ 2013159c     g_main.obj
 0002:000165b4       ??_C@_03MBMDGGCE@350?$AA@  201315b4     g_main.obj
 0002:000165b8       ??_C@_0BF@CAPOCMN@g_saberDmgDelay_Idle?$AA@ 201315b8     g_main.obj
 0002:000165d0       ??_C@_0BI@GFPNDEOK@g_saberDmgVelocityScale?$AA@ 201315d0     g_main.obj
 0002:000165e8       ??_C@_0BA@GGPAFJBF@g_timeouttospec?$AA@ 201315e8     g_main.obj
 0002:000165f8       ??_C@_0N@GCCLAGDM@g_forceDodge?$AA@ 201315f8     g_main.obj
 0002:00016608       ??_C@_0M@CIHFLNHE@g_dismember?$AA@ 20131608     g_main.obj
 0002:00016614       ??_C@_0M@HOGKGHBI@pmove_fixed?$AA@ 20131614     g_main.obj
 0002:00016620       ??_C@_0BA@EKPBHCCJ@g_smoothClients?$AA@ 20131620     g_main.obj
 0002:00016630       ??_C@_0P@INMNNPOJ@g_enableBreath?$AA@ 20131630     g_main.obj
 0002:00016640       ??_C@_0BG@JDIGCOKJ@ui_singlePlayerActive?$AA@ 20131640     g_main.obj
 0002:00016658       ??_C@_0N@JIFICDHI@g_listEntity?$AA@ 20131658     g_main.obj
 0002:00016668       ??_C@_0BE@HADMCLDH@ojp_chatProtectTime?$AA@ 20131668     g_main.obj
 0002:0001667c       ??_C@_0BA@GLJJEDLI@g_AllowKickVote?$AA@ 2013167c     g_main.obj
 0002:0001668c       ??_C@_0P@CIDAEKMP@g_AllowMapVote?$AA@ 2013168c     g_main.obj
 0002:0001669c       ??_C@_0BE@CAEOIECF@g_allowGametypeVote?$AA@ 2013169c     g_main.obj
 0002:000166b0       ??_C@_0BA@MDONFBLL@g_allowTeamVote?$AA@ 201316b0     g_main.obj
 0002:000166c0       ??_C@_0M@MECNLONK@g_allowVote?$AA@ 201316c0     g_main.obj
 0002:000166cc       ??_C@_0N@NHMKEGEN@g_podiumDrop?$AA@ 201316cc     g_main.obj
 0002:000166dc       ??_C@_02PFIAKEDG@80?$AA@   201316dc     g_main.obj
 0002:000166e0       ??_C@_0N@CBICAJMD@g_podiumDist?$AA@ 201316e0     g_main.obj
 0002:000166f0       ??_C@_09DKNLLEN@com_blood?$AA@ 201316f0     g_main.obj
 0002:000166fc       ??_C@_06IBNENCEO@g_motd?$AA@ 201316fc     g_main.obj
 0002:00016704       ??_C@_0BC@PBKDCGIC@g_debugServerSkel?$AA@ 20131704     g_main.obj
 0002:00016718       ??_C@_0N@CGHOHBHC@g_debugAlloc?$AA@ 20131718     g_main.obj
 0002:00016728       ??_C@_0M@EPOBGCBB@g_debugMove?$AA@ 20131728     g_main.obj
 0002:00016734       ??_C@_0N@JGEKALLI@g_inactivity?$AA@ 20131734     g_main.obj
 0002:00016744       ??_C@_0P@KFLGMOAC@g_siegeRespawn?$AA@ 20131744     g_main.obj
 0002:00016754       ??_C@_02PPBOIJDM@60?$AA@   20131754     g_main.obj
 0002:00016758       ??_C@_0P@JEPDGNEP@g_forcerespawn?$AA@ 20131758     g_main.obj
 0002:00016768       ??_C@_0P@NICEABAK@g_adaptrespawn?$AA@ 20131768     g_main.obj
 0002:00016778       ??_C@_0BE@CNNPIPEC@g_weaponTeamRespawn?$AA@ 20131778     g_main.obj
 0002:0001678c       ??_C@_01BMBHCPLG@5?$AA@    2013178c     g_main.obj
 0002:00016790       ??_C@_0BA@CMOCDPF@g_weaponrespawn?$AA@ 20131790     g_main.obj
 0002:000167a0       ??_C@_0N@LCBCFAFA@g_quadfactor?$AA@ 201317a0     g_main.obj
 0002:000167b0       ??_C@_04KOJKLCBG@1000?$AA@ 201317b0     g_main.obj
 0002:000167b8       ??_C@_0M@PDFGFIOM@g_knockback?$AA@ 201317b8     g_main.obj
 0002:000167c4       ??_C@_0P@OENLEBCO@tiers_complete?$AA@ 201317c4     g_main.obj
 0002:000167d4       ??_C@_0P@LJKILKNC@tier_storyinfo?$AA@ 201317d4     g_main.obj
 0002:000167e4       ??_C@_09BPGLCANO@storyhead?$AA@ 201317e4     g_main.obj
 0002:000167f0       ??_C@_03BAAJCDMO@800?$AA@  201317f0     g_main.obj
 0002:000167f4       ??_C@_09HNGNBNKN@g_gravity?$AA@ 201317f4     g_main.obj
 0002:00016800       ??_C@_03HJHPABEB@250?$AA@  20131800     g_main.obj
 0002:00016804       ??_C@_07KCHPCPJD@g_speed?$AA@ 20131804     g_main.obj
 0002:0001680c       ??_C@_09DNECJBKD@developer?$AA@ 2013180c     g_main.obj
 0002:00016818       ??_C@_09BJOAODLF@dedicated?$AA@ 20131818     g_main.obj
 0002:00016824       ??_C@_0L@MLCEEGBP@g_needpass?$AA@ 20131824     g_main.obj
 0002:00016830       ??_C@_0M@NIKBMNDP@g_filterBan?$AA@ 20131830     g_main.obj
 0002:0001683c       ??_C@_08NKMDLNHL@g_banIPs?$AA@ 2013183c     g_main.obj
 0002:00016848       ??_C@_0L@GHAPAPFD@g_password?$AA@ 20131848     g_main.obj
 0002:00016854       ??_C@_0M@IDBCKIML@statlog?4log?$AA@ 20131854     g_main.obj
 0002:00016860       ??_C@_0O@LJAMKCPN@g_statLogFile?$AA@ 20131860     g_main.obj
 0002:00016870       ??_C@_09MPFCGIGE@g_statLog?$AA@ 20131870     g_main.obj
 0002:0001687c       ??_C@_09IPDDEHO@g_logSync?$AA@ 2013187c     g_main.obj
 0002:00016888       ??_C@_09BNLGBMID@games?4log?$AA@ 20131888     g_main.obj
 0002:00016894       ??_C@_05PJEIAAGC@g_log?$AA@ 20131894     g_main.obj
 0002:0001689c       ??_C@_08HAMOJLDA@g_warmup?$AA@ 2013189c     g_main.obj
 0002:000168a8       ??_C@_0BD@CLGJCDLA@g_teamForceBalance?$AA@ 201318a8     g_main.obj
 0002:000168bc       ??_C@_0P@PONBNCIE@g_teamAutoJoin?$AA@ 201318bc     g_main.obj
 0002:000168cc       ??_C@_0BA@OLEFEKLA@g_friendlySaber?$AA@ 201318cc     g_main.obj
 0002:000168dc       ??_C@_0P@IEOFAMLI@g_friendlyFire?$AA@ 201318dc     g_main.obj
 0002:000168ec       ??_C@_0BD@HEIAADBN@d_saberInterpolate?$AA@ 201318ec     g_main.obj
 0002:00016900       ??_C@_0BF@LICFCALK@g_synchronousClients?$AA@ 20131900     g_main.obj
 0002:00016918       ??_C@_0N@FCAHJCDA@capturelimit?$AA@ 20131918     g_main.obj
 0002:00016928       ??_C@_02PKFBJPLJ@10?$AA@   20131928     g_main.obj
 0002:0001692c       ??_C@_0P@CFJBJECC@duel_fraglimit?$AA@ 2013192c     g_main.obj
 0002:0001693c       ??_C@_0BK@BMHLIDIL@g_fraglimitVoteCorrection?$AA@ 2013193c     g_main.obj
 0002:00016958       ??_C@_0BD@KCFCBDHK@g_allowDuelSuicide?$AA@ 20131958     g_main.obj
 0002:0001696c       ??_C@_0BE@EDCPOKDI@g_forcePowerDisable?$AA@ 2013196c     g_main.obj
 0002:00016980       ??_C@_04NEFKOBHG@3000?$AA@ 20131980     g_main.obj
 0002:00016988       ??_C@_0BH@MODHAGDO@g_spawnInvulnerability?$AA@ 20131988     g_main.obj
 0002:000169a0       ??_C@_03HPLEMDKK@200?$AA@  201319a0     g_main.obj
 0002:000169a4       ??_C@_0BB@HEMNENJN@g_forceRegenTime?$AA@ 201319a4     g_main.obj
 0002:000169b8       ??_C@_0BD@HGHMKODF@sv_privatePassword?$AA@ 201319b8     g_main.obj
 0002:000169cc       ??_C@_06JGIFLGEL@sv_fps?$AA@ 201319cc     g_main.obj
 0002:000169d4       ??_C@_03HIMFCAJL@RMG?$AA@  201319d4     g_main.obj
 0002:000169d8       ??_C@_0BD@HEBIMMFC@g_useWhileThrowing?$AA@ 201319d8     g_main.obj
 0002:000169ec       ??_C@_0BD@LOLGKFFL@g_saberDamageScale?$AA@ 201319ec     g_main.obj
 0002:00016a00       ??_C@_0BA@NNNILBMI@g_slowmoDuelEnd?$AA@ 20131a00     g_main.obj
 0002:00016a10       ??_C@_0BA@FJCJHCLC@g_logClientInfo?$AA@ 20131a10     g_main.obj
 0002:00016a20       ??_C@_0BH@OFEFINNB@g_allowHighPingDuelist?$AA@ 20131a20     g_main.obj
 0002:00016a38       ??_C@_0BG@GJEJMBNO@g_locationBasedDamage?$AA@ 20131a38     g_main.obj
 0002:00016a50       ??_C@_0BA@DKCLACHI@com_optvehtrace?$AA@ 20131a50     g_main.obj
 0002:00016a60       ??_C@_0N@HIGNPAIM@g_g2TraceLod?$AA@ 20131a60     g_main.obj
 0002:00016a70       ??_C@_0BM@EIHFLMHB@d_projectileGhoul2Collision?$AA@ 20131a70     g_main.obj
 0002:00016a8c       ??_C@_0BC@JEKMGMLC@d_perPlayerGhoul2?$AA@ 20131a8c     g_main.obj
 0002:00016aa0       ??_C@_0BB@GJBELIIP@d_siegeSeekerNPC?$AA@ 20131aa0     g_main.obj
 0002:00016ab4       ??_C@_0BE@LEOJHBNF@d_saberBoxTraceSize?$AA@ 20131ab4     g_main.obj
 0002:00016ac8       ??_C@_0BG@IBMMAMDL@d_saberAlwaysBoxTrace?$AA@ 20131ac8     g_main.obj
 0002:00016ae0       ??_C@_0BC@DEOHEJDD@g_saberBladeFaces?$AA@ 20131ae0     g_main.obj
 0002:00016af4       ??_C@_0BH@KMJFDBIB@d_saberGhoul2Collision?$AA@ 20131af4     g_main.obj
 0002:00016b0c       ??_C@_0BB@EELDEKFP@d_powerDuelPrint?$AA@ 20131b0c     g_main.obj
 0002:00016b20       ??_C@_0BB@FAOLIGPD@d_saberKickTweak?$AA@ 20131b20     g_main.obj
 0002:00016b34       ??_C@_0BH@IJJCLPPE@g_saberTraceSaberFirst?$AA@ 20131b34     g_main.obj
 0002:00016b4c       ??_C@_01FDFGLJHB@2?$AA@    20131b4c     g_main.obj
 0002:00016b50       ??_C@_0BC@DNAOHNEC@g_saberLockFactor?$AA@ 20131b50     g_main.obj
 0002:00016b64       ??_C@_0P@JIPDIBPM@g_saberLocking?$AA@ 20131b64     g_main.obj
 0002:00016b74       ??_C@_0O@OEFDJDKM@g_armBreakage?$AA@ 20131b74     g_main.obj
 0002:00016b84       ??_C@_0L@COPAPGHO@g_allowROQ?$AA@ 20131b84     g_main.obj
 0002:00016b90       ??_C@_0L@FLLBIKMH@g_allowNPC?$AA@ 20131b90     g_main.obj
 0002:00016b9c       ??_C@_0O@OPHIPHAF@g_privateDuel?$AA@ 20131b9c     g_main.obj
 0002:00016bac       ??_C@_0BC@PJKMCDAC@g_forceBasedTeams?$AA@ 20131bac     g_main.obj
 0002:00016bc0       ??_C@_01DHDKHMHF@6?$AA@    20131bc0     g_main.obj
 0002:00016bc4       ??_C@_0P@CHCANPBO@g_maxForceRank?$AA@ 20131bc4     g_main.obj
 0002:00016bd4       ??_C@_07GMGCLCAP@dmflags?$AA@ 20131bd4     g_main.obj
 0002:00016bdc       ??_C@_0P@FDDJNJFA@g_autoMapCycle?$AA@ 20131bdc     g_main.obj
 0002:00016bec       ??_C@_0BA@GEOGCBON@g_ff_objectives?$AA@ 20131bec     g_main.obj
 0002:00016bfc       ??_C@_0BB@JCLDAPBF@g_maxGameClients?$AA@ 20131bfc     g_main.obj
 0002:00016c10       ??_C@_0O@OCOCOONB@sv_maxclients?$AA@ 20131c10     g_main.obj
 0002:00016c20       ??_C@_01EKENIIDA@3?$AA@    20131c20     g_main.obj
 0002:00016c24       ??_C@_0BD@LBOACHNB@g_MaxHolocronCarry?$AA@ 20131c24     g_main.obj
 0002:00016c38       ??_C@_0L@DFBEGALI@sv_mapname?$AA@ 20131c38     g_main.obj
 0002:00016c44       ??_C@_0M@GHMJJAD@g_restarted?$AA@ 20131c44     g_main.obj
 0002:00016c50       ??_C@_08CLLHAKFA@gamedate?$AA@ 20131c50     g_main.obj
 0002:00016c5c       ??_C@_08HCPAIKAO@gamename?$AA@ 20131c5c     g_main.obj
 0002:00016c68       ??_C@_0N@NEBLEAPN@g_noSpecMove?$AA@ 20131c68     g_main.obj
 0002:00016c78       ??_C@_0P@HJKJKMBJ@g_stepSlideFix?$AA@ 20131c78     g_main.obj
 0002:00016c88       ??_C@_0N@HGBPBCI@g_debugMelee?$AA@ 20131c88     g_main.obj
 0002:00016c98       ??_C@_09NFOPKLIK@sv_cheats?$AA@ 20131c98     g_main.obj
 0002:00016ca4       ??_C@_0DA@HFHMPEPI@g_gametype?5?$CFi?5is?5out?5of?5range?0?5d@ 20131ca4     g_main.obj
 0002:00016cd4       ??_C@_0CC@FFJICNKE@print?5?$CCServer?3?5?$CFs?5changed?5to?5?$CFs?6@ 20131cd4     g_main.obj
 0002:00016cf8       ??_C@_01INIBCBCB@f?$AA@    20131cf8     g_main.obj
 0002:00016cfc       ??_C@_0BJ@LMMLDPE@info_player_intermission?$AA@ 20131cfc     g_main.obj
 0002:00016d18       ??_C@_0BO@OMFIECOL@info_player_intermission_blue?$AA@ 20131d18     g_main.obj
 0002:00016d38       ??_C@_0BN@KHJBHBG@info_player_intermission_red?$AA@ 20131d38     g_main.obj
 0002:00016d58       ??_C@_0O@PKDALKNK@vstr?5nextmap?6?$AA@ 20131d58     g_main.obj
 0002:00016d68       ??_C@_0P@BKKOFHJN@map_restart?50?6?$AA@ 20131d68     g_main.obj
 0002:00016d78       ??_C@_09OHCHOIDO@?$CF3i?3?$CFi?$CFi?5?$AA@ 20131d78     g_main.obj
 0002:00016d84       ??_C@_0CE@CGGOAMCD@score?3?5?$CFi?5?5ping?3?5?$CFi?5?5client?3?5?$CFi?5@ 20131d84     g_main.obj
 0002:00016da8       ??_C@_0BB@HEGEAGAN@red?3?$CFi?5?5blue?3?$CFi?6?$AA@ 20131da8     g_main.obj
 0002:00016dbc       ??_C@_09KHIKBPEI@Exit?3?5?$CFs?6?$AA@ 20131dbc     g_main.obj
 0002:00016dc8       ??_C@_0DM@GDLMFLCJ@Unable?5to?5save?5navigations?5data?5@ 20131dc8     g_main.obj
 0002:00016e04       ??_C@_0P@HEEKJLPJ@sv_mapChecksum?$AA@ 20131e04     g_main.obj
 0002:00016e14       ??_C@_05LIBGPKHK@?$EA?$EA?$EA?$CFs?$AA@ 20131e14     g_main.obj
 0002:00016e20       ??_C@_0EC@MALKJMJN@Couldn?8t?5find?5an?5FFA?5spawnpoint?5@ 20131e20     g_main.obj
 0002:00016e64       ??_C@_0DF@FAFFHIBP@Duel?5Tournament?5Begun?3?5kill?5limi@ 20131e64     g_main.obj
 0002:00016e9c       ??_C@_0CF@MDONDONI@models?1mapobjects?1podium?1podium4@ 20131e9c     g_main.obj
 0002:00016ec4       ??_C@_0BA@MOHNLIKA@com_buildScript?$AA@ 20131ec4     g_main.obj
 0002:00016ed4       ??_C@_07CKOIMEOL@?91?$HM?91?$HM?$CB?$AA@ 20131ed4     g_main.obj
 0002:00016edc       ??_C@_05LOGPBEKH@?91?$HM?91?$AA@ 20131edc     g_main.obj
 0002:00016ee4       ??_C@_08PILFCNOC@?91?$HM?91?$HM?91?$AA@ 20131ee4     g_main.obj
 0002:00016ef0       ??_C@_0BG@MOMCCAKP@Not?5logging?5to?5disk?4?6?$AA@ 20131ef0     g_main.obj
 0002:00016f08       ??_C@_0O@DEDEBKNJ@InitGame?3?5?$CFs?6?$AA@ 20131f08     g_main.obj
 0002:00016f18       ??_C@_0DO@BDNDJIG@?9?9?9?9?9?9?9?9?9?9?9?9?9?9?9?9?9?9?9?9?9?9?9?9?9?9?9?9?9?9?9?9@ 20131f18     g_main.obj
 0002:00016f58       ??_C@_0CE@PLBPIHPI@WARNING?3?5Couldn?8t?5open?5logfile?3?5@ 20131f58     g_main.obj
 0002:00016f7c       ??_C@_0BP@GDOLHBDJ@sound?1player?1supp_supplied?4wav?$AA@ 20131f7c     g_main.obj
 0002:00016f9c       ??_C@_0BN@IDFEOAJB@sound?1player?1supp_healed?4wav?$AA@ 20131f9c     g_main.obj
 0002:00016fbc       ??_C@_0BJ@DBDHPGLO@sound?1player?1hacking?4wav?$AA@ 20131fbc     g_main.obj
 0002:00016fd8       ??_C@_0BF@CCJLMEBG@sound?1player?1fry?4wav?$AA@ 20131fd8     g_main.obj
 0002:00016ff0       ??_C@_0O@LOFLFABD@gamedate?3?5?$CFs?6?$AA@ 20131ff0     g_main.obj
 0002:00017000       ??_C@_0O@MKINOKNK@gamename?3?5?$CFs?6?$AA@ 20132000     g_main.obj
 0002:00017010       ??_C@_0CF@FDKFKNJ@?9?9?9?9?9?9?9?5Game?5Initialization?5?9?9?9?9@ 20132010     g_main.obj
 0002:00017038       ??_C@_0P@OFNEJLIL@ShutdownGame?3?6?$AA@ 20132038     g_main.obj
 0002:00017048       ??_C@_0CP@EGEOEBCO@Duel?5Tournament?5Winner?3?5?$CFs?5wins?1@ 20132048     g_main.obj
 0002:00017078       ??_C@_05CGCOJECE@?$CFi?$HM?$CFi?$AA@ 20132078     g_main.obj
 0002:00017080       ??_C@_08FNOPOHAK@?$CFi?$HM?$CFi?$HM?$CFi?$AA@ 20132080     g_main.obj
 0002:0001708c       ??_C@_0DG@GOFBMMHO@Duel?5Initiated?3?5?$CFs?5?$CFd?1?$CFd?5vs?5?$CFs?5?$CF@ 2013208c     g_main.obj
 0002:000170c8       ??_C@_0EJ@LFNPBAHC@Power?5Duel?5Initiated?3?5?$CFs?5?$CFd?1?$CFd?5v@ 201320c8     g_main.obj
 0002:00017114       ??_C@_0CK@CHOPCJFP@loser?3?5?$CFs?0?5score?3?5?$CFd?0?5wins?1losse@ 20132114     g_main.obj
 0002:00017140       ??_C@_0CL@IEKFFIJI@winner?3?5?$CFs?0?5score?3?5?$CFd?0?5wins?1loss@ 20132140     g_main.obj
 0002:0001716c       ??_C@_0P@FABIANMM@Duel?5Results?3?6?$AA@ 2013216c     g_main.obj
 0002:0001717c       ??_C@_0BC@NGNDEIFJ@Capturelimit?5hit?4?$AA@ 2013217c     g_main.obj
 0002:00017190       ??_C@_0BC@DEIMONOO@HIT_CAPTURE_LIMIT?$AA@ 20132190     g_main.obj
 0002:000171a4       ??_C@_0M@PNOKILNH@print?5?$CC?$CFs?5?$CC?$AA@ 201321a4     g_main.obj
 0002:000171b0       ??_C@_0BC@NIPOHDO@print?5?$CC?$CFs?$FO7?5?$CFs?4?6?$CC?$AA@ 201321b0     g_main.obj
 0002:000171c4       ??_C@_0CJ@IDHHLDFJ@POWERDUEL?5WIN?5CONDITION?3?5Kill?5li@ 201321c4     g_main.obj
 0002:000171f0       ??_C@_0CB@KHKBFEAC@print?5?$CC?$CFs?$FO7?5hit?5the?5win?5limit?4?6?$CC@ 201321f0     g_main.obj
 0002:00017214       ??_C@_0BA@OFHKHJGE@Duel?5limit?5hit?4?$AA@ 20132214     g_main.obj
 0002:00017224       ??_C@_0CN@JINBFCKB@POWERDUEL?5WIN?5CONDITION?3?5Duel?5li@ 20132224     g_main.obj
 0002:00017254       ??_C@_0CJ@DLMLNEDM@POWERDUEL?5WIN?5CONDITION?3?5Kill?5li@ 20132254     g_main.obj
 0002:00017280       ??_C@_0BB@FOABFMP@print?5?$CCBlue?5?$CFs?6?$CC?$AA@ 20132280     g_main.obj
 0002:00017294       ??_C@_0CJ@CJHOHLNC@POWERDUEL?5WIN?5CONDITION?3?5Kill?5li@ 20132294     g_main.obj
 0002:000172c0       ??_C@_0BA@DIGKOKKH@print?5?$CCRed?5?$CFs?6?$CC?$AA@ 201322c0     g_main.obj
 0002:000172d0       ??_C@_0BD@CFGAAGAF@HIT_THE_KILL_LIMIT?$AA@ 201322d0     g_main.obj
 0002:000172e4       ??_C@_0BA@MEFBNHLF@Kill?5limit?5hit?4?$AA@ 201322e4     g_main.obj
 0002:000172f4       ??_C@_0BB@JLAKCCFL@Powerduel?5ended?4?$AA@ 201322f4     g_main.obj
 0002:00017308       ??_C@_0P@EKMAOGJF@Timelimit?5hit?4?$AA@ 20132308     g_main.obj
 0002:00017318       ??_C@_0CM@GNFACJPE@POWERDUEL?5WIN?5CONDITION?3?5Timelim@ 20132318     g_main.obj
 0002:00017344       ??_C@_0O@GEPEKDJM@TIMELIMIT_HIT?$AA@ 20132344     g_main.obj
 0002:00017354       ??_C@_0BL@KBEMCIHA@Everyone?5failed?5to?5escape?4?$AA@ 20132354     g_main.obj
 0002:00017370       ??_C@_0BD@HHDMPEOG@Escape?5time?5ended?4?$AA@ 20132370     g_main.obj
 0002:00017384       ??_C@_08FFAHPNKC@Warmup?3?6?$AA@ 20132384     g_main.obj
 0002:00017390       ??_C@_0ED@IOLPHHFO@Duel?5Initiated?3?5?$CFs?5?$CFd?1?$CFd?5vs?5?$CFs?5?$CF@ 20132390     g_main.obj
 0002:000173d4       ??_C@_0P@CAAODKMG@DUELMOREPAIRED?$AA@ 201323d4     g_main.obj
 0002:000173e4       ??_C@_0P@DOJINDEF@DUELMORESINGLE?$AA@ 201323e4     g_main.obj
 0002:000173f4       ??_C@_07NHPOBEAC@?$CFi?$HM?$CFi?$HM?$CB?$AA@ 201323f4     g_main.obj
 0002:000173fc       ??_C@_0L@KALLFILH@VOTEFAILED?$AA@ 201323fc     g_main.obj
 0002:00017408       ??_C@_0L@IGJPDJKJ@VOTEPASSED?$AA@ 20132408     g_main.obj
 0002:00017414       ??_C@_0O@PBOEBKAK@fraglimit?520?6?$AA@ 20132414     g_main.obj
 0002:00017424       ??_C@_0N@FBDOLDEB@timelimit?50?6?$AA@ 20132424     g_main.obj
 0002:00017434       ??_C@_0N@PEEGBFIB@fraglimit?53?6?$AA@ 20132434     g_main.obj
 0002:00017444       ??_C@_07NKFJBOH@map?5?$CFs?6?$AA@ 20132444     g_main.obj
 0002:0001744c       ??_C@_0P@DFODGNFP@TEAMVOTEPASSED?$AA@ 2013244c     g_main.obj
 0002:0001745c       ??_C@_0P@BDMHAMEB@TEAMVOTEFAILED?$AA@ 2013245c     g_main.obj
 0002:0001746c       ??_C@_08JBKNBCEM@?$CF4i?3?5?$CFs?6?$AA@ 2013246c     g_main.obj
 0002:00017478       ??_C@_0N@BMCJJOCA@?$CKchoke?$CFd?4wav?$AA@ 20132478     g_main.obj
 0002:00017488       __real@448fc000            20132488     g_main.obj
 0002:0001748c       ??_C@_04MOBPCLOP@0?41f?$AA@ 2013248c     g_main.obj
 0002:00017494       ??_C@_0CL@HPAAECKJ@G_Alloc?3?5failed?5on?5allocation?5of@ 20132494     g_mem.obj
 0002:000174c0       ??_C@_0BP@CMDJHEKJ@G_Alloc?5of?5?$CFi?5bytes?5?$CI?$CFi?5left?$CJ?6?$AA@ 201324c0     g_mem.obj
 0002:000174e0       ??_C@_0DC@GFNDCLPP@Game?5memory?5status?3?5?$CFi?5out?5of?5?$CFi@ 201324e0     g_mem.obj
 0002:00017514       ??_C@_01GLPGHMHM@z?$AA@    20132514     g_misc.obj
 0002:00017518       ??_C@_01MCMALHOG@a?$AA@    20132518     g_misc.obj
 0002:0001751c       ??_C@_09KNIPMNPE@style_off?$AA@ 2013251c     g_misc.obj
 0002:00017528       ??_C@_0N@OLFKIPC@switch_style?$AA@ 20132528     g_misc.obj
 0002:00017538       ??_C@_05IAKJCFIM@style?$AA@ 20132538     g_misc.obj
 0002:00017540       ??_C@_0BE@PFGIPPAI@chunks?1metalexplode?$AA@ 20132540     g_misc.obj
 0002:00017554       ??_C@_0DA@BFDJEOBJ@models?1map_objects?1nar_shaddar?1c@ 20132554     g_misc.obj
 0002:00017584       ??_C@_03KGFMDCCC@128?$AA@  20132584     g_misc.obj
 0002:00017588       ??_C@_02PMJKFNFC@40?$AA@   20132588     g_misc.obj
 0002:00017590       __real@4047000000000000    20132590     g_misc.obj
 0002:00017598       ??_C@_0BC@NIJKLIKF@env?1mini_flamejet?$AA@ 20132598     g_misc.obj
 0002:000175b0       __real@40c7700000000000    201325b0     g_misc.obj
 0002:000175b8       __real@40cf400000000000    201325b8     g_misc.obj
 0002:000175c0       ??_C@_0BA@DFCBGOEG@env?1mini_gasjet?$AA@ 201325c0     g_misc.obj
 0002:000175d0       __real@40b7700000000000    201325d0     g_misc.obj
 0002:000175d8       ??_C@_0CF@ILLGBECE@models?1map_objects?1imp_mine?1tank@ 201325d8     g_misc.obj
 0002:00017600       ??_C@_02MLODCJFF@32?$AA@   20132600     g_misc.obj
 0002:00017604       ??_C@_02DEEDNHFK@48?$AA@   20132604     g_misc.obj
 0002:00017608       ??_C@_0CO@BGNILIGB@Couldn?8t?5find?5target?5for?5misc_pa@ 20132608     g_misc.obj
 0002:00017638       ??_C@_04FBAPEKPH@roll?$AA@ 20132638     g_misc.obj
 0002:00017640       ??_C@_0L@MBKMBIKO@teamfilter?$AA@ 20132640     g_misc.obj
 0002:0001764c       ??_C@_03CGKDEGPM@?$CFd?9?$AA@ 2013264c     g_misc.obj
 0002:00017650       ??_C@_03FGKIIOAN@?$CD?$CFs?$AA@ 20132650     g_misc.obj
 0002:00017654       ??_C@_07FOIKENOC@flatten?$AA@ 20132654     g_misc.obj
 0002:0001765c       ??_C@_07GHILBEGP@spacing?$AA@ 2013265c     g_misc.obj
 0002:00017664       ??_C@_08DJMMLFAH@bspmodel?$AA@ 20132664     g_misc.obj
 0002:00017670       ??_C@_05FECBCJJD@angle?$AA@ 20132670     g_misc.obj
 0002:00017678       ??_C@_09JCAIHAHA@terrainId?$AA@ 20132678     g_misc.obj
 0002:00017684       ??_C@_0N@IFECBOCE@texturescale?$AA@ 20132684     g_misc.obj
 0002:00017694       ??_C@_05ECMHBHBD@0?4005?$AA@ 20132694     g_misc.obj
 0002:0001769c       ??_C@_06BILHELBG@shader?$AA@ 2013269c     g_misc.obj
 0002:000176a4       ??_C@_0L@IAMODEIG@densityMap?$AA@ 201326a4     g_misc.obj
 0002:000176b0       ??_C@_0L@CAPMJLLI@densitymap?$AA@ 201326b0     g_misc.obj
 0002:000176bc       ??_C@_06CLHLMAOB@inst?$CFd?$AA@ 201326bc     g_misc.obj
 0002:000176c4       ??_C@_0P@IBKAIJOE@RMG_instance?$CFd?$AA@ 201326c4     g_misc.obj
 0002:000176d4       ??_C@_0M@NKGFKFFJ@missionType?$AA@ 201326d4     g_misc.obj
 0002:000176e0       ??_C@_0L@DLGPKDDJ@miscentDef?$AA@ 201326e0     g_misc.obj
 0002:000176ec       ??_C@_0L@JLFNAMAH@miscentdef?$AA@ 201326ec     g_misc.obj
 0002:000176f8       ??_C@_0M@PCPFGGKB@instanceDef?$AA@ 201326f8     g_misc.obj
 0002:00017704       ??_C@_0M@FCMHMJJP@instancedef?$AA@ 20132704     g_misc.obj
 0002:00017710       ??_C@_0L@JAJIAHIH@terrainDef?$AA@ 20132710     g_misc.obj
 0002:0001771c       ??_C@_0L@DAKKKILJ@terraindef?$AA@ 2013271c     g_misc.obj
 0002:00017728       ??_C@_0M@JGCAAMDB@grassyhills?$AA@ 20132728     g_misc.obj
 0002:00017734       ??_C@_0L@OJKNJKNO@modelIndex?$AA@ 20132734     g_misc.obj
 0002:00017740       ??_C@_04FENHIDOM@maxz?$AA@ 20132740     g_misc.obj
 0002:00017748       ??_C@_04HPPKNACP@maxy?$AA@ 20132748     g_misc.obj
 0002:00017750       ??_C@_04GGOBOBGO@maxx?$AA@ 20132750     g_misc.obj
 0002:00017758       ??_C@_04IJMIHEMB@minz?$AA@ 20132758     g_misc.obj
 0002:00017760       ??_C@_04KCOFCHAC@miny?$AA@ 20132760     g_misc.obj
 0002:00017768       ??_C@_04LLPOBGED@minx?$AA@ 20132768     g_misc.obj
 0002:00017770       ??_C@_04MENKDCKE@seed?$AA@ 20132770     g_misc.obj
 0002:00017778       ??_C@_07KNCGMEDK@terxels?$AA@ 20132778     g_misc.obj
 0002:00017780       ??_C@_0L@KJMMNBMN@numPatches?$AA@ 20132780     g_misc.obj
 0002:0001778c       ??_C@_0L@FALKLDJL@numpatches?$AA@ 2013278c     g_misc.obj
 0002:00017798       ??_C@_03FKNPJMHG@400?$AA@  20132798     g_misc.obj
 0002:0001779c       ??_C@_09KOKFENCE@heightMap?$AA@ 2013279c     g_misc.obj
 0002:000177a8       ??_C@_09OJHOCBK@heightmap?$AA@ 201327a8     g_misc.obj
 0002:000177b4       ??_C@_0M@OEBAAE@RMG_mission?$AA@ 201327b4     g_misc.obj
 0002:000177c0       ??_C@_08HGLJJOAO@RMG_seed?$AA@ 201327c0     g_misc.obj
 0002:000177cc       ??_C@_0CM@OPFLPLP@?$CF?42f?5?$CF?42f?5?$CF?42f?5?$CF?41f?5?$CFi?5?$CF?42f?5?$CF?42f@ 201327cc     g_misc.obj
 0002:000177f8       ??_C@_06BCBEFNDA@fogfar?$AA@ 201327f8     g_misc.obj
 0002:00017800       ??_C@_03MHAIKEMP@300?$AA@  20132800     g_misc.obj
 0002:00017804       ??_C@_07JKLAPODK@fognear?$AA@ 20132804     g_misc.obj
 0002:0001780c       ??_C@_08MLCFJBLJ@fogcolor?$AA@ 2013280c     g_misc.obj
 0002:00017818       ??_C@_03PKBINKFB@fov?$AA@  20132818     g_misc.obj
 0002:0001781c       ??_C@_0DC@HIFLOKNA@SP_misc_holocron?3?5misc_holocron?5@ 2013281c     g_misc.obj
 0002:00017850       __real@40fccccd            20132850     g_misc.obj
 0002:00017854       ??_C@_0L@GHMBGJIB@chargerate?$AA@ 20132854     g_misc.obj
 0002:00017860       ??_C@_05IOMEMJEC@count?$AA@ 20132860     g_misc.obj
 0002:00017868       ??_C@_0CC@JMAKENB@sound?1interface?1shieldcon_run?4wa@ 20132868     g_misc.obj
 0002:0001788c       ??_C@_0CE@LCENAGGB@sound?1interface?1shieldcon_empty?4@ 2013288c     g_misc.obj
 0002:000178b0       ??_C@_0CC@MPFHOHEF@sound?1interface?1ammocon_empty?4mp@ 201328b0     g_misc.obj
 0002:000178d4       ??_C@_0CA@MBEFEPMB@sound?1interface?1ammocon_run?4wav?$AA@ 201328d4     g_misc.obj
 0002:000178f4       ??_C@_0CJ@LLCHHHPE@gfx?1mp?1siegeicons?1desert?1weapon_@ 201328f4     g_misc.obj
 0002:00017920       ??_C@_0CB@DEKPFAFO@sound?1interface?1ammocon_done?4mp3@ 20132920     g_misc.obj
 0002:00017944       ??_C@_07NNHHGBA@nodrain?$AA@ 20132944     g_misc.obj
 0002:0001794c       ??_C@_0CC@JJMJDHFJ@?1models?1items?1a_pwr_converter?4md@ 2013294c     g_misc.obj
 0002:00017970       ??_C@_0EA@CCCBBJND@SP_misc_ammo_floor_unit?3?5misc_am@ 20132970     g_misc.obj
 0002:000179b0       __real@421f999a            201329b0     g_misc.obj
 0002:000179b4       ??_C@_0CJ@JMFIMIPE@gfx?1mp?1siegeicons?1desert?1shield_@ 201329b4     g_misc.obj
 0002:000179e0       ??_C@_0CD@CJNAMFNB@sound?1interface?1shieldcon_done?4m@ 201329e0     g_misc.obj
 0002:00017a04       ??_C@_0CF@IGHKGCOE@?1models?1items?1a_shield_converter@ 20132a04     g_misc.obj
 0002:00017a30       ??_C@_0EE@BKJKMIFF@SP_misc_shield_floor_unit?3?5misc_@ 20132a30     g_misc.obj
 0002:00017a74       ??_C@_0BK@BLFMLFFL@?1models?1items?1psd_big?4md3?$AA@ 20132a74     g_misc.obj
 0002:00017a90       ??_C@_0BP@OLGGMFAH@gfx?1mp?1siegeicons?1desert?1bacta?$AA@ 20132a90     g_misc.obj
 0002:00017ab0       ??_C@_0BP@NIKNGNIA@sound?1interface?1shieldcon_done?$AA@ 20132ab0     g_misc.obj
 0002:00017ad0       ??_C@_0DM@GFMELJKG@fx_runner_link?3?5target2?5was?5spec@ 20132ad0     g_misc.obj
 0002:00017b0c       ??_C@_0BN@MFEBONBP@?5?5?9assuming?5UP?5orientation?4?6?$AA@ 20132b0c     g_misc.obj
 0002:00017b2c       ??_C@_0DE@CHPCANJH@fx_runner_link?3?5target?5specified@ 20132b2c     g_misc.obj
 0002:00017b60       ??_C@_0DF@PKCCJONM@?$FO1ERROR?3?5fx_runner?5?$CFs?5at?5?$CFs?5has?5@ 20132b60     g_misc.obj
 0002:00017b98       ??_C@_02KMALDIDP@16?$AA@   20132b98     g_misc.obj
 0002:00017b9c       ??_C@_05EKJCMADO@delay?$AA@ 20132b9c     g_misc.obj
 0002:00017ba4       ??_C@_06KFFOGODE@fxFile?$AA@ 20132ba4     g_misc.obj
 0002:00017bac       ??_C@_0O@OOIDBEND@?$CKspacedust?5?$CFi?$AA@ 20132bac     g_misc.obj
 0002:00017bbc       ??_C@_0BN@HJNHHLJJ@?$CKconstantwind?5?$CI100?5100?5?9100?$CJ?$AA@ 20132bbc     g_misc.obj
 0002:00017bdc       ??_C@_04MFNGOGOF@?$CKfog?$AA@ 20132bdc     g_misc.obj
 0002:00017be4       ??_C@_05KOHEABAP@?$CKsnow?$AA@ 20132be4     g_misc.obj
 0002:00017bec       ??_C@_0O@CDABLMGA@?$CKrain?5init?5?$CFi?$AA@ 20132bec     g_misc.obj
 0002:00017bfc       ??_C@_0M@HLGGKACF@globalshake?$AA@ 20132bfc     g_misc.obj
 0002:00017c08       ??_C@_08LGBPINEC@duration?$AA@ 20132c08     g_misc.obj
 0002:00017c14       ??_C@_09DDBFFAKC@intensity?$AA@ 20132c14     g_misc.obj
 0002:00017c20       ??_C@_08OALBCAAM@Escaped?$CB?$AA@ 20132c20     g_misc.obj
 0002:00017c2c       ??_C@_0L@KNHBNAMA@escapegoal?$AA@ 20132c2c     g_misc.obj
 0002:00017c38       ??_C@_0L@HHICCAGD@escapetime?$AA@ 20132c38     g_misc.obj
 0002:00017c44       ??_C@_05DGDJCJKI@60000?$AA@ 20132c44     g_misc.obj
 0002:00017c4c       ??_C@_0BN@BGAEPABA@misc_maglock?5at?5?$CFs?5in?5solid?6?$AA@ 20132c4c     g_misc.obj
 0002:00017c6c       ??_C@_0CD@OMGMLABA@sound?1chars?1stofficer1?1misc?1pain@ 20132c6c     g_misc.obj
 0002:00017c90       ??_C@_0CD@JCJPJADL@sound?1chars?1stofficer1?1misc?1pain@ 20132c90     g_misc.obj
 0002:00017cb4       ??_C@_0CD@OKKHHCPL@sound?1chars?1stofficer1?1misc?1pain@ 20132cb4     g_misc.obj
 0002:00017cd8       __real@c3800000            20132cd8     g_misc.obj
 0002:00017cdc       ??_C@_0CG@CLCLECHC@models?1players?1stormtrooper?1mode@ 20132cdc     g_misc.obj
 0002:00017d04       ??_C@_0CF@FBGDNLPI@sound?1chars?1stofficer1?1misc?1fall@ 20132d04     g_misc.obj
 0002:00017d2c       ??_C@_0BH@JOAOCHE@sound?1player?1fallsplat?$AA@ 20132d2c     g_misc.obj
 0002:00017d44       ??_C@_0M@PLLGOAGO@fudgefactor?$AA@ 20132d44     g_misc.obj
 0002:00017d50       ??_C@_08CBFCMNKF@interval?$AA@ 20132d50     g_misc.obj
 0002:00017d5c       ??_C@_03OCGDPLBD@500?$AA@  20132d5c     g_misc.obj
 0002:00017d60       ??_C@_0DA@JECPINAN@WARNING?3?5MAX_TAG_OWNERS?5?$CI?$CFi?$CJ?5REF@ 20132d60     g_misc.obj
 0002:00017d90       ??_C@_0CK@BNOEMFOC@WARNING?3?5MAX_TAGS?5?$CI?$CFi?$CJ?5REF?5TAG?5L@ 20132d90     g_misc.obj
 0002:00017dbc       ??_C@_09IGNBMAGM@__WORLD__?$AA@ 20132dbc     g_misc.obj
 0002:00017dc8       ??_C@_0CP@OOOANILP@?$FO1ERROR?3?5Nameless?5ref_tag?5found?5@ 20132dc8     g_misc.obj
 0002:00017df8       ??_C@_0BL@HHGOOPCF@?$FO1Duplicate?5tag?5name?5?$CC?$CFs?$CC?6?$AA@ 20132df8     g_misc.obj
 0002:00017e14       ??_C@_0CP@IIHADJMK@?$FO1ERROR?3?5ref_tag?5?$CI?$CFs?$CJ?5has?5invali@ 20132e14     g_misc.obj
 0002:00017e44       ??_C@_0CL@HIFLCEHM@No?5free?5shooter?5clients?5?9?5hit?5MA@ 20132e44     g_misc.obj
 0002:00017e70       ??_C@_06GEPNGEJI@weapon?$AA@ 20132e70     g_misc.obj
 0002:00017e78       __real@402c000000000000    20132e78     g_misc.obj
 0002:00017e80       __real@c0d80000            20132e80     g_misc.obj
 0002:00017e84       __real@40d80000            20132e84     g_misc.obj
 0002:00017e88       ??_C@_0CJ@FEKHHOKE@models?1map_objects?1kejim?1weapons@ 20132e88     g_misc.obj
 0002:00017eb4       __real@41cc0000            20132eb4     g_misc.obj
 0002:00017eb8       __real@41c40000            20132eb8     g_misc.obj
 0002:00017ebc       __real@41b80000            20132ebc     g_misc.obj
 0002:00017ec0       ??_C@_0CJ@LKEDOAMO@models?1map_objects?1kejim?1weapons@ 20132ec0     g_misc.obj
 0002:00017eec       __real@41e00000            20132eec     g_misc.obj
 0002:00017ef0       __real@41d80000            20132ef0     g_misc.obj
 0002:00017ef4       ??_C@_0N@FDIHPFHF@sparks?1spark?$AA@ 20132ef4     g_misc.obj
 0002:00017f04       ??_C@_0M@NCOHEGMJ@misc_camera?$AA@ 20132f04     g_misc.obj
 0002:00017f10       ??_C@_0P@LLGALEGC@misc_spotlight?$AA@ 20132f10     g_misc.obj
 0002:00017f20       ??_C@_0CE@NFBPFDKB@sound?1movers?1objects?1cameramove_@ 20132f20     g_misc.obj
 0002:00017f44       ??_C@_0BM@NDKCFCAE@sound?1movers?1camera_off?4mp3?$AA@ 20132f44     g_misc.obj
 0002:00017f60       ??_C@_0BL@JKNNEKC@sound?1movers?1camera_on?4mp3?$AA@ 20132f60     g_misc.obj
 0002:00017f7c       ??_C@_0CE@DLAABODF@models?1map_objects?1kejim?1impcam?4@ 20132f7c     g_misc.obj
 0002:00017fa0       ??_C@_0BB@JGFEKLHB@misc_camera_base?$AA@ 20132fa0     g_misc.obj
 0002:00017fb4       ??_C@_0CJ@HLFNIEJG@models?1map_objects?1kejim?1impcam_@ 20132fb4     g_misc.obj
 0002:00017fe0       ??_C@_03LOHCHBBO@0?45?$AA@ 20132fe0     g_misc.obj
 0002:00017fe4       ??_C@_0CK@KMCMOIEM@models?1map_objects?1imp_mine?1spot@ 20132fe4     g_misc.obj
 0002:00018010       ??_C@_0CA@PLJPCDEB@sound?1movers?1sec_panel_fail?4mp3?$AA@ 20133010     g_misc.obj
 0002:00018030       ??_C@_0CA@BFGLGLHE@sound?1movers?1sec_panel_pass?4mp3?$AA@ 20133030     g_misc.obj
 0002:00018050       ??_C@_0CH@HDGBKGNG@models?1map_objects?1kejim?1sec_pan@ 20133050     g_misc.obj
 0002:00018078       ??_C@_0BL@MAPBCOPB@sound?1weapons?1key_pkup?4wav?$AA@ 20133078     g_misc.obj
 0002:00018094       ??_C@_0BF@CMDIEJII@models?1items?1key?4md3?$AA@ 20133094     g_misc.obj
 0002:000180ac       ??_C@_0BM@KKMKGIKK@sound?1weapons?1overchargeend?$AA@ 201330ac     g_misc.obj
 0002:000180c8       ??_C@_0BM@BCBOHMNG@sound?1interface?1ammocon_run?$AA@ 201330c8     g_misc.obj
 0002:000180e4       ??_C@_0CO@PBEHHHAN@models?1map_objects?1factory?1bomb_@ 201330e4     g_misc.obj
 0002:00018114       ??_C@_0BC@LLJIEADM@maglock?1explosion?$AA@ 20133114     g_misc.obj
 0002:00018128       ??_C@_0CP@LKLHIHFL@models?1map_objects?1imp_detention@ 20133128     g_misc.obj
 0002:00018158       ??_C@_0CE@JIEEOJPA@models?1map_objects?1wedge?1beacon?4@ 20133158     g_misc.obj
 0002:0001817c       __real@be4ccccd            2013317c     g_missile.obj
 0002:00018180       ??_C@_0CB@KIOLPEIM@sound?1weapons?1saber?1bounce?$CFi?4wav@ 20133180     g_missile.obj
 0002:000181a4       ??_C@_0CD@DFAKCMJE@sound?1weapons?1thermal?1bounce?$CFi?4w@ 201331a4     g_missile.obj
 0002:000181c8       __real@3fe4cccccccccccd    201331c8     g_missile.obj
 0002:000181d0       __real@40c0000000000000    201331d0     g_missile.obj
 0002:000181d8       ??_C@_0BA@BHMDGDMI@blaster?1deflect?$AA@ 201331d8     g_missile.obj
 0002:000181e8       ??_C@_0BC@DONAAMN@bowcaster?1deflect?$AA@ 201331e8     g_missile.obj
 0002:000181fc       ??_C@_0CC@FGLHJPEN@pushed_p?5?$DO?5?$CGpushed?$FLMAX_GENTITIES@ 201331fc     g_mover.obj
 0002:00018220       ??_C@_0CE@HFNOCNBN@Reached_BinaryMover?3?5bad?5moverSt@ 20133220     g_mover.obj
 0002:00018244       ??_C@_05PEENBMOG@color?$AA@ 20133244     g_mover.obj
 0002:0001824c       ??_C@_05PGFNHLMG@1?51?51?$AA@ 2013324c     g_mover.obj
 0002:00018254       ??_C@_05OEPGNJB@light?$AA@ 20133254     g_mover.obj
 0002:0001825c       ??_C@_04HAEDHBJD@?4glm?$AA@ 2013325c     g_mover.obj
 0002:00018264       ??_C@_0N@CNEGJPJD@trigger_door?$AA@ 20133264     g_mover.obj
 0002:00018278       __real@405e000000000000    20133278     g_mover.obj
 0002:00018280       ??_C@_09MOGMJGKE@teamallow?$AA@ 20133280     g_mover.obj
 0002:0001828c       ??_C@_03EMOFKE@dmg?$AA@    2013328c     g_mover.obj
 0002:00018290       ??_C@_03MHHCOBAB@lip?$AA@  20133290     g_mover.obj
 0002:00018294       ??_C@_07IPEFJBG@vehopen?$AA@ 20133294     g_mover.obj
 0002:000182a0       __real@4040800000000000    201332a0     g_mover.obj
 0002:000182a8       __real@447a0000            201332a8     g_mover.obj
 0002:000182ac       ??_C@_0M@ONCHNMHP@path_corner?$AA@ 201332ac     g_mover.obj
 0002:000182b8       ??_C@_0CJ@BMOHOFCP@func_train?5at?5?$CFs?5with?5an?5unfound@ 201332b8     g_mover.obj
 0002:000182e4       ??_C@_0CG@DHHNMBFP@path_corner?5with?5no?5targetname?5a@ 201332e4     g_mover.obj
 0002:0001830c       ??_C@_0CD@BNKPEMCB@func_train?5without?5a?5target?5at?5?$CF@ 2013330c     g_mover.obj
 0002:00018330       ??_C@_05CBPKLGJM@phase?$AA@ 20133330     g_mover.obj
 0002:00018338       __real@3fc45f3060000000    20133338     g_mover.obj
 0002:00018340       ??_C@_0BB@IAFIADNA@chunks?1ropebreak?$AA@ 20133340     g_mover.obj
 0002:00018354       ??_C@_0BE@GMAIKFHK@chunks?1rockbreakmed?$AA@ 20133354     g_mover.obj
 0002:00018368       ??_C@_0BD@HHBLDKKA@chunks?1rockbreaklg?$AA@ 20133368     g_mover.obj
 0002:0001837c       ??_C@_0BE@FDCAJCD@chunks?1grateexplode?$AA@ 2013337c     g_mover.obj
 0002:00018390       ??_C@_0BE@FIGLPACF@chunks?1sparkexplode?$AA@ 20133390     g_mover.obj
 0002:000183a4       ??_C@_0BC@KHOJEJFN@chunks?1glassbreak?$AA@ 201333a4     g_mover.obj
 0002:000183b8       ??_C@_0CA@BAMHFMAG@func_breakable?5with?5NULL?5model?6?$AA@ 201333b8     g_mover.obj
 0002:000183d8       ??_C@_0L@NPNJEDJH@showhealth?$AA@ 201333d8     g_mover.obj
 0002:000183e4       ??_C@_06OIBEMKAM@playfx?$AA@ 201333e4     g_mover.obj
 0002:000183ec       ??_C@_0N@HMJFCHDH@misc_maglock?$AA@ 201333ec     g_mover.obj
 0002:000183fc       ??_C@_0BF@COHBPBHI@misc_model_breakable?$AA@ 201333fc     g_mover.obj
 0002:00018418       __real@4078600000000000    20133418     g_mover.obj
 0002:00018420       ??_C@_09BLEODPCJ@maxshards?$AA@ 20133420     g_mover.obj
 0002:0001842c       ??_C@_08DDDKPNNK@endframe?$AA@ 2013342c     g_mover.obj
 0002:00018438       ??_C@_0L@MCIJNOGJ@hyperspace?$AA@ 20133438     g_mover.obj
 0002:00018444       ??_C@_0M@OECBINE@model2scale?$AA@ 20133444     g_mover.obj
 0002:00018450       ??_C@_0L@DPIDJDGM@spinangles?$AA@ 20133450     g_mover.obj
 0002:0001845c       __real@beb33333            2013345c     g_nav.obj
 0002:00018460       __real@4060e00000000000    20133460     g_nav.obj
 0002:00018468       __real@4036800000000000    20133468     g_nav.obj
 0002:00018470       ??_C@_07GHAMPCCG@navgoal?$AA@ 20133470     g_nav.obj
 0002:00018478       ??_C@_0CO@GGLLKCAI@?$FO1ERROR?3?5Waypoint_navgoal?5?$CFs?5at?5@ 20133478     g_nav.obj
 0002:000184a8       ??_C@_0DA@BIGAKHFJ@?$FO1ERROR?3?5Waypoint_navgoal_8?5?$CFs?5a@ 201334a8     g_nav.obj
 0002:000184d8       ??_C@_0DA@PNICBCFJ@?$FO1ERROR?3?5Waypoint_navgoal_4?5?$CFs?5a@ 201334d8     g_nav.obj
 0002:00018508       ??_C@_0DA@IPHDEINJ@?$FO1ERROR?3?5Waypoint_navgoal_2?5?$CFs?5a@ 20133508     g_nav.obj
 0002:00018538       ??_C@_0DA@LGALOFJJ@?$FO1ERROR?3?5Waypoint_navgoal_1?5?$CFs?5a@ 20133538     g_nav.obj
 0002:00018568       ??_C@_0CG@CJDGEOME@?$FO1ERROR?3?5Waypoint?5?$CFs?5at?5?$CFs?5in?5so@ 20133568     g_nav.obj
 0002:00018590       ??_C@_08LHPBHPJM@waypoint?$AA@ 20133590     g_nav.obj
 0002:0001859c       ??_C@_0CM@NPFEIGCH@?$FO1ERROR?3?5Waypoint_small?5?$CFs?5at?5?$CFs@ 2013359c     g_nav.obj
 0002:000185c8       __real@3ff3333333333333    201335c8     g_navnew.obj
 0002:000185d0       __real@c2200000            201335d0     g_object.obj
 0002:000185d8       __real@bfe6666666666666    201335d8     g_object.obj
 0002:000185e0       __real@3fef333340000000    201335e0     g_object.obj
 0002:000185e8       __real@c3960000            201335e8     g_object.obj
 0002:000185ec       ??_C@_04GKENMFND@ROFF?$AA@ 201335ec     g_roff.obj
 0002:000185f8       ??_C@_0EI@JMCBLAHK@?$FO1NoteTracks?5for?5ROFFs?5not?5impli@ 201335f8     g_roff.obj
 0002:00018640       ??_C@_0DH@LIJHAEAF@?$FO1Error?3?5?$CC?$CFs?$CC?5has?5an?5invalid?5ROF@ 20133640     g_roff.obj
 0002:00018678       ??_C@_0FK@IEDCBKHK@?$FO1ROFF?5file?3?5?$CFs?5has?5more?5frames?5@ 20133678     g_roff.obj
 0002:000186d4       ??_C@_0BM@MMLDJACN@?$FO1Invalid?5roff?5format?5?8?$CFs?8?6?$AA@ 201336d4     g_roff.obj
 0002:000186f0       ??_C@_0CO@GNJEODOK@?$FO1?4ROF?5file?5?8?$CFs?8?3?5Too?5large?5for?5@ 201336f0     g_roff.obj
 0002:00018720       ??_C@_0CB@BBDCBPMD@?$FO1Could?5not?5open?5?4ROF?5file?5?8?$CFs?8?6@ 20133720     g_roff.obj
 0002:00018744       ??_C@_09IDKBAAON@?$CFs?1?$CFs?4rof?$AA@ 20133744     g_roff.obj
 0002:00018750       ??_C@_0DJ@PCHBNFHB@?$FO1MAX_ROFFS?5count?5exceeded?4?5?5Ski@ 20133750     g_roff.obj
 0002:0001878c       ??_C@_03EBNKKLDK@?$HMt2?$AA@ 2013378c     g_saga.obj
 0002:00018790       ??_C@_02OPGNMFKN@?90?$AA@  20133790     g_saga.obj
 0002:00018794       ??_C@_02JFBLOBND@t1?$AA@   20133794     g_saga.obj
 0002:00018798       ??_C@_0M@MKLMHAEL@DependsOn?$CFi?$AA@ 20133798     g_saga.obj
 0002:000187a4       ??_C@_0L@BMHCMPFI@DependsOn1?$AA@ 201337a4     g_saga.obj
 0002:000187b0       ??_C@_0M@IHDPCFPD@Objective?$CFi?$AA@ 201337b0     g_saga.obj
 0002:000187bc       ??_C@_07FKIPFDKM@UseTeam?$AA@ 201337bc     g_saga.obj
 0002:000187c4       ??_C@_0CJ@KLKCMJCL@Couldn?8t?5find?5any?5player?5teams?5f@ 201337c4     g_saga.obj
 0002:000187f0       ??_C@_0CL@BBGLILIJ@Couldn?8t?5find?5any?5player?5classes@ 201337f0     g_saga.obj
 0002:00018820       ??_C@_0HA@DNEPCKAI@Tried?5to?5set?5imperial?5time?5limit@ 20133820     g_saga.obj
 0002:00018890       ??_C@_0L@BLDDBDPK@team1_icon?$AA@ 20133890     g_saga.obj
 0002:0001889c       ??_C@_09LFNJBILH@attackers?$AA@ 2013389c     g_saga.obj
 0002:000188a8       ??_C@_05MLMBIJDH@Timed?$AA@ 201338a8     g_saga.obj
 0002:000188b0       ??_C@_0BD@DGKBHCDJ@RequiredObjectives?$AA@ 201338b0     g_saga.obj
 0002:000188c4       ??_C@_0L@CKNLAJGH@team2_icon?$AA@ 201338c4     g_saga.obj
 0002:000188d0       ??_C@_08PDGNKGMA@TeamIcon?$AA@ 201338d0     g_saga.obj
 0002:000188dc       ??_C@_0BI@IFMEDMFB@Siege?5teams?5not?5defined?$AA@ 201338dc     g_saga.obj
 0002:000188f4       ??_C@_05KBLJHFNC@team2?$AA@ 201338f4     g_saga.obj
 0002:000188fc       ??_C@_05IKJECGBB@team1?$AA@ 201338fc     g_saga.obj
 0002:00018904       ??_C@_05EPHHAOKA@Teams?$AA@ 20133904     g_saga.obj
 0002:0001890c       ??_C@_0P@HBABJABJ@preround_state?$AA@ 2013390c     g_saga.obj
 0002:0001891c       ??_C@_0O@OJPKLLB@maps?1?$CFs?4siege?$AA@ 2013391c     g_saga.obj
 0002:0001892c       ??_C@_02LODGLCBA@t2?$AA@   2013392c     g_saga.obj
 0002:00018930       ??_C@_0CI@HMPHOHE@entity?5was?5removed?5while?5using?5t@ 20133930     g_saga.obj
 0002:00018958       ??_C@_0BO@JIDGNOMJ@WARNING?3?5Entity?5used?5itself?4?6?$AA@ 20133958     g_saga.obj
 0002:00018978       ??_C@_0BF@KGIIIJMI@Objectives?5completed?$AA@ 20133978     g_saga.obj
 0002:00018990       ??_C@_0BB@FPALPLCC@roundover_target?$AA@ 20133990     g_saga.obj
 0002:000189a4       ??_C@_04HEAMIBHF@3?$HM?$CFi?$AA@ 201339a4     g_saga.obj
 0002:000189ac       ??_C@_01OGPIMHDM@?$DP?$AA@ 201339ac     g_saga.obj
 0002:000189b0       ??_C@_04DDKMPLKF@0?$HM?$CFi?$AA@ 201339b0     g_saga.obj
 0002:000189b8       ??_C@_0BC@BHPLBKLC@roundbegin_target?$AA@ 201339b8     g_saga.obj
 0002:000189cc       ??_C@_04EJGMKIMF@2?$HM?$CFi?$AA@ 201339cc     g_saga.obj
 0002:000189d4       ??_C@_06JJLAMBGK@target?$AA@ 201339d4     g_saga.obj
 0002:000189dc       ??_C@_05FPBGKCKL@final?$AA@ 201339dc     g_saga.obj
 0002:000189e8       ??_C@_0EA@HAPCOFBD@ERROR?3?5info_siege_objective?5with@ 201339e8     g_saga.obj
 0002:00018a28       ??_C@_04DMJJIPAH@icon?$AA@ 20133a28     g_saga.obj
 0002:00018a30       ??_C@_04JGNFNGGK@side?$AA@ 20133a30     g_saga.obj
 0002:00018a38       ??_C@_09FKEDLGBF@objective?$AA@ 20133a38     g_saga.obj
 0002:00018a44       ??_C@_0CF@KJAMHCKK@misc_siege_radaricon?5without?5an?5@ 20133a44     g_saga.obj
 0002:00018a70       ??_C@_0EL@CMBBGNJG@ERROR?3?5info_siege_objective_deco@ 20133a70     g_saga.obj
 0002:00018abc       ??_C@_0M@NGJIMDD@Round?5ended?$AA@ 20133abc     g_saga.obj
 0002:00018ac8       ??_C@_0BC@GFLCMKPP@health_chargerate?$AA@ 20133ac8     g_saga.obj
 0002:00018adc       ??_C@_0BB@HEHNKNJK@health_chargeamt?$AA@ 20133adc     g_saga.obj
 0002:00018af0       ??_C@_0L@HLEHNLEC@forcelimit?$AA@ 20133af0     g_saga.obj
 0002:00018afc       ??_C@_08CGILGFAO@16?516?532?$AA@ 20133afc     g_saga.obj
 0002:00018b08       ??_C@_0M@LNFEKALJ@?916?5?916?5?924?$AA@ 20133b08     g_saga.obj
 0002:00018b14       ??_C@_09MOJFGEOD@respawnfx?$AA@ 20133b14     g_saga.obj
 0002:00018b20       ??_C@_07INCGOMOF@deathfx?$AA@ 20133b20     g_saga.obj
 0002:00018b28       ??_C@_0M@OOCKHINI@pickupsound?$AA@ 20133b28     g_saga.obj
 0002:00018b34       ??_C@_06DPMIMFNG@bounce?$AA@ 20133b34     g_saga.obj
 0002:00018b3c       ??_C@_03FAJELBPN@1?43?$AA@ 20133b3c     g_saga.obj
 0002:00018b40       ??_C@_03NBLACKLF@3?40?$AA@ 20133b40     g_saga.obj
 0002:00018b44       ??_C@_04PCPOAAED@0?409?$AA@ 20133b44     g_saga.obj
 0002:00018b4c       ??_C@_0P@HNIKMDOM@teamnocomplete?$AA@ 20133b4c     g_saga.obj
 0002:00018b5c       ??_C@_0M@JJPGFFGK@teamnotouch?$AA@ 20133b5c     g_saga.obj
 0002:00018b68       ??_C@_0P@CLDOFPDB@pickuponlyonce?$AA@ 20133b68     g_saga.obj
 0002:00018b78       ??_C@_07CAKCIGBD@noradar?$AA@ 20133b78     g_saga.obj
 0002:00018b80       ??_C@_0L@JOHMPIBD@usephysics?$AA@ 20133b80     g_saga.obj
 0002:00018b8c       ??_C@_09CEPPCPPP@canpickup?$AA@ 20133b8c     g_saga.obj
 0002:00018b98       ??_C@_0DE@NEDCFPJM@You?5must?5specify?5a?5model?5for?5mis@ 20133b98     g_saga.obj
 0002:00018bcc       ??_C@_0M@IHENFEII@?$CFi?$HM?$CFi?$HM?$CFi?$HM?$CFi?$AA@ 20133bcc     g_saga.obj
 0002:00018bd8       ??_C@_04PDHOFNNA@sxd?5?$AA@ 20133bd8     g_saga.obj
 0002:00018be0       ??_C@_09INHJFLOH@session?$CFi?$AA@ 20133be0     g_session.obj
 0002:00018bec       ??_C@_0CN@FFHOIJHH@?$CFi?5?$CFi?5?$CFi?5?$CFi?5?$CFi?5?$CFi?5?$CFi?5?$CFi?5?$CFi?5?$CFi?5?$CFi@ 20133bec     g_session.obj
 0002:00018c1c       ??_C@_0CK@FAAHDCAM@Gametype?5changed?0?5clearing?5sessi@ 20133c1c     g_session.obj
 0002:00018c48       ??_C@_07KMJDECGK@session?$AA@ 20133c48     g_session.obj
 0002:00018c50       ??_C@_0BI@GHBCNHII@aammbbzzccllcckkffyyggp?$AA@ 20133c50     g_spawn.obj
 0002:00018c68       ??_C@_0BI@PHOCBKID@zyxwvutsrqmlkjihgfedcba?$AA@ 20133c68     g_spawn.obj
 0002:00018c80       ??_C@_0BI@IAMDFHLB@abcdefghijklmqrstuvwxyz?$AA@ 20133c80     g_spawn.obj
 0002:00018c98       ??_C@_08EKIHCNP@mkigegik?$AA@ 20133c98     g_spawn.obj
 0002:00018ca4       ??_C@_0CF@FDHINAPJ@abcdefghijklmnopqrrqponmlkjihgfe@ 20133ca4     g_spawn.obj
 0002:00018ccc       ??_C@_0BK@KOPHNNOA@mmamammmmammamamaaamammma?$AA@ 20133ccc     g_spawn.obj
 0002:00018ce8       ??_C@_0BB@PBGKNKPK@aaaaaaaazzzzzzzz?$AA@ 20133ce8     g_spawn.obj
 0002:00018cfc       ??_C@_0CL@JNLLPDGN@mmmaaammmaaammmabcdefaaaammmmabc@ 20133cfc     g_spawn.obj
 0002:00018d28       ??_C@_0BN@HIBFHKHI@mmmaaaabcdefgmmmmaaaammmaamm?$AA@ 20133d28     g_spawn.obj
 0002:00018d48       ??_C@_0BC@KJNLDMIN@nmonqnmomnmomomno?$AA@ 20133d48     g_spawn.obj
 0002:00018d5c       ??_C@_0CC@NMKOOBOD@jklmnopqrstuvwxyzyxwvutsrqponmlk@ 20133d5c     g_spawn.obj
 0002:00018d80       ??_C@_0N@OJLDIBEI@mamamamamama?$AA@ 20133d80     g_spawn.obj
 0002:00018d90       ??_C@_0CD@OIDFFBDA@mmmmmaaaaammmmmaaaaaabcdefgabcde@ 20133d90     g_spawn.obj
 0002:00018db4       ??_C@_0DD@HBPKOMNE@abcdefghijklmnopqrstuvwxyzyxwvut@ 20133db4     g_spawn.obj
 0002:00018de8       ??_C@_0BI@OMKFAIJM@mmnmmommommnonmmonqnmmo?$AA@ 20133de8     g_spawn.obj
 0002:00018e00       ??_C@_0O@BHDALHCD@misc_turretG2?$AA@ 20133e00     g_spawn.obj
 0002:00018e10       ??_C@_0O@OOGNJGIF@emplaced_eweb?$AA@ 20133e10     g_spawn.obj
 0002:00018e20       ??_C@_0N@IKDCGMFI@emplaced_gun?$AA@ 20133e20     g_spawn.obj
 0002:00018e30       ??_C@_0N@PAECNMEH@item_botroam?$AA@ 20133e30     g_spawn.obj
 0002:00018e40       ??_C@_0BD@GGIPJOIB@team_CTF_bluespawn?$AA@ 20133e40     g_spawn.obj
 0002:00018e54       ??_C@_0BC@KIKIBEND@team_CTF_redspawn?$AA@ 20133e54     g_spawn.obj
 0002:00018e68       ??_C@_0BE@COKGGHPD@team_CTF_blueplayer?$AA@ 20133e68     g_spawn.obj
 0002:00018e7c       ??_C@_0BD@KLANHAKB@team_CTF_redplayer?$AA@ 20133e7c     g_spawn.obj
 0002:00018e90       ??_C@_0BA@NGEFLHKB@shooter_blaster?$AA@ 20133e90     g_spawn.obj
 0002:00018ea0       ??_C@_0N@GEHAKDCL@point_combat?$AA@ 20133ea0     g_spawn.obj
 0002:00018eb0       ??_C@_07OIHINEMH@fx_snow?$AA@ 20133eb0     g_spawn.obj
 0002:00018eb8       ??_C@_07BCPGDIIL@fx_rain?$AA@ 20133eb8     g_spawn.obj
 0002:00018ec0       ??_C@_0N@KJNBBMDE@fx_spacedust?$AA@ 20133ec0     g_spawn.obj
 0002:00018ed0       ??_C@_0BD@OEHNKGNF@waypoint_navgoal_1?$AA@ 20133ed0     g_spawn.obj
 0002:00018ee4       ??_C@_0BD@MPFAPFBG@waypoint_navgoal_2?$AA@ 20133ee4     g_spawn.obj
 0002:00018ef8       ??_C@_0BD@JJAKFCJA@waypoint_navgoal_4?$AA@ 20133ef8     g_spawn.obj
 0002:00018f0c       ??_C@_0BD@DFLPBNJM@waypoint_navgoal_8?$AA@ 20133f0c     g_spawn.obj
 0002:00018f20       ??_C@_0BB@EOBMEDND@waypoint_navgoal?$AA@ 20133f20     g_spawn.obj
 0002:00018f34       ??_C@_0P@NNHLOLDF@waypoint_small?$AA@ 20133f34     g_spawn.obj
 0002:00018f44       ??_C@_0BH@LMHGHDKM@NPC_Manuel_Vergara_RMG?$AA@ 20133f44     g_spawn.obj
 0002:00018f5c       ??_C@_0BN@DKBPHJLE@NPC_Colombian_EmplacedGunner?$AA@ 20133f5c     g_spawn.obj
 0002:00018f7c       ??_C@_0BE@OOJHPNK@NPC_Colombian_Rebel?$AA@ 20133f7c     g_spawn.obj
 0002:00018f90       ??_C@_0BG@LABGLKEM@NPC_Colombian_Soldier?$AA@ 20133f90     g_spawn.obj
 0002:00018fa8       ??_C@_0BC@NBBEFHAH@NPC_HazardTrooper?$AA@ 20133fa8     g_spawn.obj
 0002:00018fbc       ??_C@_0P@DIOOIODM@NPC_Human_Merc?$AA@ 20133fbc     g_spawn.obj
 0002:00018fcc       ??_C@_0BF@CBJGBLJK@NPC_Cultist_Commando?$AA@ 20133fcc     g_spawn.obj
 0002:00018fe4       ??_C@_0BG@PGLBMPMH@NPC_Cultist_Destroyer?$AA@ 20133fe4     g_spawn.obj
 0002:00018ffc       ??_C@_0BJ@OAIOLAJG@NPC_Cultist_Saber_Powers?$AA@ 20133ffc     g_spawn.obj
 0002:00019018       ??_C@_0BC@KAHNAJDN@NPC_Cultist_Saber?$AA@ 20134018     g_spawn.obj
 0002:0001902c       ??_C@_0M@MMEMNDIA@NPC_Cultist?$AA@ 2013402c     g_spawn.obj
 0002:00019038       ??_C@_0P@KMKGOCLH@NPC_Reborn_New?$AA@ 20134038     g_spawn.obj
 0002:00019048       ??_C@_0BD@NBLBMNJG@NPC_Droid_Assassin?$AA@ 20134048     g_spawn.obj
 0002:0001905c       ??_C@_0BB@MELILOKF@NPC_Lannik_Racto?$AA@ 2013405c     g_spawn.obj
 0002:00019070       ??_C@_0BA@KIEKFBJE@NPC_Droid_Saber?$AA@ 20134070     g_spawn.obj
 0002:00019080       ??_C@_0L@MILMIHNN@NPC_Kothos?$AA@ 20134080     g_spawn.obj
 0002:0001908c       ??_C@_07HJGHKMOG@NPC_Rax?$AA@ 2013408c     g_spawn.obj
 0002:00019094       ??_C@_0N@HBKCBBGF@NPC_Saboteur?$AA@ 20134094     g_spawn.obj
 0002:000190a4       ??_C@_0P@EDFJEMLB@NPC_Rosh_Penin?$AA@ 201340a4     g_spawn.obj
 0002:000190b4       ??_C@_0O@NMCPAHGB@NPC_Chewbacca?$AA@ 201340b4     g_spawn.obj
 0002:000190c4       ??_C@_0BD@JGHHMNIE@NPC_Droid_Protocol?$AA@ 201340c4     g_spawn.obj
 0002:000190d8       ??_C@_0P@CDLAJBDJ@NPC_Droid_R5D2?$AA@ 201340d8     g_spawn.obj
 0002:000190e8       ??_C@_0P@LOGHKJIA@NPC_Droid_R2D2?$AA@ 201340e8     g_spawn.obj
 0002:000190f8       ??_C@_0BA@POEALIGM@NPC_Droid_Mouse?$AA@ 201340f8     g_spawn.obj
 0002:00019108       ??_C@_0P@HBKDEDCG@NPC_Droid_Gonk?$AA@ 20134108     g_spawn.obj
 0002:00019118       ??_C@_0BB@LPPDEAFO@NPC_Droid_Sentry?$AA@ 20134118     g_spawn.obj
 0002:0001912c       ??_C@_0BB@DLMGMAEL@NPC_Droid_Remote?$AA@ 2013412c     g_spawn.obj
 0002:00019140       ??_C@_0BB@DKMEFKLI@NPC_Droid_Seeker?$AA@ 20134140     g_spawn.obj
 0002:00019154       ??_C@_0P@KNKEJFNJ@NPC_Droid_ATST?$AA@ 20134154     g_spawn.obj
 0002:00019164       ??_C@_0BA@DLGIAHOP@NPC_Droid_Mark2?$AA@ 20134164     g_spawn.obj
 0002:00019174       ??_C@_0BA@BAEFFECM@NPC_Droid_Mark1?$AA@ 20134174     g_spawn.obj
 0002:00019184       ??_C@_0BA@PLDIIEKG@NPC_Droid_Probe?$AA@ 20134184     g_spawn.obj
 0002:00019194       ??_C@_0BH@GELBMCCG@NPC_Droid_Interrogator?$AA@ 20134194     g_spawn.obj
 0002:000191ac       ??_C@_0BK@MBIAPEPK@NPC_Monster_Sand_Creature?$AA@ 201341ac     g_spawn.obj
 0002:000191c8       ??_C@_0BD@GGCJAAIJ@NPC_Monster_Rancor?$AA@ 201341c8     g_spawn.obj
 0002:000191dc       ??_C@_0BC@FDKLFNDA@NPC_Monster_Wampa?$AA@ 201341dc     g_spawn.obj
 0002:000191f0       ??_C@_0BB@COOMNBMC@NPC_Monster_Fish?$AA@ 201341f0     g_spawn.obj
 0002:00019204       ??_C@_0BD@IKJEBJEK@NPC_Monster_Lizard?$AA@ 20134204     g_spawn.obj
 0002:00019218       ??_C@_0BD@DKOKFHGA@NPC_Monster_Flier2?$AA@ 20134218     g_spawn.obj
 0002:0001922c       ??_C@_0BD@MNDBMBEB@NPC_Monster_Glider?$AA@ 2013422c     g_spawn.obj
 0002:00019240       ??_C@_0BB@DCKNHAA@NPC_Monster_Claw?$AA@ 20134240     g_spawn.obj
 0002:00019254       ??_C@_0BA@CICOLEFN@NPC_MineMonster?$AA@ 20134254     g_spawn.obj
 0002:00019264       ??_C@_0BD@KHIJMCAK@NPC_Monster_Howler?$AA@ 20134264     g_spawn.obj
 0002:00019278       ??_C@_0BC@CKGLNBIP@NPC_Monster_Swamp?$AA@ 20134278     g_spawn.obj
 0002:0001928c       ??_C@_0BC@JOLJPFCL@NPC_Monster_Murjj?$AA@ 2013428c     g_spawn.obj
 0002:000192a0       ??_C@_0BC@DEMLMLDC@NPC_ShadowTrooper?$AA@ 201342a0     g_spawn.obj
 0002:000192b4       ??_C@_0L@CIEHLAC@NPC_Reborn?$AA@ 201342b4     g_spawn.obj
 0002:000192c0       ??_C@_0O@KPLHJPHC@NPC_BespinCop?$AA@ 201342c0     g_spawn.obj
 0002:000192d0       ??_C@_0O@EBHEDPHH@NPC_ImpWorker?$AA@ 201342d0     g_spawn.obj
 0002:000192e0       ??_C@_0N@EEMBBMCP@NPC_Imperial?$AA@ 201342e0     g_spawn.obj
 0002:000192f0       ??_C@_0BB@JJDBNAAM@NPC_SwampTrooper?$AA@ 201342f0     g_spawn.obj
 0002:00019304       ??_C@_0L@BJBHIPNA@NPC_Noghri?$AA@ 20134304     g_spawn.obj
 0002:00019310       ??_C@_0L@KJAJNADD@NPC_Tusken?$AA@ 20134310     g_spawn.obj
 0002:0001931c       ??_C@_0P@KGHFMHEM@NPC_Trandoshan?$AA@ 2013431c     g_spawn.obj
 0002:0001932c       ??_C@_0M@MEPEPFD@NPC_Weequay?$AA@ 2013432c     g_spawn.obj
 0002:00019338       ??_C@_0L@BHFEOPDB@NPC_Rodian?$AA@ 20134338     g_spawn.obj
 0002:00019344       ??_C@_08ELDFBOLE@NPC_Gran?$AA@ 20134344     g_spawn.obj
 0002:00019350       ??_C@_08GODKOBHJ@NPC_Jawa?$AA@ 20134350     g_spawn.obj
 0002:0001935c       ??_C@_0N@OMLABMPC@NPC_Ugnaught?$AA@ 2013435c     g_spawn.obj
 0002:0001936c       ??_C@_0O@ONHKBMAJ@NPC_Tie_Pilot?$AA@ 2013436c     g_spawn.obj
 0002:0001937c       ??_C@_0BA@PEGNBFNM@NPC_Snowtrooper?$AA@ 2013437c     g_spawn.obj
 0002:0001938c       ??_C@_0BI@KNEFCPCF@NPC_StormtrooperOfficer?$AA@ 2013438c     g_spawn.obj
 0002:000193a4       ??_C@_0BB@MOIFDEOP@NPC_Stormtrooper?$AA@ 201343a4     g_spawn.obj
 0002:000193b8       ??_C@_09JKDEPOJF@NPC_Rebel?$AA@ 201343b8     g_spawn.obj
 0002:000193c4       ??_C@_0N@BABPAPJA@NPC_Prisoner?$AA@ 201343c4     g_spawn.obj
 0002:000193d4       ??_C@_08DHOBOBAP@NPC_Jedi?$AA@ 201343d4     g_spawn.obj
 0002:000193e0       ??_C@_0BB@FFDODFNA@NPC_MorganKatarn?$AA@ 201343e0     g_spawn.obj
 0002:000193f4       ??_C@_0O@LPDIFKFL@NPC_Bartender?$AA@ 201343f4     g_spawn.obj
 0002:00019404       ??_C@_0L@KOOJEBOD@NPC_Desann?$AA@ 20134404     g_spawn.obj
 0002:00019410       ??_C@_09JEDIICFF@NPC_Galak?$AA@ 20134410     g_spawn.obj
 0002:0001941c       ??_C@_09CDBPKOGA@NPC_Reelo?$AA@ 2013441c     g_spawn.obj
 0002:00019428       ??_C@_09EMMLPPLE@NPC_Alora?$AA@ 20134428     g_spawn.obj
 0002:00019434       ??_C@_0P@HMLCGPHK@NPC_Tavion_New?$AA@ 20134434     g_spawn.obj
 0002:00019444       ??_C@_0L@FODAFCJD@NPC_Tavion?$AA@ 20134444     g_spawn.obj
 0002:00019450       ??_C@_0O@DOPPBNHG@NPC_MonMothma?$AA@ 20134450     g_spawn.obj
 0002:00019460       ??_C@_08EPFBELAB@NPC_Luke?$AA@ 20134460     g_spawn.obj
 0002:0001946c       ??_C@_07PAFCGGEB@NPC_Jan?$AA@ 2013446c     g_spawn.obj
 0002:00019474       ??_C@_09DGFBLNPC@NPC_Lando?$AA@ 20134474     g_spawn.obj
 0002:00019480       ??_C@_08LCOIDOCM@NPC_Kyle?$AA@ 20134480     g_spawn.obj
 0002:0001948c       ??_C@_0L@HPNIKBNI@NPC_Player?$AA@ 2013448c     g_spawn.obj
 0002:00019498       ??_C@_0M@LHDGEGBN@NPC_Vehicle?$AA@ 20134498     g_spawn.obj
 0002:000194a4       ??_C@_0M@DDKBIGKJ@NPC_spawner?$AA@ 201344a4     g_spawn.obj
 0002:000194b0       ??_C@_0BE@JFHJPNAM@misc_weapon_shooter?$AA@ 201344b0     g_spawn.obj
 0002:000194c4       ??_C@_0N@MINKDOME@ref_tag_huge?$AA@ 201344c4     g_spawn.obj
 0002:000194d4       ??_C@_07EODMAKNI@ref_tag?$AA@ 201344d4     g_spawn.obj
 0002:000194dc       ??_C@_0M@LIDBPLDD@misc_faller?$AA@ 201344dc     g_spawn.obj
 0002:000194e8       ??_C@_0BC@ECJPHFKJ@target_escapetrig?$AA@ 201344e8     g_spawn.obj
 0002:000194fc       ??_C@_0BD@KCDGCJHD@target_screenshake?$AA@ 201344fc     g_spawn.obj
 0002:00019510       ??_C@_09IJAHGFMK@fx_runner?$AA@ 20134510     g_spawn.obj
 0002:0001951c       ??_C@_0BD@LHHNMBDN@misc_sentry_turret?$AA@ 2013451c     g_spawn.obj
 0002:00019530       ??_C@_0BC@MJAKEMMM@misc_model_beacon?$AA@ 20134530     g_spawn.obj
 0002:00019544       ??_C@_0BI@EAGJHHJO@misc_model_bomb_planted?$AA@ 20134544     g_spawn.obj
 0002:0001955c       ??_C@_0BE@DKLBNFOA@misc_security_panel?$AA@ 2013455c     g_spawn.obj
 0002:00019570       ??_C@_0BF@KCEMKIH@misc_model_ammo_rack?$AA@ 20134570     g_spawn.obj
 0002:00019588       ??_C@_0BE@KHHCBLNI@misc_model_gun_rack?$AA@ 20134588     g_spawn.obj
 0002:0001959c       ??_C@_0P@IFIPFBFL@misc_trip_mine?$AA@ 2013459c     g_spawn.obj
 0002:000195ac       ??_C@_0O@BGLGJPH@misc_gas_tank?$AA@ 201345ac     g_spawn.obj
 0002:000195bc       ??_C@_0BF@MFKBPIKM@misc_exploding_crate?$AA@ 201345bc     g_spawn.obj
 0002:000195d4       ??_C@_0CC@FBCPJAAL@misc_model_health_power_converte@ 201345d4     g_spawn.obj
 0002:000195f8       ??_C@_0CA@CMDGGLOH@misc_model_ammo_power_converter?$AA@ 201345f8     g_spawn.obj
 0002:00019618       ??_C@_0CC@PJPAGJL@misc_model_shield_power_converte@ 20134618     g_spawn.obj
 0002:0001963c       ??_C@_0BH@KPPIOPIE@misc_shield_floor_unit?$AA@ 2013463c     g_spawn.obj
 0002:00019654       ??_C@_0O@EGNLNBNM@gametype_item?$AA@ 20134654     g_spawn.obj
 0002:00019664       ??_C@_0P@IFKMPLOL@misc_skyportal?$AA@ 20134664     g_spawn.obj
 0002:00019674       ??_C@_0BG@DHHABGNA@misc_skyportal_orient?$AA@ 20134674     g_spawn.obj
 0002:0001968c       ??_C@_08HKHKEJBN@misc_bsp?$AA@ 2013468c     g_spawn.obj
 0002:00019698       ??_C@_0BC@CAFACOKO@misc_weather_zone?$AA@ 20134698     g_spawn.obj
 0002:000196ac       ??_C@_0BD@OJADMBDB@misc_portal_camera?$AA@ 201346ac     g_spawn.obj
 0002:000196c0       ??_C@_0BE@FCJPPDGO@misc_portal_surface?$AA@ 201346c0     g_spawn.obj
 0002:000196d4       ??_C@_0N@HMOIJOEB@misc_G2model?$AA@ 201346d4     g_spawn.obj
 0002:000196e4       ??_C@_0BC@LMMEGHFB@misc_model_static?$AA@ 201346e4     g_spawn.obj
 0002:000196f8       ??_C@_0L@PMAFMKKM@misc_model?$AA@ 201346f8     g_spawn.obj
 0002:00019704       ??_C@_0BF@OMPOACGH@misc_teleporter_dest?$AA@ 20134704     g_spawn.obj
 0002:0001971c       ??_C@_0O@DGKJBNAG@target_secret?$AA@ 2013471c     g_spawn.obj
 0002:0001972c       ??_C@_0BA@BGHBFLKA@target_autosave?$AA@ 2013472c     g_spawn.obj
 0002:0001973c       ??_C@_0M@NLNGBECJ@target_push?$AA@ 2013473c     g_spawn.obj
 0002:00019748       ??_C@_0BC@POCFIFJE@target_play_music?$AA@ 20134748     g_spawn.obj
 0002:0001975c       ??_C@_0BE@KLPHHBOK@target_level_change?$AA@ 2013475c     g_spawn.obj
 0002:00019770       ??_C@_0BC@FIFLGJOF@target_deactivate?$AA@ 20134770     g_spawn.obj
 0002:00019784       ??_C@_0BA@LBJINLAP@target_activate?$AA@ 20134784     g_spawn.obj
 0002:00019794       ??_C@_0BA@MKPDKILP@target_interest?$AA@ 20134794     g_spawn.obj
 0002:000197a4       ??_C@_0O@BADKLEJI@target_random?$AA@ 201347a4     g_spawn.obj
 0002:000197b4       ??_C@_0BA@BFKBOHOP@target_location?$AA@ 201347b4     g_spawn.obj
 0002:000197c4       ??_C@_0BA@NENIEICJ@target_position?$AA@ 201347c4     g_spawn.obj
 0002:000197d4       ??_C@_0M@KFDPHLNE@target_kill?$AA@ 201347d4     g_spawn.obj
 0002:000197e0       ??_C@_0BC@GJLLMIEM@target_teleporter?$AA@ 201347e0     g_spawn.obj
 0002:000197f4       ??_C@_0N@DIKJAPJH@target_score?$AA@ 201347f4     g_spawn.obj
 0002:00019804       ??_C@_0N@LGMMDFPN@target_laser?$AA@ 20134804     g_spawn.obj
 0002:00019814       ??_C@_0N@IADDOFND@target_print?$AA@ 20134814     g_spawn.obj
 0002:00019824       ??_C@_0P@MNJIBEAO@target_speaker?$AA@ 20134824     g_spawn.obj
 0002:00019834       ??_C@_0N@EDJICHIO@target_delay?$AA@ 20134834     g_spawn.obj
 0002:00019844       ??_C@_0BH@FJADHEOA@target_remove_powerups?$AA@ 20134844     g_spawn.obj
 0002:0001985c       ??_C@_0M@KALMALDK@target_give?$AA@ 2013485c     g_spawn.obj
 0002:00019868       ??_C@_0BA@GADBIBMF@trigger_visible?$AA@ 20134868     g_spawn.obj
 0002:00019878       ??_C@_0BH@NLNDPFHB@trigger_asteroid_field?$AA@ 20134878     g_spawn.obj
 0002:00019890       ??_C@_0BD@LNPBPENL@trigger_hyperspace?$AA@ 20134890     g_spawn.obj
 0002:000198a4       ??_C@_0BF@LICDFBIJ@trigger_shipboundary?$AA@ 201348a4     g_spawn.obj
 0002:000198bc       ??_C@_0O@HAPJJHIH@trigger_space?$AA@ 201348bc     g_spawn.obj
 0002:000198cc       ??_C@_0N@JFLGFCMM@trigger_hurt?$AA@ 201348cc     g_spawn.obj
 0002:000198dc       ??_C@_0BB@COMMHECA@trigger_teleport?$AA@ 201348dc     g_spawn.obj
 0002:000198f0       ??_C@_0N@CCJDLJOF@trigger_push?$AA@ 201348f0     g_spawn.obj
 0002:00019900       ??_C@_0P@KDHOHKJL@trigger_always?$AA@ 20134900     g_spawn.obj
 0002:00019910       ??_C@_0BI@MBNCDCLD@trigger_lightningstrike?$AA@ 20134910     g_spawn.obj
 0002:00019928       ??_C@_09LILCIBKB@func_wall?$AA@ 20134928     g_spawn.obj
 0002:00019934       ??_C@_0L@LLCNPBHA@func_glass?$AA@ 20134934     g_spawn.obj
 0002:00019940       ??_C@_0L@LNOJFPAO@func_timer?$AA@ 20134940     g_spawn.obj
 0002:0001994c       ??_C@_0L@KLICIANB@func_group?$AA@ 2013494c     g_spawn.obj
 0002:00019958       ??_C@_0L@PGCOCBM@func_train?$AA@ 20134958     g_spawn.obj
 0002:00019964       ??_C@_0O@FPCFJAHB@func_pendulum?$AA@ 20134964     g_spawn.obj
 0002:00019974       ??_C@_0N@BAMIHEIF@func_bobbing?$AA@ 20134974     g_spawn.obj
 0002:00019984       ??_C@_0M@OOBMECJN@func_static?$AA@ 20134984     g_spawn.obj
 0002:00019990       ??_C@_0M@PNMKBMEP@func_button?$AA@ 20134990     g_spawn.obj
 0002:0001999c       ??_C@_09HCDLIOGG@func_plat?$AA@ 2013499c     g_spawn.obj
 0002:000199a8       ??_C@_0BB@LIGHBDID@target_siege_end?$AA@ 201349a8     g_spawn.obj
 0002:000199bc       ??_C@_0BG@LNIMJDHI@info_siege_decomplete?$AA@ 201349bc     g_spawn.obj
 0002:000199d4       ??_C@_0BF@FLLGAJCG@info_siege_radaricon?$AA@ 201349d4     g_spawn.obj
 0002:000199ec       ??_C@_09BLMHBGJ@info_camp?$AA@ 201349ec     g_spawn.obj
 0002:000199f8       ??_C@_0N@FHKCBFMD@info_notnull?$AA@ 201349f8     g_spawn.obj
 0002:00019a08       ??_C@_09MBOCECHK@info_null?$AA@ 20134a08     g_spawn.obj
 0002:00019a14       ??_C@_0BG@FDPJFBIC@info_jedimaster_start?$AA@ 20134a14     g_spawn.obj
 0002:00019a2c       ??_C@_0BH@KHMKKPKD@info_player_siegeteam2?$AA@ 20134a2c     g_spawn.obj
 0002:00019a44       ??_C@_0BH@IMOHPMGA@info_player_siegeteam1?$AA@ 20134a44     g_spawn.obj
 0002:00019a5c       ??_C@_06KLLIKOPG@parm16?$AA@ 20134a5c     g_spawn.obj
 0002:00019a64       ??_C@_06IAJFPNDF@parm15?$AA@ 20134a64     g_spawn.obj
 0002:00019a6c       ??_C@_06JJIOMMHE@parm14?$AA@ 20134a6c     g_spawn.obj
 0002:00019a74       ??_C@_06NGMPFKLD@parm13?$AA@ 20134a74     g_spawn.obj
 0002:00019a7c       ??_C@_06MPNEGLPC@parm12?$AA@ 20134a7c     g_spawn.obj
 0002:00019a84       ??_C@_06OEPJDIDB@parm11?$AA@ 20134a84     g_spawn.obj
 0002:00019a8c       ??_C@_06PNOCAJHA@parm10?$AA@ 20134a8c     g_spawn.obj
 0002:00019a94       ??_C@_05GOPALALO@parm9?$AA@ 20134a94     g_spawn.obj
 0002:00019a9c       ??_C@_05HHOLIBPP@parm8?$AA@ 20134a9c     g_spawn.obj
 0002:00019aa4       ??_C@_05PAHDJNDA@parm7?$AA@ 20134aa4     g_spawn.obj
 0002:00019aac       ??_C@_05OJGIKMHB@parm6?$AA@ 20134aac     g_spawn.obj
 0002:00019ab4       ??_C@_05MCEFPPLC@parm5?$AA@ 20134ab4     g_spawn.obj
 0002:00019abc       ??_C@_05NLFOMOPD@parm4?$AA@ 20134abc     g_spawn.obj
 0002:00019ac4       ??_C@_05JEBPFIDE@parm3?$AA@ 20134ac4     g_spawn.obj
 0002:00019acc       ??_C@_05INAEGJHF@parm2?$AA@ 20134acc     g_spawn.obj
 0002:00019ad4       ??_C@_05KGCJDKLG@parm1?$AA@ 20134ad4     g_spawn.obj
 0002:00019adc       ??_C@_09CFKEAMGB@chunksize?$AA@ 20134adc     g_spawn.obj
 0002:00019ae8       ??_C@_09NGCDKKIO@numchunks?$AA@ 20134ae8     g_spawn.obj
 0002:00019af4       ??_C@_08OFPIPDAI@soundSet?$AA@ 20134af4     g_spawn.obj
 0002:00019b00       ??_C@_08NNMDNEOE@fullName?$AA@ 20134b00     g_spawn.obj
 0002:00019b0c       ??_C@_0BC@OJLHGPEO@script_targetname?$AA@ 20134b0c     g_spawn.obj
 0002:00019b20       ??_C@_0BA@FDOOFENA@mindtrickscript?$AA@ 20134b20     g_spawn.obj
 0002:00019b30       ??_C@_0O@OHIAAEHG@ffdeathscript?$AA@ 20134b30     g_spawn.obj
 0002:00019b40       ??_C@_0M@BJPGKOPD@ffirescript?$AA@ 20134b40     g_spawn.obj
 0002:00019b4c       ??_C@_0O@KGGCFALC@blockedscript?$AA@ 20134b4c     g_spawn.obj
 0002:00019b5c       ??_C@_0BA@GBOAFFNB@delayscripttime?$AA@ 20134b5c     g_spawn.obj
 0002:00019b6c       ??_C@_0M@DEFPMHPJ@delayscript?$AA@ 20134b6c     g_spawn.obj
 0002:00019b78       ??_C@_0M@JHOHHKMC@deathscript?$AA@ 20134b78     g_spawn.obj
 0002:00019b84       ??_C@_0L@OAEDPEGE@fleescript?$AA@ 20134b84     g_spawn.obj
 0002:00019b90       ??_C@_0L@OIKAJOBO@painscript?$AA@ 20134b90     g_spawn.obj
 0002:00019b9c       ??_C@_0BA@GFACABIL@lostenemyscript?$AA@ 20134b9c     g_spawn.obj
 0002:00019bac       ??_C@_0O@GAGAGHCH@victoryscript?$AA@ 20134bac     g_spawn.obj
 0002:00019bbc       ??_C@_0N@BFGNCHFI@attackscript?$AA@ 20134bbc     g_spawn.obj
 0002:00019bcc       ??_C@_0M@HHLLIBAA@angerscript?$AA@ 20134bcc     g_spawn.obj
 0002:00019bd8       ??_C@_0M@BBKCOIKJ@awakescript?$AA@ 20134bd8     g_spawn.obj
 0002:00019be4       ??_C@_09NEEOOAFM@usescript?$AA@ 20134be4     g_spawn.obj
 0002:00019bf0       ??_C@_0M@MPCECDHK@spawnscript?$AA@ 20134bf0     g_spawn.obj
 0002:00019bfc       ??_C@_0L@CCNDILBJ@idealclass?$AA@ 20134bfc     g_spawn.obj
 0002:00019c08       ??_C@_0L@PKAEFDKN@goaltarget?$AA@ 20134c08     g_spawn.obj
 0002:00019c14       ??_C@_0L@JKPNBHDD@paintarget?$AA@ 20134c14     g_spawn.obj
 0002:00019c20       ??_C@_0L@IJKLDOPM@opentarget?$AA@ 20134c20     g_spawn.obj
 0002:00019c2c       ??_C@_0M@LMCGMEO@closetarget?$AA@ 20134c2c     g_spawn.obj
 0002:00019c38       ??_C@_06HPJICMPM@linear?$AA@ 20134c38     g_spawn.obj
 0002:00019c40       ??_C@_0BE@OHABMMFD@targetShaderNewName?$AA@ 20134c40     g_spawn.obj
 0002:00019c54       ??_C@_0BB@FKLCNMKK@targetShaderName?$AA@ 20134c54     g_spawn.obj
 0002:00019c68       ??_C@_06GNEAMJOC@angles?$AA@ 20134c68     g_spawn.obj
 0002:00019c70       ??_C@_07ONPBMBOP@message?$AA@ 20134c70     g_spawn.obj
 0002:00019c78       ??_C@_0L@FEPNPAJD@targetname?$AA@ 20134c78     g_spawn.obj
 0002:00019c84       ??_C@_08IEKFELGP@NPC_type?$AA@ 20134c84     g_spawn.obj
 0002:00019c90       ??_C@_0M@HBKJFJLI@NPC_target4?$AA@ 20134c90     g_spawn.obj
 0002:00019c9c       ??_C@_0M@CHPDPODO@NPC_target2?$AA@ 20134c9c     g_spawn.obj
 0002:00019ca8       ??_C@_0L@DJGIMFPB@NPC_target?$AA@ 20134ca8     g_spawn.obj
 0002:00019cb4       ??_C@_0P@KGICNCBF@NPC_targetname?$AA@ 20134cb4     g_spawn.obj
 0002:00019cc4       ??_C@_07CEOCKJPC@target6?$AA@ 20134cc4     g_spawn.obj
 0002:00019ccc       ??_C@_07PMPPKDB@target5?$AA@ 20134ccc     g_spawn.obj
 0002:00019cd4       ??_C@_07BGNEMLHA@target4?$AA@ 20134cd4     g_spawn.obj
 0002:00019cdc       ??_C@_07FJJFFNLH@target3?$AA@ 20134cdc     g_spawn.obj
 0002:00019ce4       ??_C@_07EAIOGMPG@target2?$AA@ 20134ce4     g_spawn.obj
 0002:00019cec       ??_C@_0L@HLIKNEFC@spawnflags?$AA@ 20134cec     g_spawn.obj
 0002:00019cf8       ??_C@_06LNKHAAKC@model2?$AA@ 20134cf8     g_spawn.obj
 0002:00019d00       ??_C@_06NHCMNMEH@origin?$AA@ 20134d00     g_spawn.obj
 0002:00019d08       ??_C@_09PEDIFLC@ownername?$AA@ 20134d08     g_spawn.obj
 0002:00019d14       ??_C@_0M@EFKDMLIP@healingrate?$AA@ 20134d14     g_spawn.obj
 0002:00019d20       ??_C@_0N@LMFGHGJJ@healingsound?$AA@ 20134d20     g_spawn.obj
 0002:00019d30       ??_C@_0N@DGCGHKKP@healingclass?$AA@ 20134d30     g_spawn.obj
 0002:00019d40       ??_C@_0L@NAAEEKCF@rofftarget?$AA@ 20134d40     g_spawn.obj
 0002:00019d4c       ??_C@_08FLOLJFG@roffname?$AA@ 20134d4c     g_spawn.obj
 0002:00019d58       ??_C@_0L@KJMMNOPM@alliedTeam?$AA@ 20134d58     g_spawn.obj
 0002:00019d64       ??_C@_08KOLEPOPA@teamuser?$AA@ 20134d64     g_spawn.obj
 0002:00019d70       ??_C@_09DJLPOIFP@teamowner?$AA@ 20134d70     g_spawn.obj
 0002:00019d7c       ??_C@_09PEGILAHB@teamnodmg?$AA@ 20134d7c     g_spawn.obj
 0002:00019d88       ??_C@_09CNJINBGN@classname?$AA@ 20134d88     g_spawn.obj
 0002:00019d94       ??_C@_09LHPNOBMB@blue_flag?$AA@ 20134d94     g_spawn.obj
 0002:00019da0       ??_C@_08NJKCOKCI@red_flag?$AA@ 20134da0     g_spawn.obj
 0002:00019dac       ??_C@_04DNPGJOMD@flag?$AA@ 20134dac     g_spawn.obj
 0002:00019db4       ??_C@_0CC@JNJOINHG@?$CFs?5doesn?8t?5have?5a?5spawn?5function@ 20134db4     g_spawn.obj
 0002:00019dd8       ??_C@_0BN@EMEGOFNC@G_CallSpawn?3?5NULL?5classname?6?$AA@ 20134dd8     g_spawn.obj
 0002:00019df8       ??_C@_08NJPDEKHO@gametype?$AA@ 20134df8     g_spawn.obj
 0002:00019e04       ??_C@_05KMOCHNEL@notta?$AA@ 20134e04     g_spawn.obj
 0002:00019e0c       ??_C@_07DDCDJNBH@notfree?$AA@ 20134e0c     g_spawn.obj
 0002:00019e14       ??_C@_07CLBNBEAH@notteam?$AA@ 20134e14     g_spawn.obj
 0002:00019e1c       ??_C@_09FDFEENEB@notsingle?$AA@ 20134e1c     g_spawn.obj
 0002:00019e28       ??_C@_0CE@JHGDANIP@G_AddSpawnVarToken?3?5MAX_SPAWN_CH@ 20134e28     g_spawn.obj
 0002:00019e4c       ??_C@_0L@JEPABELH@ICARUSname?$AA@ 20134e4c     g_spawn.obj
 0002:00019e58       ??_C@_0L@GPJOEDDC@brushchild?$AA@ 20134e58     g_spawn.obj
 0002:00019e64       ??_C@_0M@JFHNMIGF@brushparent?$AA@ 20134e64     g_spawn.obj
 0002:00019e70       ??_C@_0L@MEPFGHK@killtarget?$AA@ 20134e70     g_spawn.obj
 0002:00019e7c       ??_C@_04HDOCAJNK@?$CFs?$CFs?$AA@ 20134e7c     g_spawn.obj
 0002:00019e84       ??_C@_0O@KDLMNIJN@BSPInstanceID?$AA@ 20134e84     g_spawn.obj
 0002:00019e94       ??_C@_09HPKLLIJF@direction?$AA@ 20134e94     g_spawn.obj
 0002:00019ea0       ??_C@_05OPFMIDOD@?$CF0?40f?$AA@ 20134ea0     g_spawn.obj
 0002:00019ea8       ??_C@_0BC@ILNELINF@?$CF0?40f?5?$CF0?40f?5?$CF0?40f?$AA@ 20134ea8     g_spawn.obj
 0002:00019ebc       ??_C@_07GACLGDNA@novalue?$AA@ 20134ebc     g_spawn.obj
 0002:00019ec4       ??_C@_0CB@JFPBODJK@G_ParseSpawnVars?3?5MAX_SPAWN_VARS@ 20134ec4     g_spawn.obj
 0002:00019ee8       ??_C@_0CN@NMMGIHBC@G_ParseSpawnVars?3?5closing?5brace?5@ 20134ee8     g_spawn.obj
 0002:00019f18       ??_C@_0CM@DONEEOIH@G_ParseSpawnVars?3?5EOF?5without?5cl@ 20134f18     g_spawn.obj
 0002:00019f44       ??_C@_0CM@CKLLJIGA@G_ParseSpawnVars?3?5found?5?$CFs?5when?5@ 20134f44     g_spawn.obj
 0002:00019f70       ??_C@_0DE@IBCLMDHM@Style?5?$CFd?5has?5inconsistent?5length@ 20134f70     g_spawn.obj
 0002:00019fa4       ??_C@_06JGIJBELA@ls_?$CFdb?$AA@ 20134fa4     g_spawn.obj
 0002:00019fac       ??_C@_06OLPOOAPF@ls_?$CFdg?$AA@ 20134fac     g_spawn.obj
 0002:00019fb4       ??_C@_06NMELAGOB@ls_?$CFdr?$AA@ 20134fb4     g_spawn.obj
 0002:00019fbc       ??_C@_0N@PNMKKPBO@enableBreath?$AA@ 20134fbc     g_spawn.obj
 0002:00019fcc       ??_C@_05LLDJOKNO@music?$AA@ 20134fcc     g_spawn.obj
 0002:00019fd4       ??_C@_09ELPBALBF@basejka?91?$AA@ 20134fd4     g_spawn.obj
 0002:00019fe0       ??_C@_0DD@EBBCPGHA@SP_worldspawn?3?5The?5first?5entity?5@ 20134fe0     g_spawn.obj
 0002:0001a014       ??_C@_0L@BIFLFHPF@worldspawn?$AA@ 20135014     g_spawn.obj
 0002:0001a020       ??_C@_0N@LEHBMFBL@distanceCull?$AA@ 20135020     g_spawn.obj
 0002:0001a030       ??_C@_06BBMFKKHK@6000?40?$AA@ 20135030     g_spawn.obj
 0002:0001a038       ??_C@_0DF@GMCLPLCB@MAX_AMBIENT_SETS?5was?5exceeded?$CB?5?$CI@ 20135038     g_spawn.obj
 0002:0001a070       ??_C@_0BL@HLOLFMOK@SpawnEntities?3?5no?5entities?$AA@ 20135070     g_spawn.obj
 0002:0001a08c       ??_C@_0BI@DIECJMKD@Bad?5filter?5address?3?5?$CFs?6?$AA@ 2013508c     g_svcmds.obj
 0002:0001a0a4       ??_C@_0N@DGCGOBB@?$CFi?4?$CFi?4?$CFi?4?$CFi?5?$AA@ 201350a4     g_svcmds.obj
 0002:0001a0b4       ??_C@_0BI@LMFPAHLD@IP?5filter?5list?5is?5full?6?$AA@ 201350b4     g_svcmds.obj
 0002:0001a0cc       ??_C@_0BJ@LEBLJMPE@Usage?3?5?5addip?5?$DMip?9mask?$DO?6?$AA@ 201350cc     g_svcmds.obj
 0002:0001a0e8       ??_C@_09HBKBHJKE@Removed?4?6?$AA@ 201350e8     g_svcmds.obj
 0002:0001a0f4       ??_C@_0BB@DFCHPNBP@Didn?8t?5find?5?$CFs?4?6?$AA@ 201350f4     g_svcmds.obj
 0002:0001a108       ??_C@_0BP@OJMGJOKB@Usage?3?5?5sv?5removeip?5?$DMip?9mask?$DO?6?$AA@ 20135108     g_svcmds.obj
 0002:0001a128       ??_C@_0O@JAFMKKBG@?$CFi?4?$CFi?4?$CFi?4?$CFi?5?6?$AA@ 20135128     g_svcmds.obj
 0002:0001a138       ??_C@_07PJLAACPA@unused?6?$AA@ 20135138     g_svcmds.obj
 0002:0001a140       ??_C@_04DIMAIMCG@?$CFd?3?5?$AA@ 20135140     g_svcmds.obj
 0002:0001a148       ??_C@_0BD@HHDNPECP@?$CFd?5IP?5slots?5used?4?6?$AA@ 20135148     g_svcmds.obj
 0002:0001a15c       ??_C@_08HCHBGJKC@unused?5?6?$AA@ 2013515c     g_svcmds.obj
 0002:0001a168       ??_C@_04EGBKGGKI@?$CFd?5?6?$AA@ 20135168     g_svcmds.obj
 0002:0001a170       ??_C@_0CL@GGAINGCH@G_SaveBanIP?5?9?5ERROR?3?5can?8t?5open?5@ 20135170     g_svcmds.obj
 0002:0001a19c       ??_C@_09NJAPEDOJ@banip?4txt?$AA@ 2013519c     g_svcmds.obj
 0002:0001a1a8       ??_C@_06OJAIHGIC@unused?$AA@ 201351a8     g_svcmds.obj
 0002:0001a1b0       ??_C@_0CL@EHIOANJC@G_LoadBanIP?5?9?5ERROR?3?5can?8t?5open?5@ 201351b0     g_svcmds.obj
 0002:0001a1dc       ??_C@_0BF@HIBFLMFA@?$CF3i?5?5?5?5?5?5?5?5?5?5?5?5?5?5?5?5?5?$AA@ 201351dc     g_svcmds.obj
 0002:0001a1f4       ??_C@_0BF@PHLNOJCF@ET_NPC?5?5?5?5?5?5?5?5?5?5?5?5?5?5?$AA@ 201351f4     g_svcmds.obj
 0002:0001a20c       ??_C@_0BF@FONFEMNK@ET_INVISIBLE?5?5?5?5?5?5?5?5?$AA@ 2013520c     g_svcmds.obj
 0002:0001a224       ??_C@_0BF@KNGJOHIC@ET_TELEPORT_TRIGGER?5?$AA@ 20135224     g_svcmds.obj
 0002:0001a23c       ??_C@_0BF@JCJGMGAM@ET_PUSH_TRIGGER?5?5?5?5?5?$AA@ 2013523c     g_svcmds.obj
 0002:0001a254       ??_C@_0BF@JKKJEPNL@ET_SPEAKER?5?5?5?5?5?5?5?5?5?5?$AA@ 20135254     g_svcmds.obj
 0002:0001a26c       ??_C@_0BF@FABEBACG@ET_PORTAL?5?5?5?5?5?5?5?5?5?5?5?$AA@ 2013526c     g_svcmds.obj
 0002:0001a284       ??_C@_0BF@DBCLPHFC@ET_BEAM?5?5?5?5?5?5?5?5?5?5?5?5?5?$AA@ 20135284     g_svcmds.obj
 0002:0001a29c       ??_C@_0BF@CKCOPBOH@ET_MOVER?5?5?5?5?5?5?5?5?5?5?5?5?$AA@ 2013529c     g_svcmds.obj
 0002:0001a2b4       ??_C@_0BF@JMOJKPHI@ET_MISSILE?5?5?5?5?5?5?5?5?5?5?$AA@ 201352b4     g_svcmds.obj
 0002:0001a2cc       ??_C@_0BF@IIDKJKIF@ET_ITEM?5?5?5?5?5?5?5?5?5?5?5?5?5?$AA@ 201352cc     g_svcmds.obj
 0002:0001a2e4       ??_C@_0BF@GHCCJGLD@ET_PLAYER?5?5?5?5?5?5?5?5?5?5?5?$AA@ 201352e4     g_svcmds.obj
 0002:0001a2fc       ??_C@_0BF@GBIOGILC@ET_GENERAL?5?5?5?5?5?5?5?5?5?5?$AA@ 201352fc     g_svcmds.obj
 0002:0001a314       ??_C@_04LAMNNBAP@?$CF3i?3?$AA@ 20135314     g_svcmds.obj
 0002:0001a31c       ??_C@_0BO@DPIFHGAP@User?5?$CFs?5is?5not?5on?5the?5server?6?$AA@ 2013531c     g_svcmds.obj
 0002:0001a33c       ??_C@_0BF@BEBENGBA@Bad?5client?5slot?3?5?$CFi?6?$AA@ 2013533c     g_svcmds.obj
 0002:0001a354       ??_C@_0BM@KMBENOOM@Client?5?$CFi?5is?5not?5connected?6?$AA@ 20135354     g_svcmds.obj
 0002:0001a370       ??_C@_0M@DLBALKIJ@server?3?5?$CFs?6?$AA@ 20135370     g_svcmds.obj
 0002:0001a37c       ??_C@_0BE@HCGFEOLO@print?5?$CCserver?3?5?$CFs?6?$CC?$AA@ 2013537c     g_svcmds.obj
 0002:0001a390       ??_C@_09PIFOOLDM@centersay?$AA@ 20135390     g_svcmds.obj
 0002:0001a39c       ??_C@_06DDGIHMAP@listip?$AA@ 2013539c     g_svcmds.obj
 0002:0001a3a4       ??_C@_08FODIKFHA@removeip?$AA@ 201353a4     g_svcmds.obj
 0002:0001a3b0       ??_C@_05DNFKLKCD@addip?$AA@ 201353b0     g_svcmds.obj
 0002:0001a3b8       ??_C@_07OCFGLMLF@botlist?$AA@ 201353b8     g_svcmds.obj
 0002:0001a3c0       ??_C@_0M@OOGGMGEK@game_memory?$AA@ 201353c0     g_svcmds.obj
 0002:0001a3cc       ??_C@_09NGKIAGHE@forceteam?$AA@ 201353cc     g_svcmds.obj
 0002:0001a3d8       ??_C@_0L@CLDMIJOM@entitylist?$AA@ 201353d8     g_svcmds.obj
 0002:0001a3e4       ??_C@_0P@HNPHJBEH@?$CFs?3?5text?5?$FL?$CFs?$FN?6?$AA@ 201353e4     g_syscalls.obj
 0002:0001a3f4       ??_C@_0DM@KGIOBLCA@?$CFs?3?5trap_SendServerCommand?$CI?5?$CFd?0?5@ 201353f4     g_syscalls.obj
 0002:0001a430       ??_C@_0CD@NDDGBFOC@ERROR?3?5Bad?5ent?5in?5Use_Target_Pri@ 20135430     g_target.obj
 0002:0001a454       ??_C@_07PCJFOBJC@cp?5?$CC?$CFs?$CC?$AA@ 20135454     g_target.obj
 0002:0001a45c       ??_C@_08NHIMLLGB@cps?5?$CC?$CFs?$CC?$AA@ 2013545c     g_target.obj
 0002:0001a468       ??_C@_0CJ@IFBKPFJP@ERROR?3?5Bad?5activator?5in?5Use_Targ@ 20135468     g_target.obj
 0002:0001a494       ??_C@_0CJ@MCNLAIAG@target_speaker?5without?5a?5noise?5k@ 20135494     g_target.obj
 0002:0001a4c0       ??_C@_05GPLCCBII@noise?$AA@ 201354c0     g_target.obj
 0002:0001a4c8       ??_C@_07FGPCJFED@NOSOUND?$AA@ 201354c8     g_target.obj
 0002:0001a4d0       ??_C@_0BO@JBAPADMO@?$CFs?5at?5?$CFs?3?5?$CFs?5is?5a?5bad?5target?6?$AA@ 201354d0     g_target.obj
 0002:0001a4f0       ??_C@_0CG@NCOEMBAJ@Couldn?8t?5find?5teleporter?5destina@ 201354f0     g_target.obj
 0002:0001a518       ??_C@_0BF@CCKDOAMJ@untargeted?5?$CFs?5at?5?$CFs?6?$AA@ 20135518     g_target.obj
 0002:0001a530       ??_C@_07CIFAGBMG@unknown?$AA@ 20135530     g_target.obj
 0002:0001a538       ??_C@_0CG@LDLAEJKF@target_counter?5?$CFs?5used?5by?5?$CFs?5?$CI?$CFd@ 20135538     g_target.obj
 0002:0001a560       ??_C@_0CD@NFAEDMPK@target_scriptrunner?5?$CFs?5used?5by?5?$CF@ 20135560     g_target.obj
 0002:0001a584       ??_C@_05GFOLEBJA@?$CFs?1?$CFs?$AA@ 20135584     g_target.obj
 0002:0001a58c       ??_C@_0DP@NLGPHMHC@target_scriptrunner?5tried?5to?5run@ 2013558c     g_target.obj
 0002:0001a5cc       ??_C@_03NPMJBIL@?$CFs?1?$AA@ 201355cc     g_target.obj
 0002:0001a5d0       ??_C@_0DA@BDLIPFDN@target_scriptrunner?5running?5?$CFs?5o@ 201355d0     g_target.obj
 0002:0001a600       ??_C@_0P@CKACIMOP@newICARUSEnt?$CFd?$AA@ 20135600     g_target.obj
 0002:0001a610       ??_C@_0DF@KFOAMLJM@target_scriptrunner?5tried?5to?5run@ 20135610     g_target.obj
 0002:0001a648       ??_C@_0N@GOHBIABJ@briefmenu?5?$CFs?$AA@ 20135648     g_target.obj
 0002:0001a658       ??_C@_05LMFDOBNM@?$CFs?$HM?$CFs?$AA@ 20135658     g_target.obj
 0002:0001a660       ??_C@_0CG@NEPDKPME@target_level_change?5with?5no?5mapn@ 20135660     g_target.obj
 0002:0001a688       ??_C@_02ECNGHCIF@?$CL?$CL?$AA@ 20135688     g_target.obj
 0002:0001a68c       ??_C@_0CM@HGIEKODL@target_play_music?5without?5a?5musi@ 2013568c     g_target.obj
 0002:0001a6b8       ??_C@_0CM@IFKDHDNE@Error?3?5Non?9Player?5activated?5targ@ 201356b8     g_target.obj
 0002:0001a6e4       ??_C@_0CA@NHDFMNPF@cp?5?$CC?$FO4?$CFi?5?1?5?$CFi?$FO1?5Secrets?5Found?6?$CC?$AA@ 201356e4     g_target.obj
 0002:0001a704       ??_C@_0CF@NIHCEOHH@cp?5?$CC?$FO1All?5secrets?5have?5been?5foun@ 20135704     g_target.obj
 0002:0001a72c       ??_C@_0BM@MGBKOPAD@cp?5?$CC?$FO1One?5secret?5remains?4?6?$CC?$AA@ 2013572c     g_target.obj
 0002:0001a748       ??_C@_0BM@OCIHNHIG@sound?1interface?1secret_area?$AA@ 20135748     g_target.obj
 0002:0001a764       ??_C@_0CF@DDGBGADJ@cp?5?$CC?$CFs?$FO1?5discovered?5a?5secret?5are@ 20135764     g_target.obj
 0002:0001a790       __real@408c200000000000    20135790     g_target.obj
 0002:0001a798       ??_C@_0DA@CPEKEEHL@Warning?3?5Client?5?$CFi?5couldn?8t?5spaw@ 20135798     g_target.obj
 0002:0001a7c8       ??_C@_0BM@FDKFFAHM@cp?5?$CC?$FO1Reached?5Checkpoint?4?6?$CC?$AA@ 201357c8     g_target.obj
 0002:0001a7e4       ??_C@_0BP@NIMGGLNC@cp?5?$CC?$CFs?$FO1?5Reached?5Checkpoint?4?6?$CC?$AA@ 201357e4     g_target.obj
 0002:0001a804       ??_C@_0CD@EMGFDNLE@Bad?5spawnpoint?5in?5Use_Autosave?$CI?$CJ@ 20135804     g_target.obj
 0002:0001a828       ??_C@_04HEDFJGEJ@FREE?$AA@ 20135828     g_team.obj
 0002:0001a830       ??_C@_09GNDCBOBP@SPECTATOR?$AA@ 20135830     g_team.obj
 0002:0001a83c       ??_C@_04CNFFLDFF@BLUE?$AA@ 2013583c     g_team.obj
 0002:0001a844       ??_C@_03FNPLCCOA@RED?$AA@  20135844     g_team.obj
 0002:0001a848       ??_C@_02KAMBCCOF@?$FO1?$AA@ 20135848     g_team.obj
 0002:0001a84c       ??_C@_0CP@OBNDLAL@Warning?3?5?5NULL?5passed?5to?5Team_Re@ 2013584c     g_team.obj
 0002:0001a87c       ??_C@_0CN@EPFNCNCH@Warning?3?5?5NULL?5passed?5to?5Team_Ta@ 2013587c     g_team.obj
 0002:0001a8ac       ??_C@_0DA@ICMFPMGB@Warning?3?5?5NULL?5passed?5to?5Team_Ca@ 201358ac     g_team.obj
 0002:0001a8e0       __real@40c3880000000000    201358e0     g_team.obj
 0002:0001a8e8       __real@4d400000            201358e8     g_team.obj
 0002:0001a8ec       ??_C@_08BKJPOMKC@?$CFc?$CFc?$CFs?$FO7?$AA@ 201358ec     g_team.obj
 0002:0001a8f8       ??_C@_0EA@DDIPPCBC@Default?5spawnpoint?5is?5occuped?0?5c@ 201358f8     g_team.obj
 0002:0001a938       ??_C@_0M@PHDLOMHJ@tinfo?5?$CFi?5?$CFs?$AA@ 20135938     g_team.obj
 0002:0001a944       ??_C@_0BD@FAPFLCHD@?5?$CFi?5?$CFi?5?$CFi?5?$CFi?5?$CFi?5?$CFi?$AA@ 20135944     g_team.obj
 0002:0001a958       ??_C@_0CM@IPHKKKLE@trigger_lightningstrike?5with?5no?5@ 20135958     g_trigger.obj
 0002:0001a984       ??_C@_0M@KBEMDIKL@lightningfx?$AA@ 20135984     g_trigger.obj
 0002:0001a990       ??_C@_0BN@EAECLFCC@sound?1weapons?1force?1jump?4wav?$AA@ 20135990     g_trigger.obj
 0002:0001a9b0       ??_C@_0BO@CMLBKDJG@sound?1weapons?1force?1speed?4wav?$AA@ 201359b0     g_trigger.obj
 0002:0001a9d0       ??_C@_0CO@FDMPBMNJ@trigger_shipboundary?5has?5invalid@ 201359d0     g_trigger.obj
 0002:0001aa00       ??_C@_0CJ@DBHHLEEI@trigger_shipboundary?5without?5tra@ 20135a00     g_trigger.obj
 0002:0001aa2c       ??_C@_0L@LNFJKCED@traveltime?$AA@ 20135a2c     g_trigger.obj
 0002:0001aa38       ??_C@_0CH@COEEOLBB@trigger_shipboundary?5without?5a?5t@ 20135a38     g_trigger.obj
 0002:0001aa60       ??_C@_0CM@NCOMPPEO@trigger_hyperspace?5has?5invalid?5t@ 20135a60     g_trigger.obj
 0002:0001aa8c       ??_C@_0CN@BOABLGBM@trigger_hyperspace?5has?5invalid?5t@ 20135a8c     g_trigger.obj
 0002:0001aabc       ??_C@_0CD@GJLJCDPF@sound?1vehicles?1common?1hyperend?4w@ 20135abc     g_trigger.obj
 0002:0001aae0       ??_C@_0CG@BHHCKDBE@trigger_hyperspace?5without?5a?5tar@ 20135ae0     g_trigger.obj
 0002:0001ab08       ??_C@_0CF@PPLMAHAM@trigger_hyperspace?5without?5a?5tar@ 20135b08     g_trigger.obj
 0002:0001ab30       ??_C@_09DOLKDJOK@exitscale?$AA@ 20135b30     g_trigger.obj
 0002:0001ab3c       ??_C@_0CF@GJKCPHON@func_timer?5at?5?$CFs?5has?5random?5?$DO?$DN?5w@ 20135b3c     g_trigger.obj
 0002:0001ab64       ??_C@_03PHODBHCN@FOV?$AA@  20135b64     g_trigger.obj
 0002:0001ab68       ??_C@_0CH@MAEBPCMP@?$FO3trigger_multiple?5has?5random?5?$DO?$DN@ 20135b68     g_trigger.obj
 0002:0001ab90       ??_C@_0M@PMGFKLDM@teambalance?$AA@ 20135b90     g_trigger.obj
 0002:0001ab9c       ??_C@_09NPDGPPGH@siegetrig?$AA@ 20135b9c     g_trigger.obj
 0002:0001aba8       ??_C@_07OJCNNCCK@usetime?$AA@ 20135ba8     g_trigger.obj
 0002:0001abb0       __real@c3b40000            20135bb0     g_trigger.obj
 0002:0001abb4       ??_C@_0P@HPANKGOE@turret?1explode?$AA@ 20135bb4     g_turret.obj
 0002:0001abc4       __real@bfc00000            20135bc4     g_turret.obj
 0002:0001abc8       ??_C@_0M@JJHDKEHB@turret_proj?$AA@ 20135bc8     g_turret.obj
 0002:0001abd4       ??_C@_0CM@MNFHOKJB@sound?1vehicles?1weapons?1hoth_turr@ 20135bd4     g_turret.obj
 0002:0001ac00       ??_C@_0N@ICMLAJIP@atst_vehicle?$AA@ 20135c00     g_turret.obj
 0002:0001ac10       ??_C@_0BD@MPFKMNHP@turret?1hoth_impact?$AA@ 20135c10     g_turret.obj
 0002:0001ac24       ??_C@_0BB@GEPFGFNE@turret?1hoth_shot?$AA@ 20135c24     g_turret.obj
 0002:0001ac38       __real@c2400000            20135c38     g_turret.obj
 0002:0001ac40       __real@404b800000000000    20135c40     g_turret.obj
 0002:0001ac48       ??_C@_09MAENPDHI@shotspeed?$AA@ 20135c48     g_turret.obj
 0002:0001ac54       ??_C@_04BGCGNFHD@1100?$AA@ 20135c54     g_turret.obj
 0002:0001ac60       __real@40c1940000000000    20135c60     g_turret.obj
 0002:0001ac68       ??_C@_0BJ@GCKNMIDL@turret?1hoth_muzzle_flash?$AA@ 20135c68     g_turret.obj
 0002:0001ac84       ??_C@_0BH@HKDCPBHI@sparks?1spark_exp_nosnd?$AA@ 20135c84     g_turret.obj
 0002:0001ac9c       ??_C@_0CH@FGIPLGKH@models?1map_objects?1hoth?1turret_t@ 20135c9c     g_turret.obj
 0002:0001acc4       ??_C@_0CL@HIJNPIJH@models?1map_objects?1hoth?1turret_t@ 20135cc4     g_turret.obj
 0002:0001acf0       ??_C@_0CI@CJAAEABA@models?1map_objects?1hoth?1turret_b@ 20135cf0     g_turret.obj
 0002:0001ad18       ??_C@_0CK@JGPPFGHG@models?1map_objects?1hoth?1turret_b@ 20135d18     g_turret.obj
 0002:0001ad44       ??_C@_0CH@IDECJJOL@WARNING?3?5NPC?5has?5no?5free?5bone?5in@ 20135d44     g_turret_G2.obj
 0002:0001ad6c       ??_C@_08HPDHFGN@?$CKflash03?$AA@ 20135d6c     g_turret_G2.obj
 0002:0001ad78       ??_C@_09NFEDAHLD@Bone_body?$AA@ 20135d78     g_turret_G2.obj
 0002:0001ad84       ??_C@_08DANAGKEC@?$CKmuzzle2?$AA@ 20135d84     g_turret_G2.obj
 0002:0001ad90       ??_C@_08BLPNDJIB@?$CKmuzzle1?$AA@ 20135d90     g_turret_G2.obj
 0002:0001ad9c       ??_C@_05NCNFOFLM@pitch?$AA@ 20135d9c     g_turret_G2.obj
 0002:0001ada4       ??_C@_0DA@NMCABBKJ@models?1map_objects?1wedge?1laser_c@ 20135da4     g_turret_G2.obj
 0002:0001add4       ??_C@_0CN@OOCAJNEI@models?1map_objects?1imp_mine?1turr@ 20135dd4     g_turret_G2.obj
 0002:0001ae04       ??_C@_0CO@JLDHGONF@models?1map_objects?1imp_mine?1turr@ 20135e04     g_turret_G2.obj
 0002:0001ae34       ??_C@_0BF@DOFNBELO@blaster?1muzzle_flash?$AA@ 20135e34     g_turret_G2.obj
 0002:0001ae4c       ??_C@_0BM@ECOPMLLG@sound?1chars?1turret?1move?4wav?$AA@ 20135e4c     g_turret_G2.obj
 0002:0001ae68       ??_C@_0CL@EAHPLHKD@sound?1vehicles?1weapons?1turbolase@ 20135e68     g_turret_G2.obj
 0002:0001ae94       ??_C@_0BD@BCCBALJE@turret?1turb_impact?$AA@ 20135e94     g_turret_G2.obj
 0002:0001aea8       ??_C@_0BB@CJGJKJE@turret?1turb_shot?$AA@ 20135ea8     g_turret_G2.obj
 0002:0001aebc       ??_C@_0BJ@EBBELPPP@turret?1turb_muzzle_flash?$AA@ 20135ebc     g_turret_G2.obj
 0002:0001aed8       __real@44898000            20135ed8     g_turret_G2.obj
 0002:0001aedc       __real@c2800000            20135edc     g_turret_G2.obj
 0002:0001aee0       __real@47000000            20135ee0     g_turret_G2.obj
 0002:0001aee4       __real@469c4000            20135ee4     g_turret_G2.obj
 0002:0001aee8       __real@4036000000000000    20135ee8     g_turret_G2.obj
 0002:0001aef0       ??_C@_0M@IOPBAFJL@customscale?$AA@ 20135ef0     g_turret_G2.obj
 0002:0001aefc       ??_C@_08BNPJAPFJ@painwait?$AA@ 20135efc     g_turret_G2.obj
 0002:0001af08       ??_C@_0N@MLGFLFEI@?$CFs?$DN?$CFs?3?$CF5?42f?$EA?$AA@ 20135f08     g_utils.obj
 0002:0001af18       ??_C@_0CC@KBENIHEG@G_FindConfigstringIndex?3?5overflo@ 20135f18     g_utils.obj
 0002:0001af3c       ??_C@_0BP@HAPKODAI@Ran?5out?5of?5vehicle?5pool?5slots?4?$AA@ 20135f3c     g_utils.obj
 0002:0001af5c       ??_C@_0CD@HHFHMIIH@G_PickTarget?3?5target?5?$CFs?5not?5foun@ 20135f5c     g_utils.obj
 0002:0001af80       ??_C@_0CK@JOENGKNM@G_PickTarget?5called?5with?5NULL?5ta@ 20135f80     g_utils.obj
 0002:0001afac       ??_C@_0L@OPPGOKFJ@?$CI?$CFi?5?$CFi?5?$CFi?$CJ?$AA@ 20135fac     g_utils.obj
 0002:0001afb8       ??_C@_07CBNPCFPB@noclass?$AA@ 20135fb8     g_utils.obj
 0002:0001afc0       ??_C@_0EF@PEPCENHC@TempEnt?5count?3?5?$CFi?6TempEnt?5ST?3?5?$CFi@ 20135fc0     g_utils.obj
 0002:0001b008       ??_C@_0BH@PKCNJLPB@ENT?5?$CF4i?3?5Classname?5?$CFs?6?$AA@ 20136008     g_utils.obj
 0002:0001b020       ??_C@_0BE@LFKGKLNA@TEMPENT?5?$CF4i?3?5EV?5?$CFi?6?$AA@ 20136020     g_utils.obj
 0002:0001b038       ??_C@_0FG@GAHAEFEJ@Warning?3?5FindRemoveAbleGent?5remo@ 20136038     g_utils.obj
 0002:0001b090       ??_C@_0GD@CLMKIPJK@Warning?3?5FindRemoveAbleGent?5remo@ 20136090     g_utils.obj
 0002:0001b0f8       ??_C@_0FC@JHINMHJN@Warning?3?5FindRemoveAbleGent?5remo@ 201360f8     g_utils.obj
 0002:0001b150       ??_C@_0FA@EGCKLLJN@Warning?3?5FindRemoveAbleGent?5remo@ 20136150     g_utils.obj
 0002:0001b1a0       ??_C@_03PEDANLDI@?5?$CFi?$AA@ 201361a0     g_utils.obj
 0002:0001b1a4       ??_C@_03JCHENJDF@kg2?$AA@  201361a4     g_utils.obj
 0002:0001b1a8       ??_C@_06PLJBHEB@kg2?5?$CFi?$AA@ 201361a8     g_utils.obj
 0002:0001b1b0       ??_C@_09ILIPMPDD@kls?5?$CFi?5?$CFi?$AA@ 201361b0     g_utils.obj
 0002:0001b1bc       ??_C@_0CM@MOJHPIKM@G_AddEvent?3?5zero?5event?5added?5for@ 201361bc     g_utils.obj
 0002:0001b1e8       ??_C@_04GKOOIABA@loop?$AA@ 201361e8     g_utils.obj
 0002:0001b1f0       __real@4b800000            201361f0     g_utils.obj
 0002:0001b1f4       ??_C@_0BK@OECJBIJE@G_Spawn?3?5no?5free?5entities?$AA@ 201361f4     g_utils.obj
 0002:0001b210       ??_C@_0L@CPIFJPHE@tempEntity?$AA@ 20136210     g_utils.obj
 0002:0001b21c       __real@c3020000            2013621c     g_vehicles.obj
 0002:0001b220       __real@43020000            20136220     g_vehicles.obj
 0002:0001b224       ??_C@_05NGDBJHKI@glass?$AA@ 20136224     g_vehicles.obj
 0002:0001b22c       ??_C@_06ENLPFHD@f_gear?$AA@ 2013622c     g_vehicles.obj
 0002:0001b238       __real@3fc1eb8520000000    20136238     g_vehicles.obj
 0002:0001b240       __real@3fe51eb860000000    20136240     g_vehicles.obj
 0002:0001b248       __real@3f7d70a4            20136248     g_vehicles.obj
 0002:0001b250       __real@3fefae1480000000    20136250     g_vehicles.obj
 0002:0001b258       ??_C@_0L@EMGPBNCM@bryar_proj?$AA@ 20136258     g_weapon.obj
 0002:0001b264       __real@44c80000            20136264     g_weapon.obj
 0002:0001b268       ??_C@_0N@GIEOEAEM@blaster_proj?$AA@ 20136268     g_weapon.obj
 0002:0001b278       __real@450fc000            20136278     g_weapon.obj
 0002:0001b27c       ??_C@_0L@OCCDGMON@turbo_proj?$AA@ 2013627c     g_weapon.obj
 0002:0001b288       ??_C@_0BC@IGLFLAEE@emplaced_gun_proj?$AA@ 20136288     g_weapon.obj
 0002:0001b2a0       __real@3ff99999a0000000    201362a0     g_weapon.obj
 0002:0001b2a8       ??_C@_0P@FLKEEADM@bowcaster_proj?$AA@ 201362a8     g_weapon.obj
 0002:0001b2b8       __real@44a28000            201362b8     g_weapon.obj
 0002:0001b2bc       ??_C@_0BD@PLCMJHKB@bowcaster_alt_proj?$AA@ 201362bc     g_weapon.obj
 0002:0001b2d0       __real@4094500000000000    201362d0     g_weapon.obj
 0002:0001b2d8       ??_C@_0O@FKGDIMJD@repeater_proj?$AA@ 201362d8     g_weapon.obj
 0002:0001b2e8       ??_C@_0BC@IFCNIAMJ@repeater_alt_proj?$AA@ 201362e8     g_weapon.obj
 0002:0001b300       __real@3ff6666660000000    20136300     g_weapon.obj
 0002:0001b308       ??_C@_0L@GEJOBKEP@demp2_proj?$AA@ 20136308     g_weapon.obj
 0002:0001b314       ??_C@_0P@HAECMAPB@demp2_alt_proj?$AA@ 20136314     g_weapon.obj
 0002:0001b328       __real@4085e00000000000    20136328     g_weapon.obj
 0002:0001b330       ??_C@_0L@OKOKKGN@flech_proj?$AA@ 20136330     g_weapon.obj
 0002:0001b33c       __real@455ac000            2013633c     g_weapon.obj
 0002:0001b340       ??_C@_0CC@LCFKGMMC@sound?1weapons?1thermal?1warning?4wa@ 20136340     g_weapon.obj
 0002:0001b364       ??_C@_0CE@MDLOFNAP@sound?1weapons?1thermal?1thermloop?4@ 20136364     g_weapon.obj
 0002:0001b388       __real@3e19999a            20136388     g_weapon.obj
 0002:0001b38c       ??_C@_0BC@LLCAPHPA@thermal_detonator?$AA@ 2013638c     g_weapon.obj
 0002:0001b3a0       __real@4090000000000000    201363a0     g_weapon.obj
 0002:0001b3a8       ??_C@_0CF@GJBNPGFB@sound?1weapons?1laser_trap?1warning@ 201363a8     g_weapon.obj
 0002:0001b3d0       ??_C@_0CD@IHPKAHHF@sound?1weapons?1laser_trap?1stick?4w@ 201363d0     g_weapon.obj
 0002:0001b3f4       ??_C@_0CC@BKBDOFHP@sound?1weapons?1detpack?1warning?4wa@ 201363f4     g_weapon.obj
 0002:0001b418       ??_C@_09MDOFLPLE@conc_proj?$AA@ 20136418     g_weapon.obj
 0002:0001b424       __real@453b8000            20136424     g_weapon.obj
 0002:0001b428       __real@bfe8000000000000    20136428     g_weapon.obj
 0002:0001b430       __real@c32a0000            20136430     g_weapon.obj
 0002:0001b438       __real@4060400000000000    20136438     g_weapon.obj
 0002:0001b440       __real@415ab3f000000000    20136440     g_weapon.obj
 0002:0001b448       __real@bfc99999a0000000    20136448     g_weapon.obj
 0002:0001b450       ??_C@_0CH@IBMOCCDE@models?1map_objects?1mp?1turret_cha@ 20136450     g_weapon.obj
 0002:0001b478       ??_C@_0L@HOHHMJMM@constraint?$AA@ 20136478     g_weapon.obj
 0002:0001b484       ??_C@_03PANGFEPN@600?$AA@  20136484     g_weapon.obj
 0002:0001b488       ??_C@_09IPGOKCFE@flech_alt?$AA@ 20136488     g_weapon.obj
 0002:0001b498       __real@4097700000000000    20136498     g_weapon.obj
 0002:0001b4a0       __real@44610000            201364a0     g_weapon.obj
 0002:0001b4a4       ??_C@_0M@PCBIIDCC@rocket_proj?$AA@ 201364a4     g_weapon.obj
 0002:0001b4b0       __real@3fb0000000000000    201364b0     g_weapon.obj
 0002:0001b4b8       __real@45160000            201364b8     g_weapon.obj
 0002:0001b4bc       ??_C@_09ELICGGJG@laserTrap?$AA@ 201364bc     g_weapon.obj
 0002:0001b4c8       __real@40e0000000000000    201364c8     g_weapon.obj
 0002:0001b4d0       ??_C@_09JAIBNFNP@ShieldsUp?$AA@ 201364d0     NPC_AI_AssassinDroid.obj
 0002:0001b4dc       ??_C@_0M@PCDKOAN@ShieldsDown?$AA@ 201364dc     NPC_AI_AssassinDroid.obj
 0002:0001b4e8       ??_C@_0BF@BPNBJBAC@blaster?1smoke_bolton?$AA@ 201364e8     NPC_AI_Atst.obj
 0002:0001b500       ??_C@_0BB@LAKHBJGN@env?1med_explode2?$AA@ 20136500     NPC_AI_Atst.obj
 0002:0001b514       ??_C@_0BP@GCGLNBLJ@sound?1chars?1atst?1atst_damaged2?$AA@ 20136514     NPC_AI_Atst.obj
 0002:0001b534       ??_C@_0BP@EJEGICHK@sound?1chars?1atst?1atst_damaged1?$AA@ 20136534     NPC_AI_Atst.obj
 0002:0001b554       ??_C@_08PAEGGCJH@atkDelay?$AA@ 20136554     NPC_AI_Atst.obj
 0002:0001b560       __real@4119000000000000    20136560     NPC_AI_Atst.obj
 0002:0001b568       ??_C@_05GFIBCBAN@f_eye?$AA@ 20136568     NPC_AI_Droid.obj
 0002:0001b570       ??_C@_08GGJAFNBH@eyeDelay?$AA@ 20136570     NPC_AI_Droid.obj
 0002:0001b57c       ??_C@_0CF@LECIDPIL@sound?1chars?1gonk?1misc?1gonktalk?$CFd@ 2013657c     NPC_AI_Droid.obj
 0002:0001b5a4       ??_C@_0CD@DFIOFAKO@sound?1chars?1r5d2?1misc?1r5talk?$CFd?4w@ 201365a4     NPC_AI_Droid.obj
 0002:0001b5c8       ??_C@_0CG@PCBOBOAM@sound?1chars?1r2d2?1misc?1r2d2talk0?$CF@ 201365c8     NPC_AI_Droid.obj
 0002:0001b5f0       ??_C@_0CF@BEBBBAMD@sound?1chars?1mouse?1misc?1mousego?$CFd@ 201365f0     NPC_AI_Droid.obj
 0002:0001b618       ??_C@_0M@HDDDNBEJ@patrolNoise?$AA@ 20136618     NPC_AI_Droid.obj
 0002:0001b624       ??_C@_0L@JDMMGCIL@droidspark?$AA@ 20136624     NPC_AI_Droid.obj
 0002:0001b630       ??_C@_0BH@HKILEND@volumetric?1droid_smoke?$AA@ 20136630     NPC_AI_Droid.obj
 0002:0001b648       ??_C@_0BA@FDEIJFFN@droidsmoketotal?$AA@ 20136648     NPC_AI_Droid.obj
 0002:0001b658       ??_C@_05JNGEMOLJ@smoke?$AA@ 20136658     NPC_AI_Droid.obj
 0002:0001b660       ??_C@_04EAMMOIOF@roam?$AA@ 20136660     NPC_AI_Droid.obj
 0002:0001b668       __real@4081300000000000    20136668     NPC_AI_Droid.obj
 0002:0001b670       ??_C@_0BA@FGDNOONO@chunks?1r2d2head?$AA@ 20136670     NPC_AI_Droid.obj
 0002:0001b680       ??_C@_0BA@FMPIOHMH@chunks?1r5d2head?$AA@ 20136680     NPC_AI_Droid.obj
 0002:0001b690       ??_C@_0N@NJDKMADJ@small_chunks?$AA@ 20136690     NPC_AI_Droid.obj
 0002:0001b6a0       ??_C@_09FIJMOIJC@droidpain?$AA@ 201366a0     NPC_AI_Droid.obj
 0002:0001b6ac       ??_C@_0CB@JHHNIMFJ@sound?1chars?1gonk?1misc?1death3?4wav@ 201366ac     NPC_AI_Droid.obj
 0002:0001b6d0       ??_C@_0CB@FMCBFPPM@sound?1chars?1gonk?1misc?1death2?4wav@ 201366d0     NPC_AI_Droid.obj
 0002:0001b6f4       ??_C@_0CB@NKLFCNFC@sound?1chars?1gonk?1misc?1death1?4wav@ 201366f4     NPC_AI_Droid.obj
 0002:0001b718       ??_C@_0CE@DNFKABEC@sound?1chars?1gonk?1misc?1gonktalk2?4@ 20136718     NPC_AI_Droid.obj
 0002:0001b73c       ??_C@_0CE@LLMOHDOM@sound?1chars?1gonk?1misc?1gonktalk1?4@ 2013673c     NPC_AI_Droid.obj
 0002:0001b760       ??_C@_0O@PIABMGNL@galak?1explode?$AA@ 20136760     NPC_AI_GalakMech.obj
 0002:0001b770       ??_C@_0BD@OCPNKGIK@env?1small_explode2?$AA@ 20136770     NPC_AI_GalakMech.obj
 0002:0001b784       ??_C@_0BC@HPNGNJNH@galak?1beam_warmup?$AA@ 20136784     NPC_AI_GalakMech.obj
 0002:0001b798       ??_C@_0BB@JMOJJCNH@galak?1trace_beam?$AA@ 20136798     NPC_AI_GalakMech.obj
 0002:0001b7ac       ??_C@_0CE@PADMNJKL@sound?1weapons?1galak?1laserdamage?4@ 201367ac     NPC_AI_GalakMech.obj
 0002:0001b7d0       ??_C@_0CF@JAIGGHD@sound?1weapons?1galak?1lasercutting@ 201367d0     NPC_AI_GalakMech.obj
 0002:0001b7f8       ??_C@_0CE@DBBCCCDO@sound?1weapons?1galak?1lasercharge?4@ 201367f8     NPC_AI_GalakMech.obj
 0002:0001b81c       ??_C@_0CC@DBMKMJF@sound?1weapons?1galak?1skewerhit?4wa@ 2013681c     NPC_AI_GalakMech.obj
 0002:0001b840       ??_C@_0BB@OODOIIN@torso_eyes_mouth?$AA@ 20136840     NPC_AI_GalakMech.obj
 0002:0001b854       ??_C@_0BA@OOLBMDKI@torso_galakhead?$AA@ 20136854     NPC_AI_GalakMech.obj
 0002:0001b864       ??_C@_0BA@MEHMAPLB@torso_galakface?$AA@ 20136864     NPC_AI_GalakMech.obj
 0002:0001b874       ??_C@_0N@MNGGNPD@talkDebounce?$AA@ 20136874     NPC_AI_GalakMech.obj
 0002:0001b884       ??_C@_07OKPOKHIC@noRapid?$AA@ 20136884     NPC_AI_GalakMech.obj
 0002:0001b88c       ??_C@_05KCCDLCFH@noLob?$AA@ 2013688c     NPC_AI_GalakMech.obj
 0002:0001b894       ??_C@_09CKLAJBHL@beamDelay?$AA@ 20136894     NPC_AI_GalakMech.obj
 0002:0001b8a0       ??_C@_09LLDDNADG@smackTime?$AA@ 201368a0     NPC_AI_GalakMech.obj
 0002:0001b8ac       ??_C@_04IMJFEJN@flee?$AA@  201368ac     NPC_AI_GalakMech.obj
 0002:0001b8b4       ??_C@_0M@BJEKKMJA@attackDelay?$AA@ 201368b4     NPC_AI_GalakMech.obj
 0002:0001b8c0       ??_C@_0P@PPBIDDID@dyingExplosion?$AA@ 201368c0     NPC_AI_GalakMech.obj
 0002:0001b8d0       __real@48800000            201368d0     NPC_AI_GalakMech.obj
 0002:0001b8d4       ??_C@_09CLNBPHAJ@standTime?$AA@ 201368d4     NPC_AI_GalakMech.obj
 0002:0001b8e0       __real@48440000            201368e0     NPC_AI_GalakMech.obj
 0002:0001b8e4       ??_C@_09JAPFAACM@scoutTime?$AA@ 201368e4     NPC_AI_Grenadier.obj
 0002:0001b8f0       ??_C@_05EFGPBIKA@stick?$AA@ 201368f0     NPC_AI_Grenadier.obj
 0002:0001b8f8       ??_C@_08MFBBJDHB@hideTime?$AA@ 201368f8     NPC_AI_Grenadier.obj
 0002:0001b904       ??_C@_08IEPLPPND@roamTime?$AA@ 20136904     NPC_AI_Grenadier.obj
 0002:0001b910       ??_C@_0BB@JHPOKIFL@enemyLastVisible?$AA@ 20136910     NPC_AI_Grenadier.obj
 0002:0001b924       ??_C@_09CCMDANON@sleepTime?$AA@ 20136924     NPC_AI_Grenadier.obj
 0002:0001b930       ??_C@_0M@NDGDKMEM@shuffleTime?$AA@ 20136930     NPC_AI_Grenadier.obj
 0002:0001b93c       ??_C@_05PJLLPND@stand?$AA@ 2013693c     NPC_AI_Grenadier.obj
 0002:0001b944       ??_C@_04MFBGEONE@duck?$AA@ 20136944     NPC_AI_Grenadier.obj
 0002:0001b94c       ??_C@_07EFCDKMI@chatter?$AA@ 2013694c     NPC_AI_Grenadier.obj
 0002:0001b954       __real@49800000            20136954     NPC_AI_Grenadier.obj
 0002:0001b958       ??_C@_0CD@MFNNKLFH@sound?1chars?1howler?1howl_yell?$CFd?4m@ 20136958     NPC_AI_Howler.obj
 0002:0001b97c       ??_C@_0CD@NGHEPDD@sound?1chars?1howler?1howl_talk?$CFd?4m@ 2013697c     NPC_AI_Howler.obj
 0002:0001b9a0       ??_C@_0CD@LIPIMEPD@sound?1chars?1howler?1idle_hiss?$CFd?4m@ 201369a0     NPC_AI_Howler.obj
 0002:0001b9c4       ??_C@_0BM@GGNBBADC@sound?1chars?1howler?1howl?4mp3?$AA@ 201369c4     NPC_AI_Howler.obj
 0002:0001b9e0       ??_C@_0N@GHPACMMC@howler?1sonic?$AA@ 201369e0     NPC_AI_Howler.obj
 0002:0001b9f0       ??_C@_08KGJHNPPD@speaking?$AA@ 201369f0     NPC_AI_Howler.obj
 0002:0001b9fc       ??_C@_0BA@NNEHCGEA@aggressionDecay?$AA@ 201369fc     NPC_AI_Howler.obj
 0002:0001ba0c       ??_C@_07PANPENDC@running?$AA@ 20136a0c     NPC_AI_Howler.obj
 0002:0001ba14       ??_C@_07KOIGNFPA@walking?$AA@ 20136a14     NPC_AI_Howler.obj
 0002:0001ba1c       ??_C@_08KFJENABO@standing?$AA@ 20136a1c     NPC_AI_Howler.obj
 0002:0001ba28       ??_C@_0L@HOGNDEFA@retreating?$AA@ 20136a28     NPC_AI_Howler.obj
 0002:0001ba38       __real@405b000000000000    20136a38     NPC_AI_Howler.obj
 0002:0001ba40       ??_C@_0L@PHFHCEEJ@attack_dmg?$AA@ 20136a40     NPC_AI_Howler.obj
 0002:0001ba4c       ??_C@_09MEJNCKEO@attacking?$AA@ 20136a4c     NPC_AI_Howler.obj
 0002:0001ba58       ??_C@_0L@DMLNEFLE@takingPain?$AA@ 20136a58     NPC_AI_Howler.obj
 0002:0001ba64       ??_C@_0BA@CKCFEABD@lookForNewEnemy?$AA@ 20136a64     NPC_AI_Howler.obj
 0002:0001ba74       ??_C@_0BD@FEAFGDCF@bryar?1muzzle_flash?$AA@ 20136a74     NPC_AI_ImperialProbe.obj
 0002:0001ba88       ??_C@_0BB@JNDMIJG@chunks?1probehead?$AA@ 20136a88     NPC_AI_ImperialProbe.obj
 0002:0001ba9c       ??_C@_0BM@ODFHGPKP@sound?1chars?1probe?1misc?1fire?$AA@ 20136a9c     NPC_AI_ImperialProbe.obj
 0002:0001bab8       ??_C@_0BO@BFBIJCPA@sound?1chars?1probe?1misc?1anger1?$AA@ 20136ab8     NPC_AI_ImperialProbe.obj
 0002:0001bad8       ??_C@_0CD@BCANMJPJ@sound?1chars?1probe?1misc?1probetalk@ 20136ad8     NPC_AI_ImperialProbe.obj
 0002:0001bafc       ??_C@_0L@DHNBMKHK@angerNoise?$AA@ 20136afc     NPC_AI_ImperialProbe.obj
 0002:0001bb08       ??_C@_0DD@LJCKPHOA@sound?1chars?1interrogator?1misc?1to@ 20136b08     NPC_AI_Interrogator.obj
 0002:0001bb3c       ??_C@_0BM@LEPICAFG@sound?1chars?1probe?1misc?1talk?$AA@ 20136b3c     NPC_AI_Interrogator.obj
 0002:0001bb58       ??_C@_0CB@IINIPGNE@sound?1chars?1mark1?1misc?1anger?4wav@ 20136b58     NPC_AI_Interrogator.obj
 0002:0001bb7c       ??_C@_0CP@CLMJNOCH@sound?1chars?1interrogator?1misc?1to@ 20136b7c     NPC_AI_Interrogator.obj
 0002:0001bbac       ??_C@_04LPNEADOC@claw?$AA@ 20136bac     NPC_AI_Interrogator.obj
 0002:0001bbb4       ??_C@_09FCDCHAIM@right_arm?$AA@ 20136bb4     NPC_AI_Interrogator.obj
 0002:0001bbc0       ??_C@_0N@NFEFGKAG@scalpelDelay?$AA@ 20136bc0     NPC_AI_Interrogator.obj
 0002:0001bbd0       ??_C@_08PNIAGAJO@left_arm?$AA@ 20136bd0     NPC_AI_Interrogator.obj
 0002:0001bbdc       ??_C@_0N@FBOINNFI@syringeDelay?$AA@ 20136bdc     NPC_AI_Interrogator.obj
 0002:0001bbec       ??_C@_0DH@KMAFFALG@sound?1chars?1interrogator?1misc?1to@ 20136bec     NPC_AI_Interrogator.obj
 0002:0001bc24       ??_C@_0CA@HOCLHMJJ@sound?1chars?1probe?1misc?1talk?4wav?$AA@ 20136c24     NPC_AI_Interrogator.obj
 0002:0001bc44       ??_C@_0BG@INNPFLDC@force?1destruction_exp?$AA@ 20136c44     NPC_AI_Jedi.obj
 0002:0001bc5c       ??_C@_0CI@OLHNPIBK@sound?1movers?1objects?1green_beam_@ 20136c5c     NPC_AI_Jedi.obj
 0002:0001bc84       ??_C@_0CG@NAIPHKEM@sound?1chars?1shadowtrooper?1decloa@ 20136c84     NPC_AI_Jedi.obj
 0002:0001bcac       ??_C@_0CE@MCDJNJED@sound?1chars?1shadowtrooper?1cloak?4@ 20136cac     NPC_AI_Jedi.obj
 0002:0001bcd0       ??_C@_0BG@GDIKFKFC@force?1kothos_beam?4efx?$AA@ 20136cd0     NPC_AI_Jedi.obj
 0002:0001bce8       ??_C@_0BK@KIGFMEBO@force?1kothos_recharge?4efx?$AA@ 20136ce8     NPC_AI_Jedi.obj
 0002:0001bd04       ??_C@_0P@FLFNIALL@specialEvasion?$AA@ 20136d04     NPC_AI_Jedi.obj
 0002:0001bd14       ??_C@_06LMAAEGAA@noturn?$AA@ 20136d14     NPC_AI_Jedi.obj
 0002:0001bd1c       ??_C@_08PMOPNODI@draining?$AA@ 20136d1c     NPC_AI_Jedi.obj
 0002:0001bd28       ??_C@_08NIENGCK@gripping?$AA@ 20136d28     NPC_AI_Jedi.obj
 0002:0001bd34       ??_C@_0O@PLENICLG@holdLightning?$AA@ 20136d34     NPC_AI_Jedi.obj
 0002:0001bd44       ??_C@_09IDBDJMGK@noRetreat?$AA@ 20136d44     NPC_AI_Jedi.obj
 0002:0001bd50       ??_C@_0BD@KDHMHPFJ@saberLevelDebounce?$AA@ 20136d50     NPC_AI_Jedi.obj
 0002:0001bd64       ??_C@_0L@EHELPKJI@movecenter?$AA@ 20136d64     NPC_AI_Jedi.obj
 0002:0001bd70       ??_C@_08DNKDNCFA@moveleft?$AA@ 20136d70     NPC_AI_Jedi.obj
 0002:0001bd7c       ??_C@_09HBKJPNEP@moveright?$AA@ 20136d7c     NPC_AI_Jedi.obj
 0002:0001bd88       ??_C@_08HFBEBDPM@movenone?$AA@ 20136d88     NPC_AI_Jedi.obj
 0002:0001bd94       ??_C@_08MGGADHBD@moveback?$AA@ 20136d94     NPC_AI_Jedi.obj
 0002:0001bda0       ??_C@_0M@KPEEIAGC@moveforward?$AA@ 20136da0     NPC_AI_Jedi.obj
 0002:0001bdac       ??_C@_0BC@HBIBDNL@jumpChaseDebounce?$AA@ 20136dac     NPC_AI_Jedi.obj
 0002:0001bdc0       ??_C@_0BB@NFABGDOB@forceJumpChasing?$AA@ 20136dc0     NPC_AI_Jedi.obj
 0002:0001bdd4       ??_C@_0BA@KCKBOFLK@parryReCalcTime?$AA@ 20136dd4     NPC_AI_Jedi.obj
 0002:0001bde4       ??_C@_09MLLDJKAD@parryTime?$AA@ 20136de4     NPC_AI_Jedi.obj
 0002:0001bdf0       ??_C@_08GNPKNMH@taunting?$AA@ 20136df0     NPC_AI_Jedi.obj
 0002:0001bdfc       ??_C@_08FCEKLEDE@noStrafe?$AA@ 20136dfc     NPC_AI_Jedi.obj
 0002:0001be08       ??_C@_0M@JBKJBEMJ@strafeRight?$AA@ 20136e08     NPC_AI_Jedi.obj
 0002:0001be14       ??_C@_0L@OIKDEKFK@strafeLeft?$AA@ 20136e14     NPC_AI_Jedi.obj
 0002:0001be20       ??_C@_0BC@BCOFKGOA@cultist_destroyer?$AA@ 20136e20     NPC_AI_Jedi.obj
 0002:0001be34       ??_C@_0CG@ILLIGCBN@sound?1weapons?1scepter?1beam_warmu@ 20136e34     NPC_AI_Jedi.obj
 0002:0001be5c       ??_C@_0CG@LFIFNKHN@sound?1weapons?1scepter?1slam_warmu@ 20136e5c     NPC_AI_Jedi.obj
 0002:0001be84       ??_C@_0BP@ILOENDFA@sound?1weapons?1scepter?1loop?4wav?$AA@ 20136e84     NPC_AI_Jedi.obj
 0002:0001bea4       ??_C@_0BD@IPGGFAHB@scepter?1impact?4efx?$AA@ 20136ea4     NPC_AI_Jedi.obj
 0002:0001beb8       ??_C@_0BB@FGLBJHIB@scepter?1slam?4efx?$AA@ 20136eb8     NPC_AI_Jedi.obj
 0002:0001becc       ??_C@_0BI@PEGNACAO@scepter?1slam_warmup?4efx?$AA@ 20136ecc     NPC_AI_Jedi.obj
 0002:0001bee4       ??_C@_0BB@PCEFNKJI@scepter?1beam?4efx?$AA@ 20136ee4     NPC_AI_Jedi.obj
 0002:0001bef8       ??_C@_0BI@MKFALKGO@scepter?1beam_warmup?4efx?$AA@ 20136ef8     NPC_AI_Jedi.obj
 0002:0001bf10       ??_C@_0CD@IJDPAIMB@sound?1weapons?1scepter?1recharge?4w@ 20136f10     NPC_AI_Jedi.obj
 0002:0001bf34       ??_C@_0BC@FCGLLCKA@scepter?1sword?4efx?$AA@ 20136f34     NPC_AI_Jedi.obj
 0002:0001bf48       ??_C@_0BK@BLCJBLED@scepter?1invincibility?4efx?$AA@ 20136f48     NPC_AI_Jedi.obj
 0002:0001bf64       ??_C@_0BF@JLMKLJKP@scepter?1recharge?4efx?$AA@ 20136f64     NPC_AI_Jedi.obj
 0002:0001bf7c       __real@42aa0000            20136f7c     NPC_AI_Jedi.obj
 0002:0001bf80       ??_C@_07PEAFBKBB@?$CKweapon?$AA@ 20136f80     NPC_AI_Jedi.obj
 0002:0001bf88       ??_C@_0BB@DKFMPHFO@rechargeDebounce?$AA@ 20136f88     NPC_AI_Jedi.obj
 0002:0001bf9c       ??_C@_0O@ICGJJMPB@shadowtrooper?$AA@ 20136f9c     NPC_AI_Jedi.obj
 0002:0001bfac       ??_C@_0L@PAGLFIMO@boba?1fthrw?$AA@ 20136fac     NPC_AI_Jedi.obj
 0002:0001bfb8       ??_C@_08KPGMGLNM@boba?1jet?$AA@ 20136fb8     NPC_AI_Jedi.obj
 0002:0001bfc4       ??_C@_0BO@KHOMDAEH@sound?1effects?1combustfire?4mp3?$AA@ 20136fc4     NPC_AI_Jedi.obj
 0002:0001bfe4       ??_C@_0BI@IJAHCKDG@sound?1boba?1jethover?4wav?$AA@ 20136fe4     NPC_AI_Jedi.obj
 0002:0001bffc       ??_C@_0BF@GIKGMIEK@sound?1boba?1jeton?4wav?$AA@ 20136ffc     NPC_AI_Jedi.obj
 0002:0001c014       ??_C@_04FMKDHLBH@Yoda?$AA@ 20137014     NPC_AI_Jedi.obj
 0002:0001c01c       ??_C@_0M@DCEOMKKM@jetRecharge?$AA@ 2013701c     NPC_AI_Jedi.obj
 0002:0001c028       ??_C@_09HPKJEPE@flameTime?$AA@ 20137028     NPC_AI_Jedi.obj
 0002:0001c034       ??_C@_0BA@FNBEMBHH@nextAttackDelay?$AA@ 20137034     NPC_AI_Jedi.obj
 0002:0001c048       __real@4052400000000000    20137048     NPC_AI_Jedi.obj
 0002:0001c050       __real@c2920000            20137050     NPC_AI_Jedi.obj
 0002:0001c054       ??_C@_0CC@PNJLJDK@?$CFs?5backing?5off?5from?5spin?5attack?$CB@ 20137054     NPC_AI_Jedi.obj
 0002:0001c078       ??_C@_0BN@IAFLFNJO@?$FO2?$CFs?5Saber?5Attack?5Set?3?5fast?6?$AA@ 20137078     NPC_AI_Jedi.obj
 0002:0001c098       ??_C@_0BP@GAECLAOI@?$FO3?$CFs?5Saber?5Attack?5Set?3?5medium?6?$AA@ 20137098     NPC_AI_Jedi.obj
 0002:0001c0b8       ??_C@_0BP@GAFLIDPF@?$FO1?$CFs?5Saber?5Attack?5Set?3?5strong?6?$AA@ 201370b8     NPC_AI_Jedi.obj
 0002:0001c0d8       ??_C@_0BL@KFAGBBOA@cultist_saber_strong_throw?$AA@ 201370d8     NPC_AI_Jedi.obj
 0002:0001c0f4       ??_C@_0BF@ODOJGBI@cultist_saber_strong?$AA@ 201370f4     NPC_AI_Jedi.obj
 0002:0001c10c       ??_C@_0BI@KGPKAFHB@cultist_saber_med_throw?$AA@ 2013710c     NPC_AI_Jedi.obj
 0002:0001c124       ??_C@_0BC@JJABAGCL@cultist_saber_med?$AA@ 20137124     NPC_AI_Jedi.obj
 0002:0001c138       ??_C@_0BE@BFNNDNNA@cultist_saber_throw?$AA@ 20137138     NPC_AI_Jedi.obj
 0002:0001c14c       ??_C@_0O@OIAFDJJO@cultist_saber?$AA@ 2013714c     NPC_AI_Jedi.obj
 0002:0001c15c       ??_C@_0BI@MDIAEIBB@cultist_saber_all_throw?$AA@ 2013715c     NPC_AI_Jedi.obj
 0002:0001c174       ??_C@_0BC@BENPAIBE@cultist_saber_all?$AA@ 20137174     NPC_AI_Jedi.obj
 0002:0001c188       ??_C@_0N@KFFJMCE@kickDebounce?$AA@ 20137188     NPC_AI_Jedi.obj
 0002:0001c198       ??_C@_0BC@FNEHMNC@grabEnemyDebounce?$AA@ 20137198     NPC_AI_Jedi.obj
 0002:0001c1ac       ??_C@_0BC@DPEJEIKM@cultist_lightning?$AA@ 201371ac     NPC_AI_Jedi.obj
 0002:0001c1c0       ??_C@_0P@FFOKJING@kyleTakesSaber?$AA@ 201371c0     NPC_AI_Jedi.obj
 0002:0001c1d0       __real@42900000            201371d0     NPC_AI_Jedi.obj
 0002:0001c1d4       __real@c3480000            201371d4     NPC_AI_Jedi.obj
 0002:0001c1d8       ??_C@_0BJ@KMOAKLIB@?$FO2jump?5checked?0?5is?5safe?6?$AA@ 201371d8     NPC_AI_Jedi.obj
 0002:0001c1f4       ??_C@_0BO@OIGGPLGD@?$FO1jump?5not?5safe?0?5cancelling?$CB?6?$AA@ 201371f4     NPC_AI_Jedi.obj
 0002:0001c214       ??_C@_0BN@DOPKLJFJ@?$FO1jump?5not?5safe?0?5cancelling?$CB?$AA@ 20137214     NPC_AI_Jedi.obj
 0002:0001c234       ??_C@_08MLDDMFEK@legs?5up?6?$AA@ 20137234     NPC_AI_Jedi.obj
 0002:0001c240       ??_C@_07CJLALNLP@jump?5?$CL?5?$AA@ 20137240     NPC_AI_Jedi.obj
 0002:0001c248       ??_C@_0O@HEMNHCCA@force?5jump?5?$CL?5?$AA@ 20137248     NPC_AI_Jedi.obj
 0002:0001c258       __real@43a00000            20137258     NPC_AI_Jedi.obj
 0002:0001c25c       ??_C@_09LGKAAEDF@LL?5block?6?$AA@ 2013725c     NPC_AI_Jedi.obj
 0002:0001c268       ??_C@_09NCKCJNNG@LR?5block?6?$AA@ 20137268     NPC_AI_Jedi.obj
 0002:0001c274       __real@c2300000            20137274     NPC_AI_Jedi.obj
 0002:0001c278       __real@c2100000            20137278     NPC_AI_Jedi.obj
 0002:0001c27c       ??_C@_0O@OPDFJMCG@mid?9UR?5block?6?$AA@ 2013727c     NPC_AI_Jedi.obj
 0002:0001c28c       ??_C@_0O@ILDHAFMF@mid?9UL?5block?6?$AA@ 2013728c     NPC_AI_Jedi.obj
 0002:0001c29c       ??_C@_0P@DPDCOGDM@mid?9TOP?5block?6?$AA@ 2013729c     NPC_AI_Jedi.obj
 0002:0001c2ac       __real@c1300000            201372ac     NPC_AI_Jedi.obj
 0002:0001c2b0       ??_C@_09JBJDHPE@UR?5block?6?$AA@ 201372b0     NPC_AI_Jedi.obj
 0002:0001c2bc       ??_C@_09GNBLKOBH@UL?5block?6?$AA@ 201372bc     NPC_AI_Jedi.obj
 0002:0001c2c8       ??_C@_0L@FHAJHJGP@TOP?5block?6?$AA@ 201372c8     NPC_AI_Jedi.obj
 0002:0001c2d4       ??_C@_05BEPPCECB@duck?5?$AA@ 201372d4     NPC_AI_Jedi.obj
 0002:0001c2e0       ??_C@_0EG@MMHBGCDK@?$CI?$CFd?$CJ?5evading?5attack?5from?5height?5@ 201372e0     NPC_AI_Jedi.obj
 0002:0001c328       ??_C@_0CC@OILNFLMM@?$CFs?5force?9jumping?5over?5roll?9stab?$CB@ 20137328     NPC_AI_Jedi.obj
 0002:0001c34c       ??_C@_0CB@EMNGGCM@?$CFs?5backflipping?5from?5roll?9stab?$CB?6@ 2013734c     NPC_AI_Jedi.obj
 0002:0001c370       ??_C@_0BM@HNENNKDE@?$CFs?5jumping?5over?5roll?9stab?$CB?6?$AA@ 20137370     NPC_AI_Jedi.obj
 0002:0001c38c       ??_C@_0CC@KONALCOO@?$CFs?5rolling?5right?5from?5roll?9stab?$CB@ 2013738c     NPC_AI_Jedi.obj
 0002:0001c3b0       ??_C@_0CB@LNDKAKOA@?$CFs?5rolling?5left?5from?5roll?9stab?$CB?6@ 201373b0     NPC_AI_Jedi.obj
 0002:0001c3d4       ??_C@_0BN@HOHFLCCE@Keep?5parry?5choice?5until?3?5?$CFd?6?$AA@ 201373d4     NPC_AI_Jedi.obj
 0002:0001c3f4       ??_C@_0BL@HJIFNCAE@?$FO2enemy?5saber?5dist?3?5?$CF4?42f?6?$AA@ 201373f4     NPC_AI_Jedi.obj
 0002:0001c410       ??_C@_0BL@ILNCDPPM@?$FO1enemy?5saber?5dist?3?5?$CF4?42f?6?$AA@ 20137410     NPC_AI_Jedi.obj
 0002:0001c42c       __real@43f00000            2013742c     NPC_AI_Jedi.obj
 0002:0001c430       ??_C@_0M@KCALHLOL@def?5strafe?6?$AA@ 20137430     NPC_AI_Jedi.obj
 0002:0001c43c       __real@3fa00000            2013743c     NPC_AI_Jedi.obj
 0002:0001c440       ??_C@_0N@GLACNCKO@lastmoveleft?$AA@ 20137440     NPC_AI_Jedi.obj
 0002:0001c450       ??_C@_0O@CLPKIDFE@lastmoveright?$AA@ 20137450     NPC_AI_Jedi.obj
 0002:0001c460       ??_C@_0N@JAMBDHON@lastmoveback?$AA@ 20137460     NPC_AI_Jedi.obj
 0002:0001c470       ??_C@_0BA@LBMPENJA@lastmoveforward?$AA@ 20137470     NPC_AI_Jedi.obj
 0002:0001c480       ??_C@_0BM@CGIALMNN@?$CI?$CFd?$CJ?5KNOCK?9BLOCKED?3?5agg?5?$CFd?6?$AA@ 20137480     NPC_AI_Jedi.obj
 0002:0001c49c       ??_C@_0BG@NGIMKIFC@?$CI?$CFd?$CJ?5BLOCKED?3?5agg?5?$CFd?6?$AA@ 2013749c     NPC_AI_Jedi.obj
 0002:0001c4b4       ??_C@_0BC@NODIPFA@?$CI?$CFd?$CJ?5HIT?3?5agg?5?$CFd?6?$AA@ 201374b4     NPC_AI_Jedi.obj
 0002:0001c4c8       ??_C@_0CH@KGNADGGI@?$CI?$CFd?$CJ?5PARRY?3?5agg?5?$CFd?0?5no?5parry?5unt@ 201374c8     NPC_AI_Jedi.obj
 0002:0001c4f0       ??_C@_0M@EKHLLJOE@off?5strafe?6?$AA@ 201374f0     NPC_AI_Jedi.obj
 0002:0001c4fc       ??_C@_0O@NFAIKJJM@allyJediDelay?$AA@ 201374fc     NPC_AI_Jedi.obj
 0002:0001c510       __real@c079000000000000    20137510     NPC_AI_Jedi.obj
 0002:0001c518       __real@44098000            20137518     NPC_AI_Jedi.obj
 0002:0001c51c       __real@48100000            2013751c     NPC_AI_Jedi.obj
 0002:0001c520       __real@40fa964000000000    20137520     NPC_AI_Jedi.obj
 0002:0001c528       __real@4893b480            20137528     NPC_AI_Jedi.obj
 0002:0001c52c       __real@483d1000            2013752c     NPC_AI_Jedi.obj
 0002:0001c530       ??_C@_09OGCDMOLJ@watchTime?$AA@ 20137530     NPC_AI_Jedi.obj
 0002:0001c53c       __real@473d1000            2013753c     NPC_AI_Jedi.obj
 0002:0001c540       ??_C@_0BE@LPCAKHKI@FollowHealDebouncer?$AA@ 20137540     NPC_AI_Jedi.obj
 0002:0001c554       __real@42b00000            20137554     NPC_AI_Jedi.obj
 0002:0001c558       ??_C@_07DGDHJBA@VKothos?$AA@ 20137558     NPC_AI_Jedi.obj
 0002:0001c560       ??_C@_07DNPNEPEG@DKothos?$AA@ 20137560     NPC_AI_Jedi.obj
 0002:0001c568       ??_C@_0BB@GNNONOPK@healRoshDebounce?$AA@ 20137568     NPC_AI_Jedi.obj
 0002:0001c57c       __real@47100000            2013757c     NPC_AI_Jedi.obj
 0002:0001c580       ??_C@_09DEBJONDD@rosh_dark?$AA@ 20137580     NPC_AI_Jedi.obj
 0002:0001c58c       ??_C@_0DP@KBJHMDIA@?$CI?$CFd?$CJ?5saber?5hit?5at?5height?5?$CF4?42f?0?5@ 2013758c     NPC_AI_Jedi.obj
 0002:0001c5cc       ??_C@_0CG@BFCCBJHF@?$CI?$CFd?$CJ?5PAIN?3?5agg?5?$CFd?0?5no?5parry?5unti@ 201375cc     NPC_AI_Jedi.obj
 0002:0001c5f4       ??_C@_0CC@GCEDNNIJ@sound?1chars?1mark1?1misc?1mark1_pai@ 201375f4     NPC_AI_Mark1.obj
 0002:0001c618       ??_C@_0CC@LLNAACBO@sound?1chars?1mark1?1misc?1mark1_fir@ 20137618     NPC_AI_Mark1.obj
 0002:0001c63c       ??_C@_0BN@IGGIEGIA@sound?1chars?1mark1?1misc?1anger?$AA@ 2013763c     NPC_AI_Mark1.obj
 0002:0001c65c       ??_C@_0BO@EOOFIDIP@sound?1chars?1mark1?1misc?1death2?$AA@ 2013765c     NPC_AI_Mark1.obj
 0002:0001c67c       ??_C@_0BO@GFMINAEM@sound?1chars?1mark1?1misc?1death1?$AA@ 2013767c     NPC_AI_Mark1.obj
 0002:0001c69c       ??_C@_0BL@CBNGEJLJ@sound?1chars?1mark1?1misc?1run?$AA@ 2013769c     NPC_AI_Mark1.obj
 0002:0001c6b8       ??_C@_0BM@CAIKPENL@sound?1chars?1mark1?1misc?1walk?$AA@ 201376b8     NPC_AI_Mark1.obj
 0002:0001c6d4       ??_C@_0CA@FOMIJIMN@sound?1chars?1mark1?1misc?1shutdown?$AA@ 201376d4     NPC_AI_Mark1.obj
 0002:0001c6f4       ??_C@_0CE@HEANGIK@sound?1chars?1mark1?1misc?1mark1_wak@ 201376f4     NPC_AI_Mark1.obj
 0002:0001c718       ??_C@_07FMBGOBFH@?$CKflash5?$AA@ 20137718     NPC_AI_Mark1.obj
 0002:0001c720       ??_C@_07DIHKCEFD@?$CKflash1?$AA@ 20137720     NPC_AI_Mark1.obj
 0002:0001c728       ??_C@_0N@PHDJEHFO@torso_tube?$CFd?$AA@ 20137728     NPC_AI_Mark1.obj
 0002:0001c738       ??_C@_0O@DGKFNKFI@?$CKtorso_tube?$CFd?$AA@ 20137738     NPC_AI_Mark1.obj
 0002:0001c748       ??_C@_08OIOENPGF@?$CKflash?$CFd?$AA@ 20137748     NPC_AI_Mark1.obj
 0002:0001c754       ??_C@_07EFANNABG@?$CKflash4?$AA@ 20137754     NPC_AI_Mark1.obj
 0002:0001c75c       ??_C@_07KEMEGNB@?$CKflash3?$AA@ 2013775c     NPC_AI_Mark1.obj
 0002:0001c764       ??_C@_07BDFHHHJA@?$CKflash2?$AA@ 20137764     NPC_AI_Mark1.obj
 0002:0001c76c       ??_C@_0N@BNGGINJJ@attackDelay2?$AA@ 2013776c     NPC_AI_Mark1.obj
 0002:0001c780       __real@40f9000000000000    20137780     NPC_AI_Mark1.obj
 0002:0001c788       ??_C@_0CC@GALOMFOB@sound?1chars?1mark2?1misc?1mark2_fir@ 20137788     NPC_AI_Mark2.obj
 0002:0001c7ac       ??_C@_0CC@LJCNBKHG@sound?1chars?1mark2?1misc?1mark2_pai@ 201377ac     NPC_AI_Mark2.obj
 0002:0001c7d0       ??_C@_0BB@IHGJHLME@torso_canister?$CFd?$AA@ 201377d0     NPC_AI_Mark2.obj
 0002:0001c7e4       ??_C@_07CLDODBMO@runTime?$AA@ 201377e4     NPC_AI_Mark2.obj
 0002:0001c7ec       ??_C@_08NJLLBPHC@downTime?$AA@ 201377ec     NPC_AI_Mark2.obj
 0002:0001c7f8       __real@44100000            201377f8     NPC_AI_Mark2.obj
 0002:0001c7fc       ??_C@_0CB@KKAOIJMD@sound?1chars?1mine?1misc?1miss?$CFi?4wav@ 201377fc     NPC_AI_MineMonster.obj
 0002:0001c820       ??_C@_0CB@OHEDCIGA@sound?1chars?1mine?1misc?1bite?$CFi?4wav@ 20137820     NPC_AI_MineMonster.obj
 0002:0001c844       ??_C@_0L@MGLFJCKE@patrolTime?$AA@ 20137844     NPC_AI_MineMonster.obj
 0002:0001c850       ??_C@_0M@LBNLHOJB@attack1_dmg?$AA@ 20137850     NPC_AI_MineMonster.obj
 0002:0001c85c       ??_C@_0M@DHEPAMDP@attack2_dmg?$AA@ 2013785c     NPC_AI_MineMonster.obj
 0002:0001c868       __real@409b580000000000    20137868     NPC_AI_MineMonster.obj
 0002:0001c870       __real@45364000            20137870     NPC_AI_MineMonster.obj
 0002:0001c874       ??_C@_0P@FPBHKLGA@attacking2_dmg?$AA@ 20137874     NPC_AI_MineMonster.obj
 0002:0001c884       ??_C@_0P@NJIDNJMO@attacking1_dmg?$AA@ 20137884     NPC_AI_MineMonster.obj
 0002:0001c894       ??_C@_0L@LHAEFPAL@?$CKhead_eyes?$AA@ 20137894     NPC_AI_Rancor.obj
 0002:0001c8a0       ??_C@_0BN@KEGAIKPC@sound?1chars?1rancor?1chomp?4wav?$AA@ 201378a0     NPC_AI_Rancor.obj
 0002:0001c8c0       ??_C@_0CA@GJFEHJGI@sound?1chars?1rancor?1swipehit?4wav?$AA@ 201378c0     NPC_AI_Rancor.obj
 0002:0001c8e0       ??_C@_0CA@KAGLKFLL@sound?1chars?1rancor?1snort_?$CFd?4wav?$AA@ 201378e0     NPC_AI_Rancor.obj
 0002:0001c900       ??_C@_08BOPCFKLG@rageTime?$AA@ 20137900     NPC_AI_Rancor.obj
 0002:0001c90c       __real@c1c80000            2013790c     NPC_AI_Rancor.obj
 0002:0001c910       __real@41c80000            20137910     NPC_AI_Rancor.obj
 0002:0001c914       ??_C@_0N@JEOPKMH@clearGrabbed?$AA@ 20137914     NPC_AI_Rancor.obj
 0002:0001c928       __real@40be400000000000    20137928     NPC_AI_Rancor.obj
 0002:0001c930       ??_C@_0M@OCIHPKGB@attack_dmg2?$AA@ 20137930     NPC_AI_Rancor.obj
 0002:0001c93c       ??_C@_0O@MHOPHFP@rancorInfight?$AA@ 2013793c     NPC_AI_Rancor.obj
 0002:0001c94c       ??_C@_0O@EKLIOKF@confusionTime?$AA@ 2013794c     NPC_AI_Rancor.obj
 0002:0001c95c       ??_C@_0N@NGCNJFIG@breathAttack?$AA@ 2013795c     NPC_AI_Rancor.obj
 0002:0001c96c       ??_C@_09EPENMBPJ@idlenoise?$AA@ 2013796c     NPC_AI_Rancor.obj
 0002:0001c978       ??_C@_0CE@ELKIGKLI@sound?1chars?1rancor?1misc?1anger?$CFd?4@ 20137978     NPC_AI_Rancor.obj
 0002:0001c99c       ??_C@_0L@EEAEKDIE@angrynoise?$AA@ 2013799c     NPC_AI_Rancor.obj
 0002:0001c9a8       ??_C@_0CB@OFOGPKAG@sound?1chars?1remote?1misc?1hiss?4wav@ 201379a8     NPC_AI_Remote.obj
 0002:0001c9cc       ??_C@_0CB@FONMMLKG@sound?1chars?1remote?1misc?1fire?4wav@ 201379cc     NPC_AI_Remote.obj
 0002:0001c9f0       ??_C@_0N@HIHENOGN@heightChange?$AA@ 201379f0     NPC_AI_Remote.obj
 0002:0001ca00       ??_C@_05JKCBEBEI@briar?$AA@ 20137a00     NPC_AI_Remote.obj
 0002:0001ca08       ??_C@_04FAOIIEOH@spin?$AA@ 20137a08     NPC_AI_Remote.obj
 0002:0001ca10       ??_C@_0O@DNMLICPN@inactiveDelay?$AA@ 20137a10     NPC_AI_SaberDroid.obj
 0002:0001ca20       ??_C@_0CG@NLCHOBHD@sound?1chars?1sand_creature?1slithe@ 20137a20     NPC_AI_Sand_creature.obj
 0002:0001ca48       ??_C@_0CG@LHAIJLAI@sound?1chars?1sand_creature?1voice?$CF@ 20137a48     NPC_AI_Sand_creature.obj
 0002:0001ca70       ??_C@_0BF@OHKNDMLD@env?1sand_move_breach?$AA@ 20137a70     NPC_AI_Sand_creature.obj
 0002:0001ca88       ??_C@_0O@FHALPKBP@env?1sand_move?$AA@ 20137a88     NPC_AI_Sand_creature.obj
 0002:0001ca98       ??_C@_0P@CAKFJIID@env?1sand_spray?$AA@ 20137a98     NPC_AI_Sand_creature.obj
 0002:0001caa8       ??_C@_0O@HPHAMHLC@env?1sand_dive?$AA@ 20137aa8     NPC_AI_Sand_creature.obj
 0002:0001cab8       ??_C@_0N@DADPEGCO@missDebounce?$AA@ 20137ab8     NPC_AI_Sand_creature.obj
 0002:0001cac8       ??_C@_04PPONMOMN@pain?$AA@ 20137ac8     NPC_AI_Sand_creature.obj
 0002:0001cad0       ??_C@_0P@CEJGJLJG@breachDebounce?$AA@ 20137ad0     NPC_AI_Sand_creature.obj
 0002:0001cae0       ??_C@_09KLABKDKC@breaching?$AA@ 20137ae0     NPC_AI_Sand_creature.obj
 0002:0001caec       __real@c7127c00            20137aec     NPC_AI_Sand_creature.obj
 0002:0001caf0       __real@410e848000000000    20137af0     NPC_AI_Sand_creature.obj
 0002:0001caf8       __real@4051800000000000    20137af8     NPC_AI_Sand_creature.obj
 0002:0001cb00       ??_C@_0CB@PDBMCHMO@sound?1chars?1seeker?1misc?1hiss?4wav@ 20137b00     NPC_AI_Seeker.obj
 0002:0001cb24       ??_C@_0CB@EICGBGGO@sound?1chars?1seeker?1misc?1fire?4wav@ 20137b24     NPC_AI_Seeker.obj
 0002:0001cb48       __real@3f59999a            20137b48     NPC_AI_Seeker.obj
 0002:0001cb4c       ??_C@_0BN@KKOEBMCN@sound?1chars?1seeker?1misc?1hiss?$AA@ 20137b4c     NPC_AI_Seeker.obj
 0002:0001cb6c       ??_C@_07IOJHMCFF@blaster?$AA@ 20137b6c     NPC_AI_Seeker.obj
 0002:0001cb78       __real@4019333340000000    20137b78     NPC_AI_Seeker.obj
 0002:0001cb80       __real@c4800000            20137b80     NPC_AI_Seeker.obj
 0002:0001cb84       __real@49800008            20137b84     NPC_AI_Seeker.obj
 0002:0001cb88       ??_C@_0L@HNKOHKGC@seekerhiss?$AA@ 20137b88     NPC_AI_Seeker.obj
 0002:0001cb94       __real@45c80000            20137b94     NPC_AI_Seeker.obj
 0002:0001cb98       ??_C@_0BP@HNBAGLBO@sound?1chars?1sentry?1misc?1talk?$CFd?$AA@ 20137b98     NPC_AI_Sentry.obj
 0002:0001cbb8       ??_C@_0CK@MFGHBIGE@sound?1chars?1sentry?1misc?1sentry_h@ 20137bb8     NPC_AI_Sentry.obj
 0002:0001cbe4       ??_C@_0CK@ICMHGCLE@sound?1chars?1sentry?1misc?1sentry_h@ 20137be4     NPC_AI_Sentry.obj
 0002:0001cc10       ??_C@_0CM@GLJOABHA@sound?1chars?1sentry?1misc?1sentry_s@ 20137c10     NPC_AI_Sentry.obj
 0002:0001cc3c       ??_C@_0CL@OFEMPNGL@sound?1chars?1sentry?1misc?1sentry_s@ 20137c3c     NPC_AI_Sentry.obj
 0002:0001cc68       ??_C@_0CE@GEIPEBGG@sound?1chars?1sentry?1misc?1sentry_p@ 20137c68     NPC_AI_Sentry.obj
 0002:0001cc8c       ??_C@_07LALFPDBE@powerup?$AA@ 20137c8c     NPC_AI_Sentry.obj
 0002:0001cc94       ??_C@_05PPKAJOMF@watch?$AA@ 20137c94     NPC_AI_Sniper.obj
 0002:0001cc9c       ??_C@_0P@CGPPOACB@sound?1null?4wav?$AA@ 20137c9c     NPC_AI_Sniper.obj
 0002:0001ccac       ??_C@_07FMLJLNIF@nocloak?$AA@ 20137cac     NPC_AI_Stormtrooper.obj
 0002:0001ccb4       ??_C@_0M@IMHOHDGF@decloakwait?$AA@ 20137cb4     NPC_AI_Stormtrooper.obj
 0002:0001ccc0       ??_C@_08JOGKGDHH@verifyCP?$AA@ 20137cc0     NPC_AI_Stormtrooper.obj
 0002:0001cccc       ??_C@_0O@HEAHOHPH@interrogating?$AA@ 20137ccc     NPC_AI_Stormtrooper.obj
 0002:0001ccdc       __real@3eaccccd            20137cdc     NPC_AI_Stormtrooper.obj
 0002:0001cce0       __real@3ee66667            20137ce0     NPC_AI_Stormtrooper.obj
 0002:0001cce4       __real@3d99999a            20137ce4     NPC_AI_Stormtrooper.obj
 0002:0001cce8       ??_C@_0L@MBDMJDLO@attakDelay?$AA@ 20137ce8     NPC_AI_Stormtrooper.obj
 0002:0001ccf4       ??_C@_0BM@ELCBEEO@checkEnemyTooCloseDebouncer?$AA@ 20137cf4     NPC_AI_Stormtrooper.obj
 0002:0001cd10       ??_C@_0BH@GPNGMLLF@checkEnemyVisDebouncer?$AA@ 20137d10     NPC_AI_Stormtrooper.obj
 0002:0001cd28       ??_C@_0BO@FFFFPIEK@checkGrenadeTooCloseDebouncer?$AA@ 20137d28     NPC_AI_Stormtrooper.obj
 0002:0001cd48       ??_C@_0BB@MEELOKLK@runningBackwards?$AA@ 20137d48     NPC_AI_Stormtrooper.obj
 0002:0001cd5c       ??_C@_0BF@IBPJNMBA@runBackwardsDebounce?$AA@ 20137d5c     NPC_AI_Stormtrooper.obj
 0002:0001cd74       ??_C@_0CO@BIFKJACE@Invalid?5memberNum?5?$CFi?5in?5AI_Delet@ 20137d74     NPC_AI_Utils.obj
 0002:0001cda4       ??_C@_09LICHGHHC@rear_bone?$AA@ 20137da4     NPC_AI_Wampa.obj
 0002:0001cdb0       ??_C@_0M@DLFOHBLP@lower_spine?$AA@ 20137db0     NPC_AI_Wampa.obj
 0002:0001cdbc       ??_C@_04DGHBCEHD@walk?$AA@ 20137dbc     NPC_AI_Wampa.obj
 0002:0001cdc4       ??_C@_08HEAOBEI@runclose?$AA@ 20137dc4     NPC_AI_Wampa.obj
 0002:0001cdd0       ??_C@_06CONIKGGB@runfar?$AA@ 20137dd0     NPC_AI_Wampa.obj
 0002:0001cdd8       __real@42820000            20137dd8     NPC_AI_Wampa.obj
 0002:0001cde0       __real@407ae00000000000    20137de0     NPC_AI_Wampa.obj
 0002:0001cde8       __real@4075e00000000000    20137de8     NPC_AI_Wampa.obj
 0002:0001cdf0       ??_C@_0N@KOFINGFD@wampaInfight?$AA@ 20137df0     NPC_AI_Wampa.obj
 0002:0001ce00       ??_C@_0CC@JBCFODJJ@sound?1chars?1wampa?1misc?1anger3?4wa@ 20137e00     NPC_AI_Wampa.obj
 0002:0001ce24       ??_C@_0CD@DPCEAIB@sound?1chars?1wampa?1misc?1anger?$CFd?4w@ 20137e24     NPC_AI_Wampa.obj
 0002:0001ce48       __real@3fea8f5c28f5c28f    20137e48     NPC_behavior.obj
 0002:0001ce50       __real@3ff547ae147ae148    20137e50     NPC_behavior.obj
 0002:0001ce58       __real@42dc0000            20137e58     NPC_behavior.obj
 0002:0001ce5c       ??_C@_0O@PGDECOHN@rocketChasing?$AA@ 20137e5c     NPC_behavior.obj
 0002:0001ce6c       ??_C@_0CG@IEFNHPIO@sound?1chars?1jawa?1misc?1ooh?9tee?9ne@ 20137e6c     NPC_behavior.obj
 0002:0001ce94       ??_C@_05DDGCEFJL@panic?$AA@ 20137e94     NPC_behavior.obj
 0002:0001ce9c       __real@45100000            20137e9c     NPC_combat.obj
 0002:0001cea0       ??_C@_0CK@FFEMJCCJ@?$CFs?5saw?5?$CFs?5trying?5to?5hide?5?9?5hidde@ 20137ea0     NPC_combat.obj
 0002:0001cecc       ??_C@_0DN@OHLGJAGA@?$CFs?5saw?5?$CFs?5trying?5to?5hide?5?9?5hidde@ 20137ecc     NPC_combat.obj
 0002:0001cf0c       __real@50800000            20137f0c     NPC_combat.obj
 0002:0001cf10       ??_C@_0M@HOHDCHAJ@aimDebounce?$AA@ 20137f10     NPC_combat.obj
 0002:0001cf1c       ??_C@_03PHKFLJOP@imp?$AA@  20137f1c     NPC_combat.obj
 0002:0001cf20       ??_C@_07MIBELBFJ@paladin?$AA@ 20137f20     NPC_combat.obj
 0002:0001cf28       ??_C@_09OJDABIIE@desperado?$AA@ 20137f28     NPC_combat.obj
 0002:0001cf34       ??_C@_0BP@PACPCBDB@sound?1chars?1jedi2?128je2008?4wav?$AA@ 20137f34     NPC_combat.obj
 0002:0001cf54       ??_C@_0BP@DLHDPCJE@sound?1chars?1jedi2?128je2009?4wav?$AA@ 20137f54     NPC_combat.obj
 0002:0001cf74       ??_C@_0BP@PHMDAJOD@sound?1chars?1jedi2?128je2012?4wav?$AA@ 20137f74     NPC_combat.obj
 0002:0001cf94       ??_C@_05KPBOELOB@Jedi2?$AA@ 20137f94     NPC_combat.obj
 0002:0001cf9c       ??_C@_0BH@GBPEPJFF@kyleAngerSoundDebounce?$AA@ 20137f9c     NPC_combat.obj
 0002:0001cfb4       ??_C@_08LFNJJCM@?$CFs?$CF5i?3?$CFs?$AA@ 20137fb4     NPC_misc.obj
 0002:0001cfc0       __real@4041000000000000    20137fc0     NPC_move.obj
 0002:0001cfc8       ??_C@_0BD@GIFLNPN@jumpBackupDebounce?$AA@ 20137fc8     NPC_move.obj
 0002:0001cfdc       __real@c2fe0000            20137fdc     NPC_move.obj
 0002:0001cfe0       __real@c05fc00000000000    20137fe0     NPC_move.obj
 0002:0001cfe8       __real@42fe0000            20137fe8     NPC_move.obj
 0002:0001cfec       ??_C@_0BI@CLMHOICK@CANT_CARRY_SECURITY_KEY?$AA@ 20137fec     NPC_reactions.obj
 0002:0001d004       ??_C@_0BL@IKACCPIO@TOOK_IMPERIAL_SECURITY_KEY?$AA@ 20138004     NPC_reactions.obj
 0002:0001d020       ??_C@_0BG@MBKOJJNP@CANT_CARRY_GOODIE_KEY?$AA@ 20138020     NPC_reactions.obj
 0002:0001d038       ??_C@_09GIPEEPLK@SP_INGAME?$AA@ 20138038     NPC_reactions.obj
 0002:0001d044       ??_C@_0BJ@JECIHHMD@TOOK_IMPERIAL_GOODIE_KEY?$AA@ 20138044     NPC_reactions.obj
 0002:0001d060       ??_C@_06CFIKAAOA@goodie?$AA@ 20138060     NPC_reactions.obj
 0002:0001d068       ??_C@_09FNPKPLMP@bespincop?$AA@ 20138068     NPC_reactions.obj
 0002:0001d074       ??_C@_0CP@OEEGCBOD@ERROR?3?5?5Too?5many?5interest?5points@ 20138074     NPC_senses.obj
 0002:0001d0a4       ??_C@_0L@ILCCPCFF@galak_mech?$AA@ 201380a4     NPC_spawn.obj
 0002:0001d0b0       ??_C@_07CCLCPADK@rodian2?$AA@ 201380b0     NPC_spawn.obj
 0002:0001d0b8       ??_C@_0N@MHIACDCF@stofficeralt?$AA@ 201380b8     NPC_spawn.obj
 0002:0001d0c8       ??_C@_04LFMKBAKM@gonk?$AA@ 201380c8     NPC_spawn.obj
 0002:0001d0d0       ??_C@_05JJIBBJGC@alora?$AA@ 201380d0     NPC_spawn.obj
 0002:0001d0d8       ??_C@_0L@MDEBMCGB@alora_dual?$AA@ 201380d8     NPC_spawn.obj
 0002:0001d0e4       ??_C@_0P@DFPPJLIL@tavion_scepter?$AA@ 201380e4     NPC_spawn.obj
 0002:0001d0f4       ??_C@_07CNPDKJOO@emperor?$AA@ 201380f4     NPC_spawn.obj
 0002:0001d0fc       ??_C@_05BNBDCALA@wampa?$AA@ 201380fc     NPC_spawn.obj
 0002:0001d104       ??_C@_0BA@KONLBJEH@head_hatchcover?$AA@ 20138104     NPC_spawn.obj
 0002:0001d114       ??_C@_06EKHPPJFH@howler?$AA@ 20138114     NPC_spawn.obj
 0002:0001d11c       ??_C@_0M@MNEAFEME@minemonster?$AA@ 2013811c     NPC_spawn.obj
 0002:0001d128       ??_C@_04GEDGALCP@atst?$AA@ 20138128     NPC_spawn.obj
 0002:0001d130       ??_C@_0L@NCJGGKBN@trandoshan?$AA@ 20138130     NPC_spawn.obj
 0002:0001d13c       ??_C@_06JMKOOFO@seeker?$AA@ 2013813c     NPC_spawn.obj
 0002:0001d144       ??_C@_05PGJBIHML@probe?$AA@ 20138144     NPC_spawn.obj
 0002:0001d14c       ??_C@_0N@CLEMFIKP@impcommander?$AA@ 2013814c     NPC_spawn.obj
 0002:0001d15c       ??_C@_0L@LKPPNCFK@impofficer?$AA@ 2013815c     NPC_spawn.obj
 0002:0001d168       ??_C@_07JCEELPMN@weequay?$AA@ 20138168     NPC_spawn.obj
 0002:0001d170       ??_C@_08FCFPNNHF@protocol?$AA@ 20138170     NPC_spawn.obj
 0002:0001d17c       ??_C@_06IMPNPELI@sentry?$AA@ 2013817c     NPC_spawn.obj
 0002:0001d184       ??_C@_0N@IHBJLIJH@interrogator?$AA@ 20138184     NPC_spawn.obj
 0002:0001d194       ??_C@_06HIDBNCDG@rodian?$AA@ 20138194     NPC_spawn.obj
 0002:0001d19c       ??_C@_04GBJCCMJG@gran?$AA@ 2013819c     NPC_spawn.obj
 0002:0001d1a4       ??_C@_09JFBDCAEP@granboxer?$AA@ 201381a4     NPC_spawn.obj
 0002:0001d1b0       ??_C@_0M@BLCEIOML@granshooter?$AA@ 201381b0     NPC_spawn.obj
 0002:0001d1bc       ??_C@_05EBHCGEID@galak?$AA@ 201381bc     NPC_spawn.obj
 0002:0001d1c4       ??_C@_0L@GNPMMKBH@stormpilot?$AA@ 201381c4     NPC_spawn.obj
 0002:0001d1d0       ??_C@_09NMLGMNGI@impworker?$AA@ 201381d0     NPC_spawn.obj
 0002:0001d1dc       ??_C@_08FDOIKJJM@imperial?$AA@ 201381dc     NPC_spawn.obj
 0002:0001d1e8       ??_C@_0O@DDHJLNIK@rockettrooper?$AA@ 201381e8     NPC_spawn.obj
 0002:0001d1f8       ??_C@_0O@CJHKJOLM@swamptrooper2?$AA@ 201381f8     NPC_spawn.obj
 0002:0001d208       ??_C@_0N@GLIAHFPJ@swamptrooper?$AA@ 20138208     NPC_spawn.obj
 0002:0001d218       ??_C@_0M@IDHLEFJE@stcommander?$AA@ 20138218     NPC_spawn.obj
 0002:0001d224       ??_C@_09HNOAEDCK@stofficer?$AA@ 20138224     NPC_spawn.obj
 0002:0001d230       ??_C@_06GNOBEGAF@reborn?$AA@ 20138230     NPC_spawn.obj
 0002:0001d238       ??_C@_09CDNNNFCF@MonMothma?$AA@ 20138238     NPC_spawn.obj
 0002:0001d244       ??_C@_08HDGLKCD@prisoner?$AA@ 20138244     NPC_spawn.obj
 0002:0001d250       ??_C@_04GFPGHJCD@luke?$AA@ 20138250     NPC_spawn.obj
 0002:0001d258       ??_C@_04BNEGNDCN@jedi?$AA@ 20138258     NPC_spawn.obj
 0002:0001d260       ??_C@_0N@JBEEMLOP@morgankatarn?$AA@ 20138260     NPC_spawn.obj
 0002:0001d270       ??_C@_09ONEHJBNI@bartender?$AA@ 20138270     NPC_spawn.obj
 0002:0001d27c       ??_C@_08PLJJKJEB@ugnaught?$AA@ 2013827c     NPC_spawn.obj
 0002:0001d288       ??_C@_05DGMBAEIC@mark2?$AA@ 20138288     NPC_spawn.obj
 0002:0001d290       ??_C@_05BNOMFHEB@mark1?$AA@ 20138290     NPC_spawn.obj
 0002:0001d298       ??_C@_04NPJEIEFD@r5d2?$AA@ 20138298     NPC_spawn.obj
 0002:0001d2a0       ??_C@_04ECEDLMOK@r2d2?$AA@ 201382a0     NPC_spawn.obj
 0002:0001d2a8       ??_C@_03MLHPLGLE@$?$CFs?$AA@ 201382a8     NPC_spawn.obj
 0002:0001d2ac       ??_C@_08FDOIIKMK@dropTime?$AA@ 201382ac     NPC_spawn.obj
 0002:0001d2b8       ??_C@_05IHIIAPFC@swoop?$AA@ 201382b8     NPC_spawn.obj
 0002:0001d2c0       ??_C@_0HP@KDMKPKB@?$FO1Error?0?5expected?5one?5of?3?6?$FO7?5NPC@ 201382c0     NPC_spawn.obj
 0002:0001d340       ??_C@_0CF@NONOBMJD@?$FO1NPC_Spawn?5Error?3?5Out?5of?5entiti@ 20138340     NPC_spawn.obj
 0002:0001d368       ??_C@_07CJDNLGID@vehicle?$AA@ 20138368     NPC_spawn.obj
 0002:0001d370       ??_C@_0CN@DMDFGIBB@?$FO2Removing?5NPC?5spawner?5?$CFs?5with?5N@ 20138370     NPC_spawn.obj
 0002:0001d3a0       ??_C@_0O@FNAIFGLM@NPC_starfleet?$AA@ 201383a0     NPC_spawn.obj
 0002:0001d3b0       ??_C@_0CM@DJNKALCF@?$FO1NPC_Kill?5Error?3?5team?5?8?$CFs?8?5not?5@ 201383b0     NPC_spawn.obj
 0002:0001d3dc       ??_C@_0BL@ILNLAKGN@?$FO2Killing?5NPC?5?$CFs?5named?5?$CFs?6?$AA@ 201383dc     NPC_spawn.obj
 0002:0001d3f8       ??_C@_07HKCOCGIE@nonally?$AA@ 201383f8     NPC_spawn.obj
 0002:0001d400       ??_C@_0CK@HNIGPLKA@?$FO1nonally?5?9?5kills?5all?5but?5your?5t@ 20138400     NPC_spawn.obj
 0002:0001d42c       ??_C@_05NPEMMHGC@?$FO1?$CFs?6?$AA@ 2013842c     NPC_spawn.obj
 0002:0001d434       ??_C@_0BJ@GFCOFIJB@?$FO1Valid?5team?5names?5are?3?6?$AA@ 20138434     NPC_spawn.obj
 0002:0001d450       ??_C@_0DJ@POFBCLII@?$FO1NPC_Kill?5Error?3?5?8npc?5kill?5team@ 20138450     NPC_spawn.obj
 0002:0001d490       ??_C@_0FP@DAEKHNH@?$FO1NPC?5team?5?8?$FLteamname?$FN?8?5?9?5kills?5@ 20138490     NPC_spawn.obj
 0002:0001d4f0       ??_C@_0CD@ODAIDCPI@?$FO1NPC?5kill?5?8all?8?5?9?5kills?5all?5NPC@ 201384f0     NPC_spawn.obj
 0002:0001d514       ??_C@_05CKCHBFAM@?$FO1or?6?$AA@ 20138514     NPC_spawn.obj
 0002:0001d520       ??_C@_0EE@NIIFCKKF@?$FO1NPC?5kill?5?8?$FLNPC?5targetname?$FN?8?5?9?5@ 20138520     NPC_spawn.obj
 0002:0001d564       ??_C@_0BE@HCPCPMII@?$FO1Error?0?5Expected?3?6?$AA@ 20138564     NPC_spawn.obj
 0002:0001d578       ??_C@_07LADGFJKH@?$CFs?3?5?$CFd?6?$AA@ 20138578     NPC_spawn.obj
 0002:0001d580       ??_C@_0CD@OCNOHPOF@ERROR?3?5NPC?5score?5?9?5no?5such?5NPC?5?$CF@ 20138580     NPC_spawn.obj
 0002:0001d5a4       ??_C@_0N@NFCHPJAL@SCORE?5LIST?3?6?$AA@ 201385a4     NPC_spawn.obj
 0002:0001d5b4       ??_C@_0L@FAELKOJM@showbounds?$AA@ 201385b4     NPC_spawn.obj
 0002:0001d5c0       ??_C@_05BDADGJGG@spawn?$AA@ 201385c0     NPC_spawn.obj
 0002:0001d5c8       ??_C@_0DK@DDALJKPC@?5score?5?$FLNPC?5targetname?$FN?5?$CIprints?5@ 201385c8     NPC_spawn.obj
 0002:0001d604       ??_C@_0DC@PMEAEODL@?5showbounds?5?$CIdraws?5exact?5boundin@ 20138604     NPC_spawn.obj
 0002:0001d638       ??_C@_0EG@NFADECGL@?5kill?5?$FLNPC?5targetname?$FN?5or?5?$FLall?$CIk@ 20138638     NPC_spawn.obj
 0002:0001d680       ??_C@_0CE@CIEJHCCF@?5spawn?5?$FLNPC?5type?5?$CIfrom?5NCPCs?4cfg@ 20138680     NPC_spawn.obj
 0002:0001d6a4       ??_C@_0BJ@EIPKMKHA@Valid?5NPC?5commands?5are?3?6?$AA@ 201386a4     NPC_spawn.obj
 0002:0001d6c0       ??_C@_0DI@GBOMBMDO@NPC?5?$CFs?5could?5not?5spawn?0?5waiting?5@ 201386c0     NPC_spawn.obj
 0002:0001d6f8       ??_C@_0DP@MOPJAGED@NPC?5?$CFs?5could?5not?5spawn?0?5firing?5t@ 201386f8     NPC_spawn.obj
 0002:0001d738       ??_C@_04CEJDCDCH@test?$AA@ 20138738     NPC_spawn.obj
 0002:0001d740       ??_C@_0CA@BKIFPACP@?$FO1ERROR?3?5Couldn?8t?5spawn?5NPC?5?$CFs?6?$AA@ 20138740     NPC_spawn.obj
 0002:0001d760       ??_C@_0CF@FCKDKPPL@?$FO1ERROR?3?5NPC?5BG_Alloc?5client?5fai@ 20138760     NPC_spawn.obj
 0002:0001d788       ??_C@_08BKLBNMHA@NPC_goal?$AA@ 20138788     NPC_spawn.obj
 0002:0001d794       ??_C@_0CB@DPIIEAEG@?$FO1ERROR?3?5NPC?5G_Alloc?5NPC?5failed?6@ 20138794     NPC_spawn.obj
 0002:0001d7b8       ??_C@_0BN@IDPAOFEL@?$FO1ERROR?3?5NPC?5G_Spawn?5failed?6?$AA@ 201387b8     NPC_spawn.obj
 0002:0001d7d8       ??_C@_0O@NLIOKGNL@noExtraSounds?$AA@ 201387d8     NPC_spawn.obj
 0002:0001d7e8       ??_C@_0P@GAGBHJFB@noCombatSounds?$AA@ 201387e8     NPC_spawn.obj
 0002:0001d7f8       ??_C@_0O@PEMBHFLC@noBasicSounds?$AA@ 201387f8     NPC_spawn.obj
 0002:0001d808       ??_C@_0BC@KPMOJIBM@Humanoid?5Lifeform?$AA@ 20138808     NPC_spawn.obj
 0002:0001d81c       ??_C@_03JIHJHPIE@Jan?$AA@  2013881c     NPC_spawn.obj
 0002:0001d820       ??_C@_04KEDHFGCH@Luke?$AA@ 20138820     NPC_spawn.obj
 0002:0001d828       ??_C@_06POOIFGAI@Tavion?$AA@ 20138828     NPC_spawn.obj
 0002:0001d830       ??_C@_0L@KIGDGNBF@tavion_new?$AA@ 20138830     NPC_spawn.obj
 0002:0001d83c       ??_C@_0BC@LEGEFCDF@tavion_sith_sword?$AA@ 2013883c     NPC_spawn.obj
 0002:0001d850       ??_C@_0L@HIHHOANI@reborn_new?$AA@ 20138850     NPC_spawn.obj
 0002:0001d85c       ??_C@_0N@BKMAJJP@reborn_staff?$AA@ 2013885c     NPC_spawn.obj
 0002:0001d86c       ??_C@_0M@EDDKJJFB@reborn_dual?$AA@ 2013886c     NPC_spawn.obj
 0002:0001d878       ??_C@_0M@GFAAHJHH@reborn_new2?$AA@ 20138878     NPC_spawn.obj
 0002:0001d884       ??_C@_0O@INMBHGKN@reborn_staff2?$AA@ 20138884     NPC_spawn.obj
 0002:0001d894       ??_C@_0N@PBFPAPIK@reborn_dual2?$AA@ 20138894     NPC_spawn.obj
 0002:0001d8a4       ??_C@_0P@PKCPOPAL@cultist_saber2?$AA@ 201388a4     NPC_spawn.obj
 0002:0001d8b4       ??_C@_0BG@POBCPCLB@cultist_saber_strong2?$AA@ 201388b4     NPC_spawn.obj
 0002:0001d8cc       ??_C@_0BM@ENNPLABI@cultist_saber_strong_throw2?$AA@ 201388cc     NPC_spawn.obj
 0002:0001d8e8       ??_C@_0BD@EBFFKMDH@cultist_saber_med2?$AA@ 201388e8     NPC_spawn.obj
 0002:0001d8fc       ??_C@_0BJ@MKNEOPNO@cultist_saber_med_throw2?$AA@ 201388fc     NPC_spawn.obj
 0002:0001d918       ??_C@_07FCEHCDBO@cultist?$AA@ 20138918     NPC_spawn.obj
 0002:0001d920       ??_C@_0O@CMEOONDI@cultist_drain?$AA@ 20138920     NPC_spawn.obj
 0002:0001d930       ??_C@_0N@OPMKHNJB@cultist_grip?$AA@ 20138930     NPC_spawn.obj
 0002:0001d940       ??_C@_0BA@CHNEFCOJ@cultistcommando?$AA@ 20138940     NPC_spawn.obj
 0002:0001d950       ??_C@_05PBPJENIA@Reelo?$AA@ 20138950     NPC_spawn.obj
 0002:0001d958       ??_C@_05EGNOGBLF@Galak?$AA@ 20138958     NPC_spawn.obj
 0002:0001d960       ??_C@_0L@MMHPFCIG@Galak_Mech?$AA@ 20138960     NPC_spawn.obj
 0002:0001d96c       ??_C@_06ODBEFHI@Desann?$AA@ 2013896c     NPC_spawn.obj
 0002:0001d974       ??_C@_09KCBKJCAI@Bartender?$AA@ 20138974     NPC_spawn.obj
 0002:0001d980       ??_C@_0N@ONIHLJIG@MorganKatarn?$AA@ 20138980     NPC_spawn.obj
 0002:0001d990       ??_C@_0M@MDILBBFC@jeditrainer?$AA@ 20138990     NPC_spawn.obj
 0002:0001d99c       ??_C@_08HFJIDNB@jedi_zf2?$AA@ 2013899c     NPC_spawn.obj
 0002:0001d9a8       ??_C@_08CMHENABC@jedi_zf1?$AA@ 201389a8     NPC_spawn.obj
 0002:0001d9b4       ??_C@_08OHIGPEOC@jedi_tf2?$AA@ 201389b4     NPC_spawn.obj
 0002:0001d9c0       ??_C@_08MMKLKHCB@jedi_tf1?$AA@ 201389c0     NPC_spawn.obj
 0002:0001d9cc       ??_C@_08MOLIEENP@jedi_rm2?$AA@ 201389cc     NPC_spawn.obj
 0002:0001d9d8       ??_C@_08OFJFBHBM@jedi_rm1?$AA@ 201389d8     NPC_spawn.obj
 0002:0001d9e4       ??_C@_09IMMKPAIE@jedi_kdm2?$AA@ 201389e4     NPC_spawn.obj
 0002:0001d9f0       ??_C@_09KHOHKDEH@jedi_kdm1?$AA@ 201389f0     NPC_spawn.obj
 0002:0001d9fc       ??_C@_08PBBMPDCE@jedi_hm2?$AA@ 201389fc     NPC_spawn.obj
 0002:0001da08       ??_C@_08NKDBKAOH@jedi_hm1?$AA@ 20138a08     NPC_spawn.obj
 0002:0001da14       ??_C@_08PNEJBMMF@jedi_hf2?$AA@ 20138a14     NPC_spawn.obj
 0002:0001da20       ??_C@_08NGGEEPAG@jedi_hf1?$AA@ 20138a20     NPC_spawn.obj
 0002:0001da2c       ??_C@_09ENBAGJ@Prisoner2?$AA@ 20138a2c     NPC_spawn.obj
 0002:0001da38       ??_C@_08IFMHDIIA@Prisoner?$AA@ 20138a38     NPC_spawn.obj
 0002:0001da44       ??_C@_06MNFHADNP@Rebel2?$AA@ 20138a44     NPC_spawn.obj
 0002:0001da4c       ??_C@_05EINCBNHF@Rebel?$AA@ 20138a4c     NPC_spawn.obj
 0002:0001da54       ??_C@_0O@NNEKOBEC@StormTrooper2?$AA@ 20138a54     NPC_spawn.obj
 0002:0001da64       ??_C@_0N@IPEKNKOP@StormTrooper?$AA@ 20138a64     NPC_spawn.obj
 0002:0001da74       ??_C@_0L@INMMAMGJ@human_merc?$AA@ 20138a74     NPC_spawn.obj
 0002:0001da80       ??_C@_0P@CEDLPIIL@human_merc_cnc?$AA@ 20138a80     NPC_spawn.obj
 0002:0001da90       ??_C@_0P@BAGBNMNH@human_merc_flc?$AA@ 20138a90     NPC_spawn.obj
 0002:0001daa0       ??_C@_0P@KBCEGGAC@human_merc_rep?$AA@ 20138aa0     NPC_spawn.obj
 0002:0001dab0       ??_C@_0P@LDOLCCIM@human_merc_bow?$AA@ 20138ab0     NPC_spawn.obj
 0002:0001dac0       ??_C@_0L@DABGOENG@rosh_penin?$AA@ 20138ac0     NPC_spawn.obj
 0002:0001dacc       ??_C@_0BD@KFCKOK@rosh_penin_noforce?$AA@ 20138acc     NPC_spawn.obj
 0002:0001dae0       ??_C@_08GGILKENG@saboteur?$AA@ 20138ae0     NPC_spawn.obj
 0002:0001daec       ??_C@_0BB@PBKNBKJO@saboteurcommando?$AA@ 20138aec     NPC_spawn.obj
 0002:0001db00       ??_C@_0P@CELNMLBH@saboteurpistol?$AA@ 20138b00     NPC_spawn.obj
 0002:0001db10       ??_C@_0P@HELEEDEP@saboteursniper?$AA@ 20138b10     NPC_spawn.obj
 0002:0001db20       ??_C@_06MENMPEJL@chewie?$AA@ 20138b20     NPC_spawn.obj
 0002:0001db28       ??_C@_0M@OIHFJHBD@snowtrooper?$AA@ 20138b28     NPC_spawn.obj
 0002:0001db34       ??_C@_09KDANLPAO@Ugnaught2?$AA@ 20138b34     NPC_spawn.obj
 0002:0001db40       ??_C@_08HJGICLOC@Ugnaught?$AA@ 20138b40     NPC_spawn.obj
 0002:0001db4c       ??_C@_04EEJNNDFL@jawa?$AA@ 20138b4c     NPC_spawn.obj
 0002:0001db54       ??_C@_0L@IDEDJPGA@jawa_armed?$AA@ 20138b54     NPC_spawn.obj
 0002:0001db60       ??_C@_05PEHNPACM@gran2?$AA@ 20138b60     NPC_spawn.obj
 0002:0001db68       ??_C@_08NMJMILOG@Weequay4?$AA@ 20138b68     NPC_spawn.obj
 0002:0001db74       ??_C@_08JDNNBNCB@Weequay3?$AA@ 20138b74     NPC_spawn.obj
 0002:0001db80       ??_C@_08IKMGCMGA@Weequay2?$AA@ 20138b80     NPC_spawn.obj
 0002:0001db8c       ??_C@_07GLDCNNJL@Weequay?$AA@ 20138b8c     NPC_spawn.obj
 0002:0001db94       ??_C@_0L@FEAKOFMK@Trandoshan?$AA@ 20138b94     NPC_spawn.obj
 0002:0001dba0       ??_C@_06MGGMONDE@tusken?$AA@ 20138ba0     NPC_spawn.obj
 0002:0001dba8       ??_C@_0N@OIALOHBP@tuskensniper?$AA@ 20138ba8     NPC_spawn.obj
 0002:0001dbb8       ??_C@_06HGHCLCNH@noghri?$AA@ 20138bb8     NPC_spawn.obj
 0002:0001dbc0       ??_C@_0N@CBIIFMFK@SwampTrooper?$AA@ 20138bc0     NPC_spawn.obj
 0002:0001dbd0       ??_C@_0O@GGOPGEMH@SwampTrooper2?$AA@ 20138bd0     NPC_spawn.obj
 0002:0001dbe0       ??_C@_08NBBJCLDP@Imperial?$AA@ 20138be0     NPC_spawn.obj
 0002:0001dbec       ??_C@_0N@NHGPBAIK@ImpCommander?$AA@ 20138bec     NPC_spawn.obj
 0002:0001dbfc       ??_C@_0L@MFBFDPNL@ImpOfficer?$AA@ 20138bfc     NPC_spawn.obj
 0002:0001dc08       ??_C@_0L@MIDENHBG@ImpWorker3?$AA@ 20138c08     NPC_spawn.obj
 0002:0001dc14       ??_C@_0L@NBCPOGFH@ImpWorker2?$AA@ 20138c14     NPC_spawn.obj
 0002:0001dc20       ??_C@_09FMFGPHCE@ImpWorker?$AA@ 20138c20     NPC_spawn.obj
 0002:0001dc2c       ??_C@_0L@KBKLNBHI@BespinCop2?$AA@ 20138c2c     NPC_spawn.obj
 0002:0001dc38       ??_C@_09LCJFFHCB@BespinCop?$AA@ 20138c38     NPC_spawn.obj
 0002:0001dc44       ??_C@_0L@OFLNOBEM@rebornboss?$AA@ 20138c44     NPC_spawn.obj
 0002:0001dc50       ??_C@_0O@DPDPJPAB@rebornacrobat?$AA@ 20138c50     NPC_spawn.obj
 0002:0001dc60       ??_C@_0N@EFGJCGDM@rebornfencer?$AA@ 20138c60     NPC_spawn.obj
 0002:0001dc70       ??_C@_0BA@PMEECJEO@rebornforceuser?$AA@ 20138c70     NPC_spawn.obj
 0002:0001dc80       ??_C@_0P@CNHMEDFK@ShadowTrooper2?$AA@ 20138c80     NPC_spawn.obj
 0002:0001dc90       ??_C@_0O@LGHLIGHP@ShadowTrooper?$AA@ 20138c90     NPC_spawn.obj
 0002:0001dca0       ??_C@_05NHKNINJN@Murjj?$AA@ 20138ca0     NPC_spawn.obj
 0002:0001dca8       ??_C@_05GDHPKJDJ@Swamp?$AA@ 20138ca8     NPC_spawn.obj
 0002:0001dcb0       ??_C@_04HOBFCMOG@Claw?$AA@ 20138cb0     NPC_spawn.obj
 0002:0001dcb8       ??_C@_06OPHKMDIA@Glider?$AA@ 20138cb8     NPC_spawn.obj
 0002:0001dcc0       ??_C@_06BIKBFFKB@Flier2?$AA@ 20138cc0     NPC_spawn.obj
 0002:0001dcc8       ??_C@_06KINPBLIL@Lizard?$AA@ 20138cc8     NPC_spawn.obj
 0002:0001dcd0       ??_C@_04FDNDCKCE@Fish?$AA@ 20138cd0     NPC_spawn.obj
 0002:0001dcd8       ??_C@_06ILNPDLNE@rancor?$AA@ 20138cd8     NPC_spawn.obj
 0002:0001dce0       ??_C@_0O@IMKPDFFI@sand_creature?$AA@ 20138ce0     NPC_spawn.obj
 0002:0001dcf0       ??_C@_0BD@PPFAIDNB@sand_creature_fast?$AA@ 20138cf0     NPC_spawn.obj
 0002:0001dd04       ??_C@_09OFKKIIEA@remote_sp?$AA@ 20138d04     NPC_spawn.obj
 0002:0001dd10       ??_C@_05PDOJLLAB@mouse?$AA@ 20138d10     NPC_spawn.obj
 0002:0001dd18       ??_C@_08KFFNFLEE@r2d2_imp?$AA@ 20138d18     NPC_spawn.obj
 0002:0001dd24       ??_C@_08KPJIFCFN@r5d2_imp?$AA@ 20138d24     NPC_spawn.obj
 0002:0001dd30       ??_C@_0N@PCKLEGJI@protocol_imp?$AA@ 20138d30     NPC_spawn.obj
 0002:0001dd40       ??_C@_03BBEMLFCD@Rax?$AA@  20138d40     NPC_spawn.obj
 0002:0001dd44       ??_C@_0M@ILAPHLMD@saber_droid?$AA@ 20138d44     NPC_spawn.obj
 0002:0001dd50       ??_C@_0BF@PDIJIMGE@saber_droid_training?$AA@ 20138d50     NPC_spawn.obj
 0002:0001dd68       ??_C@_0O@GHLGAAME@hazardtrooper?$AA@ 20138d68     NPC_spawn.obj
 0002:0001dd78       ??_C@_0BI@HPIMDJHL@hazardtrooperconcussion?$AA@ 20138d78     NPC_spawn.obj
 0002:0001dd90       ??_C@_0BF@NAIAPBHH@hazardtrooperofficer?$AA@ 20138d90     NPC_spawn.obj
 0002:0001dda8       ??_C@_0N@MINDHMDA@lannik_racto?$AA@ 20138da8     NPC_spawn.obj
 0002:0001ddb8       ??_C@_0P@FOAJJFFL@assassin_droid?$AA@ 20138db8     NPC_spawn.obj
 0002:0001ddc8       ??_C@_0N@BABNDBCI@sandcreature?$AA@ 20138dc8     NPC_stats.obj
 0002:0001ddd8       ??_C@_0O@PPOOIMI@assassindroid?$AA@ 20138dd8     NPC_stats.obj
 0002:0001dde8       ??_C@_0L@GJFBJEOK@saberdroid?$AA@ 20138de8     NPC_stats.obj
 0002:0001ddf4       ??_C@_0BG@LJHJPJNN@bobafettrockettrooper?$AA@ 20138df4     NPC_stats.obj
 0002:0001de0c       ??_C@_05GENDKMAP@swamp?$AA@ 20138e0c     NPC_stats.obj
 0002:0001de14       ??_C@_0N@MFECPDEM@stormtrooper?$AA@ 20138e14     NPC_stats.obj
 0002:0001de24       ??_C@_05PGFFEILG@reelo?$AA@ 20138e24     NPC_stats.obj
 0002:0001de2c       ??_C@_05EPHOBIED@rebel?$AA@ 20138e2c     NPC_stats.obj
 0002:0001de34       ??_C@_05NAABIIKL@murjj?$AA@ 20138e34     NPC_stats.obj
 0002:0001de3c       ??_C@_08BHOPADKA@monmotha?$AA@ 20138e3c     NPC_stats.obj
 0002:0001de48       ??_C@_06GHGCCCBH@lizard?$AA@ 20138e48     NPC_stats.obj
 0002:0001de50       ??_C@_05ODBLFLCE@lando?$AA@ 20138e50     NPC_stats.obj
 0002:0001de58       ??_C@_06CAMHPKBM@glider?$AA@ 20138e58     NPC_stats.obj
 0002:0001de60       ??_C@_06NHBMGMDN@flier2?$AA@ 20138e60     NPC_stats.obj
 0002:0001de68       ??_C@_04JCBCAFCA@fish?$AA@ 20138e68     NPC_stats.obj
 0002:0001de70       ??_C@_08PJMIBPNP@commando?$AA@ 20138e70     NPC_stats.obj
 0002:0001de7c       ??_C@_0L@BNMEFCFO@bespin_cop?$AA@ 20138e7c     NPC_stats.obj
 0002:0001de88       ??_C@_07JAOEMGIL@neutral?$AA@ 20138e88     NPC_stats.obj
 0002:0001de90       ??_C@_0N@HLIKJOGD@BSET_INVALID?$AA@ 20138e90     NPC_stats.obj
 0002:0001dea0       ??_C@_0N@GAPKGAAK@BSET_FFDEATH?$AA@ 20138ea0     NPC_stats.obj
 0002:0001deb0       ??_C@_0L@NCBDODON@BSET_FFIRE?$AA@ 20138eb0     NPC_stats.obj
 0002:0001debc       ??_C@_0L@CIALIMJ@BSET_STUCK?$AA@ 20138ebc     NPC_stats.obj
 0002:0001dec8       ??_C@_0M@GEPIDNEK@BSET_BUMPED?$AA@ 20138ec8     NPC_stats.obj
 0002:0001ded4       ??_C@_0N@HLKLFCPC@BSET_BLOCKED?$AA@ 20138ed4     NPC_stats.obj
 0002:0001dee4       ??_C@_0N@COBIKAHM@BSET_DELAYED?$AA@ 20138ee4     NPC_stats.obj
 0002:0001def4       ??_C@_0L@KMOMBCCG@BSET_DEATH?$AA@ 20138ef4     NPC_stats.obj
 0002:0001df00       ??_C@_09HLPEDIKP@BSET_FLEE?$AA@ 20138f00     NPC_stats.obj
 0002:0001df0c       ??_C@_09IMNAKCPP@BSET_PAIN?$AA@ 20138f0c     NPC_stats.obj
 0002:0001df18       ??_C@_0P@OLJLINJE@BSET_LOSTENEMY?$AA@ 20138f18     NPC_stats.obj
 0002:0001df28       ??_C@_0N@BNAHIHND@BSET_VICTORY?$AA@ 20138f28     NPC_stats.obj
 0002:0001df38       ??_C@_0M@JIAMFBAG@BSET_ATTACK?$AA@ 20138f38     NPC_stats.obj
 0002:0001df44       ??_C@_0L@DFDNOME@BSET_ANGER?$AA@ 20138f44     NPC_stats.obj
 0002:0001df50       ??_C@_0L@EENFNNHH@BSET_AWAKE?$AA@ 20138f50     NPC_stats.obj
 0002:0001df5c       ??_C@_08BGHDKIOJ@BSET_USE?$AA@ 20138f5c     NPC_stats.obj
 0002:0001df68       ??_C@_0L@EOCDCBCI@BSET_SPAWN?$AA@ 20138f68     NPC_stats.obj
 0002:0001df74       ??_C@_0N@JGEEOFEK@BS_CINEMATIC?$AA@ 20138f74     NPC_stats.obj
 0002:0001df84       ??_C@_09CMBHICFN@BS_REMOVE?$AA@ 20138f84     NPC_stats.obj
 0002:0001df90       ??_C@_09KALIEEFH@BS_NOCLIP?$AA@ 20138f90     NPC_stats.obj
 0002:0001df9c       ??_C@_09GOPMILIC@BS_WANDER?$AA@ 20138f9c     NPC_stats.obj
 0002:0001dfa8       ??_C@_09ECKAPEHM@BS_SEARCH?$AA@ 20138fa8     NPC_stats.obj
 0002:0001dfb4       ??_C@_07DCOJFALB@BS_JUMP?$AA@ 20138fb4     NPC_stats.obj
 0002:0001dfbc       ??_C@_0BB@OINEPCIM@BS_FOLLOW_LEADER?$AA@ 20138fbc     NPC_stats.obj
 0002:0001dfd0       ??_C@_08JAJPNIMK@BS_SLEEP?$AA@ 20138fd0     NPC_stats.obj
 0002:0001dfdc       ??_C@_0BB@BIBLNONC@BS_ADVANCE_FIGHT?$AA@ 20138fdc     NPC_stats.obj
 0002:0001dff0       ??_C@_0L@LJGGEAPE@BS_DEFAULT?$AA@ 20138ff0     NPC_stats.obj
 0002:0001dffc       ??_C@_0BE@INJIKFBB@CLASS_SAND_CREATURE?$AA@ 20138ffc     NPC_stats.obj
 0002:0001e010       ??_C@_0N@OHENMKLD@CLASS_TUSKEN?$AA@ 20139010     NPC_stats.obj
 0002:0001e020       ??_C@_0M@LDKODCEM@CLASS_WAMPA?$AA@ 20139020     NPC_stats.obj
 0002:0001e02c       ??_C@_0N@KKPOBMFD@CLASS_RANCOR?$AA@ 2013902c     NPC_stats.obj
 0002:0001e03c       ??_C@_0O@MPEEKFIF@CLASS_VEHICLE?$AA@ 2013903c     NPC_stats.obj
 0002:0001e04c       ??_C@_0N@DBJMLLFI@CLASS_PLAYER?$AA@ 2013904c     NPC_stats.obj
 0002:0001e05c       ??_C@_0BF@EDFDLGFD@CLASS_HAZARD_TROOPER?$AA@ 2013905c     NPC_stats.obj
 0002:0001e074       ??_C@_0BF@INKNMJBG@CLASS_ASSASSIN_DROID?$AA@ 20139074     NPC_stats.obj
 0002:0001e08c       ??_C@_0BC@EBHGHCA@CLASS_SABER_DROID?$AA@ 2013908c     NPC_stats.obj
 0002:0001e0a0       ??_C@_0BE@HNBDCOBD@CLASS_ROCKETTROOPER?$AA@ 201390a0     NPC_stats.obj
 0002:0001e0b4       ??_C@_0P@MDAJHAHB@CLASS_BOBAFETT?$AA@ 201390b4     NPC_stats.obj
 0002:0001e0c4       ??_C@_0O@HEDNKMML@CLASS_WEEQUAY?$AA@ 201390c4     NPC_stats.obj
 0002:0001e0d4       ??_C@_0L@BDILEFHL@CLASS_JAWA?$AA@ 201390d4     NPC_stats.obj
 0002:0001e0e0       ??_C@_0P@IHJIFBMF@CLASS_UGNAUGHT?$AA@ 201390e0     NPC_stats.obj
 0002:0001e0f0       ??_C@_0BB@JDNGFDDP@CLASS_TRANDOSHAN?$AA@ 201390f0     NPC_stats.obj
 0002:0001e104       ??_C@_0M@DHDMALJO@CLASS_ALORA?$AA@ 20139104     NPC_stats.obj
 0002:0001e110       ??_C@_0N@BAHEEIBD@CLASS_TAVION?$AA@ 20139110     NPC_stats.obj
 0002:0001e120       ??_C@_0BD@DOPOJIND@CLASS_SWAMPTROOPER?$AA@ 20139120     NPC_stats.obj
 0002:0001e134       ??_C@_0M@MKGOLOPD@CLASS_SWAMP?$AA@ 20139134     NPC_stats.obj
 0002:0001e140       ??_C@_0BD@JADMBOGG@CLASS_STORMTROOPER?$AA@ 20139140     NPC_stats.obj
 0002:0001e154       ??_C@_0BE@MMADAPGI@CLASS_SHADOWTROOPER?$AA@ 20139154     NPC_stats.obj
 0002:0001e168       ??_C@_0N@KNNMNDDP@CLASS_SENTRY?$AA@ 20139168     NPC_stats.obj
 0002:0001e178       ??_C@_0N@CIOLMJNJ@CLASS_SEEKER?$AA@ 20139178     NPC_stats.obj
 0002:0001e188       ??_C@_0N@FJBAPFLB@CLASS_RODIAN?$AA@ 20139188     NPC_stats.obj
 0002:0001e198       ??_C@_0N@CJOJFDCK@CLASS_REMOTE?$AA@ 20139198     NPC_stats.obj
 0002:0001e1a8       ??_C@_0M@FIOIFKEK@CLASS_REELO?$AA@ 201391a8     NPC_stats.obj
 0002:0001e1b4       ??_C@_0N@EMMAGBIC@CLASS_REBORN?$AA@ 201391b4     NPC_stats.obj
 0002:0001e1c4       ??_C@_0M@OBMDAKLP@CLASS_REBEL?$AA@ 201391c4     NPC_stats.obj
 0002:0001e1d0       ??_C@_0L@LNDEJJOP@CLASS_R5D2?$AA@ 201391d0     NPC_stats.obj
 0002:0001e1dc       ??_C@_0L@CAODKBFG@CLASS_R2D2?$AA@ 201391dc     NPC_stats.obj
 0002:0001e1e8       ??_C@_0P@COFOCFPB@CLASS_PROTOCOL?$AA@ 201391e8     NPC_stats.obj
 0002:0001e1f8       ??_C@_0M@FICMJFDH@CLASS_PROBE?$AA@ 201391f8     NPC_stats.obj
 0002:0001e204       ??_C@_0P@HLDHECKH@CLASS_PRISONER?$AA@ 20139204     NPC_stats.obj
 0002:0001e214       ??_C@_0M@HOLMJKFH@CLASS_MURJJ?$AA@ 20139214     NPC_stats.obj
 0002:0001e220       ??_C@_0M@FNFEKJPN@CLASS_MOUSE?$AA@ 20139220     NPC_stats.obj
 0002:0001e22c       ??_C@_0BD@MEDKCGMF@CLASS_MORGANKATARN?$AA@ 2013922c     NPC_stats.obj
 0002:0001e240       ??_C@_0P@GLOOPLCE@CLASS_MONMOTHA?$AA@ 20139240     NPC_stats.obj
 0002:0001e250       ??_C@_0BC@INOFHBLL@CLASS_MINEMONSTER?$AA@ 20139250     NPC_stats.obj
 0002:0001e264       ??_C@_0BA@FJCCFCCD@CLASS_GALAKMECH?$AA@ 20139264     NPC_stats.obj
 0002:0001e274       ??_C@_0M@NPIDCNM@CLASS_MARK2?$AA@ 20139274     NPC_stats.obj
 0002:0001e280       ??_C@_0M@CGNFGBBP@CLASS_MARK1?$AA@ 20139280     NPC_stats.obj
 0002:0001e28c       ??_C@_0L@DCOAOPAD@CLASS_LUKE?$AA@ 2013928c     NPC_stats.obj
 0002:0001e298       ??_C@_0N@EGEDAFJA@CLASS_LIZARD?$AA@ 20139298     NPC_stats.obj
 0002:0001e2a8       ??_C@_0M@ENKGEJNI@CLASS_LANDO?$AA@ 201392a8     NPC_stats.obj
 0002:0001e2b4       ??_C@_0L@MPFJJKCO@CLASS_KYLE?$AA@ 201392b4     NPC_stats.obj
 0002:0001e2c0       ??_C@_0L@EKFAEFAN@CLASS_JEDI?$AA@ 201392c0     NPC_stats.obj
 0002:0001e2cc       ??_C@_09HNAGPFAG@CLASS_JAN?$AA@ 201392cc     NPC_stats.obj
 0002:0001e2d8       ??_C@_0BD@NCGHFFLN@CLASS_INTERROGATOR?$AA@ 201392d8     NPC_stats.obj
 0002:0001e2ec       ??_C@_0BA@KDJLKPAL@CLASS_IMPWORKER?$AA@ 201392ec     NPC_stats.obj
 0002:0001e2fc       ??_C@_0P@CPOJFBBI@CLASS_IMPERIAL?$AA@ 201392fc     NPC_stats.obj
 0002:0001e30c       ??_C@_0N@GLFONONA@CLASS_HOWLER?$AA@ 2013930c     NPC_stats.obj
 0002:0001e31c       ??_C@_0L@DGIELKLG@CLASS_GRAN?$AA@ 2013931c     NPC_stats.obj
 0002:0001e328       ??_C@_0L@OCNMIGIM@CLASS_GONK?$AA@ 20139328     NPC_stats.obj
 0002:0001e334       ??_C@_0N@BOGNNJL@CLASS_GLIDER?$AA@ 20139334     NPC_stats.obj
 0002:0001e344       ??_C@_0M@OPMPHGHP@CLASS_GALAK?$AA@ 20139344     NPC_stats.obj
 0002:0001e350       ??_C@_0N@GDLJGPBI@CLASS_FLIER2?$AA@ 20139350     NPC_stats.obj
 0002:0001e360       ??_C@_0L@MFAEJDAA@CLASS_FISH?$AA@ 20139360     NPC_stats.obj
 0002:0001e36c       ??_C@_0N@OAKNFLGD@CLASS_DESANN?$AA@ 2013936c     NPC_stats.obj
 0002:0001e37c       ??_C@_0P@IFMJOHFL@CLASS_COMMANDO?$AA@ 2013937c     NPC_stats.obj
 0002:0001e38c       ??_C@_0L@OIMCJFMC@CLASS_CLAW?$AA@ 2013938c     NPC_stats.obj
 0002:0001e398       ??_C@_0BB@JNEFEEHI@CLASS_BESPIN_COP?$AA@ 20139398     NPC_stats.obj
 0002:0001e3ac       ??_C@_0BA@JCGKPDLL@CLASS_BARTENDER?$AA@ 201393ac     NPC_stats.obj
 0002:0001e3bc       ??_C@_0L@DDCAJNAP@CLASS_ATST?$AA@ 201393bc     NPC_stats.obj
 0002:0001e3c8       ??_C@_0L@HBEPMJHD@CLASS_NONE?$AA@ 201393c8     NPC_stats.obj
 0002:0001e3d4       ??_C@_0BA@OJAHIBOF@NPCTEAM_NEUTRAL?$AA@ 201393d4     NPC_stats.obj
 0002:0001e3e4       ??_C@_0P@BECMHGBO@NPCTEAM_PLAYER?$AA@ 201393e4     NPC_stats.obj
 0002:0001e3f4       ??_C@_0O@PDKOGACK@NPCTEAM_ENEMY?$AA@ 201393f4     NPC_stats.obj
 0002:0001e404       ??_C@_0N@JABAJDLN@NPCTEAM_FREE?$AA@ 20139404     NPC_stats.obj
 0002:0001e414       ??_C@_07NBOKKNLB@captain?$AA@ 20139414     NPC_stats.obj
 0002:0001e41c       ??_C@_09GALJJPI@commander?$AA@ 2013941c     NPC_stats.obj
 0002:0001e428       ??_C@_06JDLNOOJG@ltcomm?$AA@ 20139428     NPC_stats.obj
 0002:0001e430       ??_C@_02KCAKIFL@lt?$AA@    20139430     NPC_stats.obj
 0002:0001e434       ??_C@_04OOLOBGPD@ltjg?$AA@ 20139434     NPC_stats.obj
 0002:0001e43c       ??_C@_06MHFJJEPD@ensign?$AA@ 2013943c     NPC_stats.obj
 0002:0001e444       ??_C@_07NHKCCMBK@crewman?$AA@ 20139444     NPC_stats.obj
 0002:0001e44c       ??_C@_08LLHIJDNI@civilian?$AA@ 2013944c     NPC_stats.obj
 0002:0001e458       ??_C@_07NEHFBHNO@sndjedi?$AA@ 20139458     NPC_stats.obj
 0002:0001e460       ??_C@_08DEBFCKMK@sndextra?$AA@ 20139460     NPC_stats.obj
 0002:0001e46c       ??_C@_09HADMCHAD@sndcombat?$AA@ 2013946c     NPC_stats.obj
 0002:0001e478       ??_C@_04KHGIKJBA@?$CK$?$CFs?$AA@ 20139478     NPC_stats.obj
 0002:0001e480       ??_C@_01KMDKNFGN@?1?$AA@   20139480     NPC_stats.obj
 0002:0001e484       ??_C@_03OEOJGHBI@snd?$AA@  20139484     NPC_stats.obj
 0002:0001e488       ??_C@_05PAEJKDGG@NPC?$CFs?$AA@ 20139488     NPC_stats.obj
 0002:0001e490       ??_C@_0L@JOMPPCAN@playerTeam?$AA@ 20139490     NPC_stats.obj
 0002:0001e49c       ??_C@_0M@OAMDHNJM@playerModel?$AA@ 2013949c     NPC_stats.obj
 0002:0001e4a8       ??_C@_09FKOMGFKE@legsmodel?$AA@ 201394a8     NPC_stats.obj
 0002:0001e4b4       ??_C@_0L@OHADMAJP@torsomodel?$AA@ 201394b4     NPC_stats.obj
 0002:0001e4c0       ??_C@_09DHBBGOBJ@headmodel?$AA@ 201394c0     NPC_stats.obj
 0002:0001e4d0       ??_C@_0IN@NCFFJIJE@?$FO1ERROR?3?5Tried?5to?5spawn?5a?5vehicl@ 201394d0     NPC_stats.obj
 0002:0001e560       ??_C@_0BM@MMDCMNND@models?1players?1?$CFs?1lower?4md3?$AA@ 20139560     NPC_stats.obj
 0002:0001e57c       ??_C@_05CBDGHPNI@?$EAKyle?$AA@ 2013957c     NPC_stats.obj
 0002:0001e588       ??_C@_0FD@DBAKEBJA@?$FO3Warning?3?5ojp_spmodelrgb?5could?5@ 20139588     NPC_stats.obj
 0002:0001e5dc       ??_C@_08DIEBNEND@?$CFi?5?$CFi?5?$CFi?$AA@ 201395dc     NPC_stats.obj
 0002:0001e5e8       ??_C@_0DC@JABLILA@WARNING?3?5unknown?5keyword?5?8?$CFs?8?5wh@ 201395e8     NPC_stats.obj
 0002:0001e61c       ??_C@_0O@FMPCLHKH@saber2Radius8?$AA@ 2013961c     NPC_stats.obj
 0002:0001e62c       ??_C@_0O@NLGKKLGI@saber2Radius7?$AA@ 2013962c     NPC_stats.obj
 0002:0001e63c       ??_C@_0O@MCHBJKCJ@saber2Radius6?$AA@ 2013963c     NPC_stats.obj
 0002:0001e64c       ??_C@_0O@OJFMMJOK@saber2Radius5?$AA@ 2013964c     NPC_stats.obj
 0002:0001e65c       ??_C@_0O@PAEHPIKL@saber2Radius4?$AA@ 2013965c     NPC_stats.obj
 0002:0001e66c       ??_C@_0O@LPAGGOGM@saber2Radius3?$AA@ 2013966c     NPC_stats.obj
 0002:0001e67c       ??_C@_0O@KGBNFPCN@saber2Radius2?$AA@ 2013967c     NPC_stats.obj
 0002:0001e68c       ??_C@_0N@GJNPBLCF@saber2Radius?$AA@ 2013968c     NPC_stats.obj
 0002:0001e69c       ??_C@_0N@IFCNFDAI@saberRadius8?$AA@ 2013969c     NPC_stats.obj
 0002:0001e6ac       ??_C@_0N@CLFEPMH@saberRadius7?$AA@ 201396ac     NPC_stats.obj
 0002:0001e6bc       ??_C@_0N@BLKOHOIG@saberRadius6?$AA@ 201396bc     NPC_stats.obj
 0002:0001e6cc       ??_C@_0N@DAIDCNEF@saberRadius5?$AA@ 201396cc     NPC_stats.obj
 0002:0001e6dc       ??_C@_0N@CJJIBMAE@saberRadius4?$AA@ 201396dc     NPC_stats.obj
 0002:0001e6ec       ??_C@_0N@GGNJIKMD@saberRadius3?$AA@ 201396ec     NPC_stats.obj
 0002:0001e6fc       ??_C@_0N@HPMCLLIC@saberRadius2?$AA@ 201396fc     NPC_stats.obj
 0002:0001e70c       ??_C@_0O@HHOIAGFO@saber2Length8?$AA@ 2013970c     NPC_stats.obj
 0002:0001e71c       ??_C@_0O@PAHABKJB@saber2Length7?$AA@ 2013971c     NPC_stats.obj
 0002:0001e72c       ??_C@_0O@OJGLCLNA@saber2Length6?$AA@ 2013972c     NPC_stats.obj
 0002:0001e73c       ??_C@_0O@MCEGHIBD@saber2Length5?$AA@ 2013973c     NPC_stats.obj
 0002:0001e74c       ??_C@_0O@NLFNEJFC@saber2Length4?$AA@ 2013974c     NPC_stats.obj
 0002:0001e75c       ??_C@_0O@JEBMNPJF@saber2Length3?$AA@ 2013975c     NPC_stats.obj
 0002:0001e76c       ??_C@_0O@INAHOONE@saber2Length2?$AA@ 2013976c     NPC_stats.obj
 0002:0001e77c       ??_C@_0N@MHDEHAJP@saber2Length?$AA@ 2013977c     NPC_stats.obj
 0002:0001e78c       ??_C@_0N@KODHOCPB@saberLength8?$AA@ 2013978c     NPC_stats.obj
 0002:0001e79c       ??_C@_0N@CJKPPODO@saberLength7?$AA@ 2013979c     NPC_stats.obj
 0002:0001e7ac       ??_C@_0N@DALEMPHP@saberLength6?$AA@ 201397ac     NPC_stats.obj
 0002:0001e7bc       ??_C@_0N@BLJJJMLM@saberLength5?$AA@ 201397bc     NPC_stats.obj
 0002:0001e7cc       ??_C@_0N@CICKNPN@saberLength4?$AA@ 201397cc     NPC_stats.obj
 0002:0001e7dc       ??_C@_0N@ENMDDLDK@saberLength3?$AA@ 201397dc     NPC_stats.obj
 0002:0001e7ec       ??_C@_0N@FENIAKHL@saberLength2?$AA@ 201397ec     NPC_stats.obj
 0002:0001e7fc       ??_C@_0N@JBKFHJHJ@saber2Color8?$AA@ 201397fc     NPC_stats.obj
 0002:0001e80c       ??_C@_0N@BGDNGFLG@saber2Color7?$AA@ 2013980c     NPC_stats.obj
 0002:0001e81c       ??_C@_0N@PCGFEPH@saber2Color6?$AA@ 2013981c     NPC_stats.obj
 0002:0001e82c       ??_C@_0N@CEALAHDE@saber2Color5?$AA@ 2013982c     NPC_stats.obj
 0002:0001e83c       ??_C@_0N@DNBADGHF@saber2Color4?$AA@ 2013983c     NPC_stats.obj
 0002:0001e84c       ??_C@_0N@HCFBKALC@saber2Color3?$AA@ 2013984c     NPC_stats.obj
 0002:0001e85c       ??_C@_0N@GLEKJBPD@saber2Color2?$AA@ 2013985c     NPC_stats.obj
 0002:0001e86c       ??_C@_0M@OJBHFGNA@saber2Color?$AA@ 2013986c     NPC_stats.obj
 0002:0001e878       ??_C@_0M@JIBLAKJA@saberColor8?$AA@ 20139878     NPC_stats.obj
 0002:0001e884       ??_C@_0M@BPIDBGFP@saberColor7?$AA@ 20139884     NPC_stats.obj
 0002:0001e890       ??_C@_0M@GJICHBO@saberColor6?$AA@ 20139890     NPC_stats.obj
 0002:0001e89c       ??_C@_0M@CNLFHENN@saberColor5?$AA@ 2013989c     NPC_stats.obj
 0002:0001e8a8       ??_C@_0M@DEKOEFJM@saberColor4?$AA@ 201398a8     NPC_stats.obj
 0002:0001e8b4       ??_C@_0M@HLOPNDFL@saberColor3?$AA@ 201398b4     NPC_stats.obj
 0002:0001e8c0       ??_C@_0M@GCPEOCBK@saberColor2?$AA@ 201398c0     NPC_stats.obj
 0002:0001e8cc       ??_C@_03HPDLNGOA@?$EA?$CFs?$AA@ 201398cc     NPC_stats.obj
 0002:0001e8d0       ??_C@_05KFODFCPJ@saber?$AA@ 201398d0     NPC_stats.obj
 0002:0001e8d8       ??_C@_0BB@BBDCLDFK@forceRegenAmount?$AA@ 201398d8     NPC_stats.obj
 0002:0001e8ec       ??_C@_0P@CGDGHOGM@forceRegenRate?$AA@ 201398ec     NPC_stats.obj
 0002:0001e8fc       ??_C@_0O@LKBIPCB@forcePowerMax?$AA@ 201398fc     NPC_stats.obj
 0002:0001e90c       ??_C@_07IEFLNPEJ@altFire?$AA@ 2013990c     NPC_stats.obj
 0002:0001e914       ??_C@_08OGKHAIFO@behavior?$AA@ 20139914     NPC_stats.obj
 0002:0001e920       ??_C@_08MICHJCIB@runSpeed?$AA@ 20139920     NPC_stats.obj
 0002:0001e92c       ??_C@_09HNLAALKL@walkSpeed?$AA@ 2013992c     NPC_stats.obj
 0002:0001e938       ??_C@_08EAMFOKJA@yawSpeed?$AA@ 20139938     NPC_stats.obj
 0002:0001e944       ??_C@_07DDKNBEEN@flyswim?$AA@ 20139944     NPC_stats.obj
 0002:0001e94c       ??_C@_08DMIOBKOG@movetype?$AA@ 2013994c     NPC_stats.obj
 0002:0001e958       ??_C@_0N@OBELFKEM@crouchheight?$AA@ 20139958     NPC_stats.obj
 0002:0001e968       ??_C@_0BC@ECJAKDA@dismemberProbLegs?$AA@ 20139968     NPC_stats.obj
 0002:0001e97c       ??_C@_0BD@BBMAIGPP@dismemberProbWaist?$AA@ 2013997c     NPC_stats.obj
 0002:0001e990       ??_C@_0BD@CILPCNDK@dismemberProbHands?$AA@ 20139990     NPC_stats.obj
 0002:0001e9a4       ??_C@_0BC@DMOACEHB@dismemberProbArms?$AA@ 201399a4     NPC_stats.obj
 0002:0001e9b8       ??_C@_0BC@PAKHFENE@dismemberProbHead?$AA@ 201399b8     NPC_stats.obj
 0002:0001e9cc       ??_C@_05ENKANFLO@class?$AA@ 201399cc     NPC_stats.obj
 0002:0001e9d4       ??_C@_09LJHAAHLP@enemyTeam?$AA@ 201399d4     NPC_stats.obj
 0002:0001e9e0       ??_C@_04PNBFHPGN@rank?$AA@ 201399e0     NPC_stats.obj
 0002:0001e9e8       ??_C@_08OEDIBAGI@visrange?$AA@ 201399e8     NPC_stats.obj
 0002:0001e9f4       ??_C@_09IBGEAOEK@vigilance?$AA@ 201399f4     NPC_stats.obj
 0002:0001ea00       ??_C@_04GLOMOHDP@vfov?$AA@ 20139a00     NPC_stats.obj
 0002:0001ea08       ??_C@_0O@KGKLPFFM@shootDistance?$AA@ 20139a08     NPC_stats.obj
 0002:0001ea18       ??_C@_09HPKNIBDL@reactions?$AA@ 20139a18     NPC_stats.obj
 0002:0001ea24       ??_C@_04HDMMNHEL@move?$AA@ 20139a24     NPC_stats.obj
 0002:0001ea2c       ??_C@_0N@CPEHFLJO@intelligence?$AA@ 20139a2c     NPC_stats.obj
 0002:0001ea3c       ??_C@_04LEDMMONM@hfov?$AA@ 20139a3c     NPC_stats.obj
 0002:0001ea44       ??_C@_07OGPFPAF@evasion?$AA@ 20139a44     NPC_stats.obj
 0002:0001ea4c       ??_C@_07CBMFBAMO@earshot?$AA@ 20139a4c     NPC_stats.obj
 0002:0001ea54       ??_C@_03MKHEFFMA@aim?$AA@  20139a54     NPC_stats.obj
 0002:0001ea58       ??_C@_0L@PEPPJGON@aggression?$AA@ 20139a58     NPC_stats.obj
 0002:0001ea64       ??_C@_0CO@KDDBPNCP@MP?5doesn?8t?5support?5xyz?5scaling?0?5@ 20139a64     NPC_stats.obj
 0002:0001ea94       ??_C@_06OKJJDNJA@scaleZ?$AA@ 20139a94     NPC_stats.obj
 0002:0001ea9c       ??_C@_06MBLEGOFD@scaleY?$AA@ 20139a9c     NPC_stats.obj
 0002:0001eaa4       ??_C@_06NIKPFPBC@scaleX?$AA@ 20139aa4     NPC_stats.obj
 0002:0001eaac       ??_C@_0DK@BMGPDJDH@WARNING?3?5MP?5does?5not?5support?5sca@ 20139aac     NPC_stats.obj
 0002:0001eae8       ??_C@_0BE@CFJFPDKK@bad?5?$CFs?5in?5NPC?5?8?$CFs?8?6?$AA@ 20139ae8     NPC_stats.obj
 0002:0001eafc       ??_C@_05MHMEBBGO@scale?$AA@ 20139afc     NPC_stats.obj
 0002:0001eb04       ??_C@_0BE@DHONKPBF@torsoPitchRangeDown?$AA@ 20139b04     NPC_stats.obj
 0002:0001eb18       ??_C@_0BC@DPJCDCAA@torsoPitchRangeUp?$AA@ 20139b18     NPC_stats.obj
 0002:0001eb2c       ??_C@_0BD@IGLLIEN@torsoYawRangeRight?$AA@ 20139b2c     NPC_stats.obj
 0002:0001eb40       ??_C@_0BC@CDFOHEFJ@torsoYawRangeLeft?$AA@ 20139b40     NPC_stats.obj
 0002:0001eb54       ??_C@_0BD@HPBKLCKG@headPitchRangeDown?$AA@ 20139b54     NPC_stats.obj
 0002:0001eb68       ??_C@_0BB@MLDGOACN@headPitchRangeUp?$AA@ 20139b68     NPC_stats.obj
 0002:0001eb7c       ??_C@_0BC@ENEAEAOK@headYawRangeRight?$AA@ 20139b7c     NPC_stats.obj
 0002:0001eb90       ??_C@_0BP@ODGDBKLE@?$FO3WARNING?3?5bad?5?$CFs?5in?5NPC?5?8?$CFs?8?6?$AA@ 20139b90     NPC_stats.obj
 0002:0001ebb0       ??_C@_0BB@NHPKKGHE@headYawRangeLeft?$AA@ 20139bb0     NPC_stats.obj
 0002:0001ebc4       ??_C@_06PJBLOBOB@surfOn?$AA@ 20139bc4     NPC_stats.obj
 0002:0001ebcc       ??_C@_01IHBHIGKO@?0?$AA@   20139bcc     NPC_stats.obj
 0002:0001ebd0       ??_C@_07OKEAFEJG@surfOff?$AA@ 20139bd0     NPC_stats.obj
 0002:0001ebd8       ??_C@_07PMJAJJIE@jedi_zf?$AA@ 20139bd8     NPC_stats.obj
 0002:0001ebe0       ??_C@_07PGAOLEIO@jedi_tf?$AA@ 20139be0     NPC_stats.obj
 0002:0001ebe8       ??_C@_07BBHHBBPH@jedi_rm?$AA@ 20139be8     NPC_stats.obj
 0002:0001ebf0       ??_C@_08NBFLCGNO@jedi_kdm?$AA@ 20139bf0     NPC_stats.obj
 0002:0001ebfc       ??_C@_07MGDHFB@jedi_hm?$AA@ 20139bfc     NPC_stats.obj
 0002:0001ec04       ??_C@_07ODDCOOJK@jedi_hf?$AA@ 20139c04     NPC_stats.obj
 0002:0001ec0c       ??_C@_07OCDCPGBJ@random1?$AA@ 20139c0c     NPC_stats.obj
 0002:0001ec14       ??_C@_0L@LLOCGLMB@customRGBA?$AA@ 20139c14     NPC_stats.obj
 0002:0001ec20       ??_C@_0CA@DJJNGADE@RANDOM?5NPC?5NOT?5SUPPORTED?5IN?5MP?6?$AA@ 20139c20     NPC_stats.obj
 0002:0001ec40       ??_C@_0CF@DKBCCIFJ@NPC?5extensions?5?$CI?$CK?4npc?$CJ?5are?5too?5l@ 20139c40     NPC_stats.obj
 0002:0001ec68       ??_C@_0BB@FKADAADD@ext_data?1NPCs?1?$CFs?$AA@ 20139c68     NPC_stats.obj
 0002:0001ec7c       ??_C@_0O@DAPCPFOP@ext_data?1NPCs?$AA@ 20139c7c     NPC_stats.obj
 0002:0001ec8c       ??_C@_04IGPEEJID@?4npc?$AA@ 20139c8c     NPC_stats.obj
 0002:0001ec94       ??_C@_0O@DIFBJIL@mutant_rancor?$AA@ 20139c94     NPC_stats.obj
 0002:0001eca8       __real@403c000000000000    20139ca8     NPC_utils.obj
 0002:0001ecb0       __real@3f847ae140000000    20139cb0     NPC_utils.obj
 0002:0001ecb8       ??_C@_0FB@NCABOAHE@WARNING?3?5Tried?5to?5toggle?5NPC?5sur@ 20139cb8     NPC_utils.obj
 0002:0001ed10       __real@40d0000000000000    20139d10     NPC_utils.obj
 0002:0001ed18       __real@3f70624de0000000    20139d18     NPC_utils.obj
 0002:0001ed20       __real@3ef0000000000000    20139d20     q_math.obj
 0002:0001ed28       __real@c066800000000000    20139d28     q_math.obj
 0002:0001ed30       __real@4066c16c16c16c17    20139d30     q_math.obj
 0002:0001ed38       __real@3f91df46a0000000    20139d38     q_math.obj
 0002:0001ed40       __real@3f00000000000000    20139d40     q_math.obj
 0002:0001ed48       ??_C@_0BJ@OLBOPICM@Q_strncpyz?3?5destsize?5?$DM?51?$AA@ 20139d48     q_shared.obj
 0002:0001ed64       ??_C@_0BF@BJHHBLMD@Q_strncpyz?3?5NULL?5src?$AA@ 20139d64     q_shared.obj
 0002:0001ed7c       ??_C@_0BG@EKAPNPCH@Q_strncpyz?3?5NULL?5dest?$AA@ 20139d7c     q_shared.obj
 0002:0001ed94       ??_C@_0BN@EFOOAHFL@Q_strcat?3?5already?5overflowed?$AA@ 20139d94     q_shared.obj
 0002:0001edb4       ??_C@_0CL@PJCCCJHN@Com_sprintf2?3?5overflow?5of?5?$CFi?5byt@ 20139db4     q_shared.obj
 0002:0001ede0       ??_C@_0CO@NIJHFKAJ@Attempted?5to?5overrun?5string?5in?5c@ 20139de0     q_shared.obj
 0002:0001ee10       ??_C@_0CG@FLHABLN@Info_ValueForKey?3?5oversize?5infos@ 20139e10     q_shared.obj
 0002:0001ee38       ??_C@_0CE@HMPLGKDK@Info_RemoveKey?3?5oversize?5infostr@ 20139e38     q_shared.obj
 0002:0001ee5c       ??_C@_0CD@JIDDAEOO@Can?8t?5use?5keys?5or?5values?5with?5a?5@ 20139e5c     q_shared.obj
 0002:0001ee80       ??_C@_0CL@JCFAGLFD@Can?8t?5use?5keys?5or?5values?5with?5a?5@ 20139e80     q_shared.obj
 0002:0001eeac       ??_C@_0CD@MGFMEBLE@Can?8t?5use?5keys?5or?5values?5with?5a?5@ 20139eac     q_shared.obj
 0002:0001eed0       ??_C@_0BN@CAOBGKLE@Info?5string?5length?5exceeded?6?$AA@ 20139ed0     q_shared.obj
 0002:0001eef0       ??_C@_06NELKLDPM@?2?$CFs?2?$CFs?$AA@ 20139ef0     q_shared.obj
 0002:0001eef8       ??_C@_0CJ@CEEBDGNA@Info_SetValueForKey?3?5oversize?5in@ 20139ef8     q_shared.obj
 0002:0001ef28       __real@3eb0c6f7a0b5ed8d    20139f28     tri_coll_test.obj
 0002:0001ef30       _forcePowerMinRank         20139f30     w_force.obj
 0002:0001f050       _mindTrickTime             2013a050     w_force.obj
 0002:0001f060       ??_C@_0N@LFFHBBL@nfr?5?$CFi?5?$CFi?5?$CFi?$AA@ 2013a060     w_force.obj
 0002:0001f070       ??_C@_03LNBAHPKF@spc?$AA@  2013a070     w_force.obj
 0002:0001f074       ??_C@_0CD@GFHJFGGI@forcepowers?27?91?93330030003130031@ 2013a074     w_force.obj
 0002:0001f098       ??_C@_03CEOIHOED@scl?$AA@  2013a098     w_force.obj
 0002:0001f09c       ??_C@_0BN@NJMEAIMF@sound?1player?1nullifyloop?4wav?$AA@ 2013a09c     w_force.obj
 0002:0001f0bc       ??_C@_0CA@OLLKKIBE@sound?1weapons?1force?1seeloop?4wav?$AA@ 2013a0bc     w_force.obj
 0002:0001f0dc       ??_C@_0CE@GDIJAPPN@sound?1weapons?1force?1protectloop?4@ 2013a0dc     w_force.obj
 0002:0001f100       ??_C@_0CD@NBAPFJGI@sound?1weapons?1force?1absorbloop?4w@ 2013a100     w_force.obj
 0002:0001f124       ??_C@_0CB@NODKGJDN@sound?1weapons?1force?1rageloop?4wav@ 2013a124     w_force.obj
 0002:0001f148       ??_C@_0CC@ONCGEBCD@sound?1weapons?1force?1speedloop?4wa@ 2013a148     w_force.obj
 0002:0001f170       __real@3f9999999999999a    2013a170     w_force.obj
 0002:0001f178       ??_C@_0BA@GGBLAFID@force?1heal2?4efx?$AA@ 2013a178     w_force.obj
 0002:0001f188       ??_C@_0BN@KBLLAEBL@sound?1weapons?1force?1heal?4wav?$AA@ 2013a188     w_force.obj
 0002:0001f1a8       ??_C@_0BO@GKODPFDH@sound?1weapons?1force?1lightning?$AA@ 2013a1a8     w_force.obj
 0002:0001f1c8       ??_C@_0CD@IIGOJEPC@sound?1weapons?1force?1lightninghit@ 2013a1c8     w_force.obj
 0002:0001f1ec       ??_C@_0BO@CFEEFGGJ@sound?1weapons?1force?1drain?4wav?$AA@ 2013a1ec     w_force.obj
 0002:0001f20c       ??_C@_0CC@IDPNPIJB@sound?1weapons?1force?1jumpbuild?4wa@ 2013a20c     w_force.obj
 0002:0001f230       __real@441c4000            2013a230     w_force.obj
 0002:0001f234       __real@43848000            2013a234     w_force.obj
 0002:0001f238       ??_C@_0BC@LNMDPJLI@force?1force_touch?$AA@ 2013a238     w_force.obj
 0002:0001f24c       ??_C@_09OICPJII@?$CKgasp?4wav?$AA@ 2013a24c     w_force.obj
 0002:0001f258       ??_C@_0CF@GAOMGDBJ@sound?1weapons?1force?1distractstop@ 2013a258     w_force.obj
 0002:0001f280       __real@4cbebc20            2013a280     w_force.obj
 0002:0001f284       ??_C@_0BN@JIOEMEHN@sound?1weapons?1bryar?1fire?4wav?$AA@ 2013a284     w_force.obj
 0002:0001f2a4       __real@425c0000            2013a2a4     w_force.obj
 0002:0001f2a8       __real@401921fb60000000    2013a2a8     w_force.obj
 0002:0001f2b0       ??_C@_0BM@OAKPMOJG@sound?1weapons?1force?1see?4wav?$AA@ 2013a2b0     w_force.obj
 0002:0001f2cc       ??_C@_0BN@FIMAKGPM@sound?1weapons?1force?1rage?4wav?$AA@ 2013a2cc     w_force.obj
 0002:0001f2ec       ??_C@_0CB@DHCOJIOI@sound?1weapons?1force?1distract?4wav@ 2013a2ec     w_force.obj
 0002:0001f310       ??_C@_04DEPFHLHB@limb?$AA@ 2013a310     w_force.obj
 0002:0001f318       ??_C@_0BN@KLMPLEJJ@sound?1weapons?1force?1pull?4wav?$AA@ 2013a318     w_force.obj
 0002:0001f338       ??_C@_0BN@KBMIBKKI@sound?1weapons?1force?1push?4wav?$AA@ 2013a338     w_force.obj
 0002:0001f358       ??_C@_0CC@JLAJJOPN@sound?1weapons?1saber?1saberspin?4wa@ 2013a358     w_saber.obj
 0002:0001f37c       ??_C@_0L@EAMMMNDF@lookAround?$AA@ 2013a37c     w_saber.obj
 0002:0001f388       __real@42380000            2013a388     w_saber.obj
 0002:0001f390       __real@bfecccccc0000000    2013a390     w_saber.obj
 0002:0001f398       ??_C@_0CF@KPADFJEL@sound?1weapons?1saber?1saberblock?$CFd@ 2013a398     w_saber.obj
 0002:0001f3c0       ??_C@_0CA@CHBAPCJN@sound?1movers?1objects?1saber_slam?$AA@ 2013a3c0     w_saber.obj
 0002:0001f3e0       __real@408a900000000000    2013a3e0     w_saber.obj
 0002:0001f3e8       __real@443b8000            2013a3e8     w_saber.obj
 0002:0001f3ec       __real@44834000            2013a3ec     w_saber.obj
 0002:0001f3f0       __real@42fa0000            2013a3f0     w_saber.obj
 0002:0001f3f4       ??_C@_0DD@IHONBEOP@Unknown?5saberHolstered?5value?5?$CFi?5@ 2013a3f4     w_saber.obj
 0002:0001f428       ??_C@_09FKOLDDBO@deadsaber?$AA@ 2013a428     w_saber.obj
 0002:0001f434       ??_C@_0CE@CFCKGBNH@sound?1weapons?1saber?1saber_catch?4@ 2013a434     w_saber.obj
 0002:0001f458       __real@401a000000000000    2013a458     w_saber.obj
 0002:0001f460       __real@3fd51eb860000000    2013a460     w_saber.obj
 0002:0001f468       __real@40200000            2013a468     w_saber.obj
 0002:0001f46c       __real@41100000            2013a46c     w_saber.obj
 0002:0001f470       __real@3fe570a3c0000000    2013a470     w_saber.obj
 0002:0001f478       __real@42080000            2013a478     w_saber.obj
 0002:0001f47c       __real@bc9374bc            2013a47c     WalkerNPC.obj
 0002:0001f480       __FPinit                   2013a480     LIBCMT:fpinit.obj
 0002:0001f484       __FPmtinit                 2013a484     LIBCMT:fpinit.obj
 0002:0001f488       __FPmtterm                 2013a488     LIBCMT:fpinit.obj
 0002:0001f530       __pRawDllMain              2013a530     LIBCMT:dllcrt0.obj
 0002:0001f530       __pDefaultRawDllMain       2013a530     LIBCMT:dllcrt0.obj
 0002:0001f534       ??_C@_05KLBDPFGC@e?$CL000?$AA@ 2013a534     LIBCMT:cvt.obj
 0002:0001f540       __real@4150017ec0000000    2013a540     LIBCMT:testfdiv.obj
 0002:0001f548       __real@4147ffff80000000    2013a548     LIBCMT:testfdiv.obj
 0002:0001f550       ??_C@_0BK@NHEOCAHP@IsProcessorFeaturePresent?$AA@ 2013a550     LIBCMT:testfdiv.obj
 0002:0001f56c       ??_C@_08CPNIBGIE@KERNEL32?$AA@ 2013a56c     LIBCMT:testfdiv.obj
 0002:0001f588       __DEFAULT_CW_in_mem        2013a588     LIBCMT:common.obj
 0002:0001f58a       __pi_by_2_to_61            2013a58a     LIBCMT:common.obj
 0002:0001f5c4       ??_C@_0O@NLDKAIKN@EncodePointer?$AA@ 2013a5c4     LIBCMT:tidtable.obj
 0002:0001f5d4       ??_C@_0N@NHGLKGEC@KERNEL32?4DLL?$AA@ 2013a5d4     LIBCMT:tidtable.obj
 0002:0001f5e4       ??_C@_0O@KBPMFGHI@DecodePointer?$AA@ 2013a5e4     LIBCMT:tidtable.obj
 0002:0001f5f4       ??_C@_07PEJMOBNF@FlsFree?$AA@ 2013a5f4     LIBCMT:tidtable.obj
 0002:0001f5fc       ??_C@_0M@JCPCPOEF@FlsSetValue?$AA@ 2013a5fc     LIBCMT:tidtable.obj
 0002:0001f608       ??_C@_0M@GDNOONDI@FlsGetValue?$AA@ 2013a608     LIBCMT:tidtable.obj
 0002:0001f614       ??_C@_08KNHFBNJ@FlsAlloc?$AA@ 2013a614     LIBCMT:tidtable.obj
 0002:00020888       ??_C@_03IIINPABG@tan?$AA@  2013b888     LIBCMT:libm_error.obj
 0002:0002088c       ??_C@_03LALBNOCG@cos?$AA@  2013b88c     LIBCMT:libm_error.obj
 0002:00020890       ??_C@_03BLEJJJBH@sin?$AA@  2013b890     LIBCMT:libm_error.obj
 0002:00020894       ??_C@_04EHEDPDJG@modf?$AA@ 2013b894     LIBCMT:libm_error.obj
 0002:0002089c       ??_C@_05PBJFFIGL@floor?$AA@ 2013b89c     LIBCMT:libm_error.obj
 0002:000208a4       ??_C@_04GFPJNGEK@ceil?$AA@ 2013b8a4     LIBCMT:libm_error.obj
 0002:000208ac       ??_C@_04MLLJIGOK@atan?$AA@ 2013b8ac     LIBCMT:libm_error.obj
 0002:000208b4       ??_C@_05EOHGHCHD@exp10?$AA@ 2013b8b4     LIBCMT:libm_error.obj
 0002:000208bc       ??_C@_04PDIFKINK@acos?$AA@ 2013b8bc     LIBCMT:libm_error.obj
 0002:000208c4       ??_C@_04FIHNOPOL@asin?$AA@ 2013b8c4     LIBCMT:libm_error.obj
 0002:000208cc       ??_C@_03MGHMBJCF@log?$AA@  2013b8cc     LIBCMT:libm_error.obj
 0002:000208d0       ??_C@_05HGHHAHAP@log10?$AA@ 2013b8d0     LIBCMT:libm_error.obj
 0002:000208d8       ??_C@_03KHJOGHMM@exp?$AA@  2013b8d8     LIBCMT:libm_error.obj
 0002:000208dc       ??_C@_03JGHBODFD@pow?$AA@  2013b8dc     LIBCMT:libm_error.obj
 0002:000208e0       ??_C@_1O@CEDCILHN@?$AA?$CI?$AAn?$AAu?$AAl?$AAl?$AA?$CJ?$AA?$AA@ 2013b8e0     LIBCMT:output.obj
 0002:000208f0       ??_C@_06OJHGLDPL@?$CInull?$CJ?$AA@ 2013b8f0     LIBCMT:output.obj
 0002:000208f8       ___lookuptable             2013b8f8     LIBCMT:output.obj
 0002:00022180       ??_C@_0P@MIGLKIOC@CorExitProcess?$AA@ 2013d180     LIBCMT:crt0dat.obj
 0002:00022190       ??_C@_0M@MBOPBNBK@mscoree?4dll?$AA@ 2013d190     LIBCMT:crt0dat.obj
 0002:000221a0       ___newctype                2013d1a0     LIBCMT:ctype.obj
 0002:000224a0       __wctype                   2013d4a0     LIBCMT:ctype.obj
 0002:000226a8       ___newclmap                2013d6a8     LIBCMT:ctype.obj
 0002:00022828       ___newcumap                2013d828     LIBCMT:ctype.obj
 0002:000229a8       ??_C@_08JCCMCCIL@HH?3mm?3ss?$AA@ 2013d9a8     LIBCMT:strftime.obj
 0002:000229b4       ??_C@_0BE@CKGJFCPC@dddd?0?5MMMM?5dd?0?5yyyy?$AA@ 2013d9b4     LIBCMT:strftime.obj
 0002:000229c8       ??_C@_08BPBNCDIB@MM?1dd?1yy?$AA@ 2013d9c8     LIBCMT:strftime.obj
 0002:000229d4       ??_C@_02CJNFDJBF@PM?$AA@   2013d9d4     LIBCMT:strftime.obj
 0002:000229d8       ??_C@_02DEDBPAFC@AM?$AA@   2013d9d8     LIBCMT:strftime.obj
 0002:000229dc       ??_C@_08EDHMEBNP@December?$AA@ 2013d9dc     LIBCMT:strftime.obj
 0002:000229e8       ??_C@_08HCHEGEOA@November?$AA@ 2013d9e8     LIBCMT:strftime.obj
 0002:000229f4       ??_C@_07JJNFCEND@October?$AA@ 2013d9f4     LIBCMT:strftime.obj
 0002:000229fc       ??_C@_09BHHEALKD@September?$AA@ 2013d9fc     LIBCMT:strftime.obj
 0002:00022a08       ??_C@_06LBBHFDDG@August?$AA@ 2013da08     LIBCMT:strftime.obj
 0002:00022a10       ??_C@_04MIEPOIFP@July?$AA@ 2013da10     LIBCMT:strftime.obj
 0002:00022a18       ??_C@_04CNLMGBGM@June?$AA@ 2013da18     LIBCMT:strftime.obj
 0002:00022a20       ??_C@_05DMJDNLEJ@April?$AA@ 2013da20     LIBCMT:strftime.obj
 0002:00022a28       ??_C@_05HPCKOFNC@March?$AA@ 2013da28     LIBCMT:strftime.obj
 0002:00022a30       ??_C@_08GNJGEPFN@February?$AA@ 2013da30     LIBCMT:strftime.obj
 0002:00022a3c       ??_C@_07CGJPFGJA@January?$AA@ 2013da3c     LIBCMT:strftime.obj
 0002:00022a44       ??_C@_03MKABNOCG@Dec?$AA@  2013da44     LIBCMT:strftime.obj
 0002:00022a48       ??_C@_03JPJOFNIA@Nov?$AA@  2013da48     LIBCMT:strftime.obj
 0002:00022a4c       ??_C@_03BMAOKBAD@Oct?$AA@  2013da4c     LIBCMT:strftime.obj
 0002:00022a50       ??_C@_03GGCAPAJC@Sep?$AA@  2013da50     LIBCMT:strftime.obj
 0002:00022a54       ??_C@_03IFJFEIGA@Aug?$AA@  2013da54     LIBCMT:strftime.obj
 0002:00022a58       ??_C@_03LBGABGKK@Jul?$AA@  2013da58     LIBCMT:strftime.obj
 0002:00022a5c       ??_C@_03IDFGHECI@Jun?$AA@  2013da5c     LIBCMT:strftime.obj
 0002:00022a60       ??_C@_03CNMDKL@May?$AA@    2013da60     LIBCMT:strftime.obj
 0002:00022a64       ??_C@_03LEOLGMJP@Apr?$AA@  2013da64     LIBCMT:strftime.obj
 0002:00022a68       ??_C@_03ODNJBKGA@Mar?$AA@  2013da68     LIBCMT:strftime.obj
 0002:00022a6c       ??_C@_03HJBDCHOM@Feb?$AA@  2013da6c     LIBCMT:strftime.obj
 0002:00022a70       ??_C@_08INBOOONO@Saturday?$AA@ 2013da70     LIBCMT:strftime.obj
 0002:00022a7c       ??_C@_06JECMNKMI@Friday?$AA@ 2013da7c     LIBCMT:strftime.obj
 0002:00022a84       ??_C@_08HACCIKIA@Thursday?$AA@ 2013da84     LIBCMT:strftime.obj
 0002:00022a90       ??_C@_09DLIGFAKA@Wednesday?$AA@ 2013da90     LIBCMT:strftime.obj
 0002:00022a9c       ??_C@_07BAAGCFCM@Tuesday?$AA@ 2013da9c     LIBCMT:strftime.obj
 0002:00022aa4       ??_C@_06JLEDEDGH@Monday?$AA@ 2013daa4     LIBCMT:strftime.obj
 0002:00022aac       ??_C@_06OOPIFAJ@Sunday?$AA@ 2013daac     LIBCMT:strftime.obj
 0002:00022ab4       ??_C@_03FEFJNEK@Sat?$AA@   2013dab4     LIBCMT:strftime.obj
 0002:00022ab8       ??_C@_03IDIOELNC@Fri?$AA@  2013dab8     LIBCMT:strftime.obj
 0002:00022abc       ??_C@_03IOFIKPDN@Thu?$AA@  2013dabc     LIBCMT:strftime.obj
 0002:00022ac0       ??_C@_03MHOMLAJA@Wed?$AA@  2013dac0     LIBCMT:strftime.obj
 0002:00022ac4       ??_C@_03NAGEINEP@Tue?$AA@  2013dac4     LIBCMT:strftime.obj
 0002:00022ac8       ??_C@_03PDAGKDH@Mon?$AA@   2013dac8     LIBCMT:strftime.obj
 0002:00022acc       ??_C@_03KOEHGMDN@Sun?$AA@  2013dacc     LIBCMT:strftime.obj
 0002:00022ad0       ??_C@_0L@KDOEJCKC@_nextafter?$AA@ 2013dad0     LIBCMT:fpexcept.obj
 0002:00022adc       ??_C@_05JGDBENOH@_logb?$AA@ 2013dadc     LIBCMT:fpexcept.obj
 0002:00022ae4       ??_C@_03ONILCKOB@_yn?$AA@  2013dae4     LIBCMT:fpexcept.obj
 0002:00022ae8       ??_C@_03NAKIGLHK@_y1?$AA@  2013dae8     LIBCMT:fpexcept.obj
 0002:00022aec       ??_C@_03MJLDFKDL@_y0?$AA@  2013daec     LIBCMT:fpexcept.obj
 0002:00022af0       ??_C@_05GKKHEGJL@frexp?$AA@ 2013daf0     LIBCMT:fpexcept.obj
 0002:00022af8       ??_C@_04KEPJIHGP@fmod?$AA@ 2013daf8     LIBCMT:fpexcept.obj
 0002:00022b00       ??_C@_06MEIMCGCF@_hypot?$AA@ 2013db00     LIBCMT:fpexcept.obj
 0002:00022b08       ??_C@_05KBKMEMPO@_cabs?$AA@ 2013db08     LIBCMT:fpexcept.obj
 0002:00022b10       ??_C@_05CEJMAHNP@ldexp?$AA@ 2013db10     LIBCMT:fpexcept.obj
 0002:00022b18       ??_C@_04ODHECPBC@fabs?$AA@ 2013db18     LIBCMT:fpexcept.obj
 0002:00022b20       ??_C@_04EIAKFFMI@sqrt?$AA@ 2013db20     LIBCMT:fpexcept.obj
 0002:00022b28       ??_C@_05KNGEOGJB@atan2?$AA@ 2013db28     LIBCMT:fpexcept.obj
 0002:00022b30       ??_C@_04FJHINJAO@tanh?$AA@ 2013db30     LIBCMT:fpexcept.obj
 0002:00022b38       ??_C@_04HPJJNFIM@cosh?$AA@ 2013db38     LIBCMT:fpexcept.obj
 0002:00022b40       ??_C@_04COOMCNPB@sinh?$AA@ 2013db40     LIBCMT:fpexcept.obj
 0002:00022b48       ___lookuptable_s           2013db48     LIBCMT:outputs.obj
 0002:00022ba4       ??_C@_0P@GGKDKEEG@runtime?5error?5?$AA@ 2013dba4     LIBCMT:crt0msg.obj
 0002:00022bb4       ??_C@_02PCIJFNDE@?$AN?6?$AA@ 2013dbb4     LIBCMT:crt0msg.obj
 0002:00022bb8       ??_C@_0O@MJNIPGOH@TLOSS?5error?$AN?6?$AA@ 2013dbb8     LIBCMT:crt0msg.obj
 0002:00022bc8       ??_C@_0N@BONNPDHF@SING?5error?$AN?6?$AA@ 2013dbc8     LIBCMT:crt0msg.obj
 0002:00022bd8       ??_C@_0P@MBDAJNE@DOMAIN?5error?$AN?6?$AA@ 2013dbd8     LIBCMT:crt0msg.obj
 0002:00022be8       ??_C@_0JL@DFDOOABL@R6034?$AN?6An?5application?5has?5made?5a@ 2013dbe8     LIBCMT:crt0msg.obj
 0002:00022c88       ??_C@_0PH@EPAFIJ@R6033?$AN?6?9?5Attempt?5to?5use?5MSIL?5cod@ 2013dc88     LIBCMT:crt0msg.obj
 0002:00022d80       ??_C@_0DD@BKEEABMM@R6032?$AN?6?9?5not?5enough?5space?5for?5lo@ 2013dd80     LIBCMT:crt0msg.obj
 0002:00022db8       ??_C@_0GD@OFKILIED@R6031?$AN?6?9?5Attempt?5to?5initialize?5t@ 2013ddb8     LIBCMT:crt0msg.obj
 0002:00022e1c       ??_C@_0BP@LPMHJOKI@R6030?$AN?6?9?5CRT?5not?5initialized?$AN?6?$AA@ 2013de1c     LIBCMT:crt0msg.obj
 0002:00022e3c       ??_C@_0CF@KJDAIALP@R6028?$AN?6?9?5unable?5to?5initialize?5he@ 2013de3c     LIBCMT:crt0msg.obj
 0002:00022e64       ??_C@_0DF@GAKBPDFP@R6027?$AN?6?9?5not?5enough?5space?5for?5lo@ 2013de64     LIBCMT:crt0msg.obj
 0002:00022e9c       ??_C@_0DF@IBLNNAIG@R6026?$AN?6?9?5not?5enough?5space?5for?5st@ 2013de9c     LIBCMT:crt0msg.obj
 0002:00022ed4       ??_C@_0CG@IOHKGFNJ@R6025?$AN?6?9?5pure?5virtual?5function?5c@ 2013ded4     LIBCMT:crt0msg.obj
 0002:00022efc       ??_C@_0DF@JIJJFJDC@R6024?$AN?6?9?5not?5enough?5space?5for?5_o@ 2013defc     LIBCMT:crt0msg.obj
 0002:00022f34       ??_C@_0CJ@EGEJHFME@R6019?$AN?6?9?5unable?5to?5open?5console?5@ 2013df34     LIBCMT:crt0msg.obj
 0002:00022f60       ??_C@_0CB@GNHNIELH@R6018?$AN?6?9?5unexpected?5heap?5error?$AN?6@ 2013df60     LIBCMT:crt0msg.obj
 0002:00022f84       ??_C@_0CN@FOLDKNG@R6017?$AN?6?9?5unexpected?5multithread?5@ 2013df84     LIBCMT:crt0msg.obj
 0002:00022fb4       ??_C@_0CM@FAHFJNHO@R6016?$AN?6?9?5not?5enough?5space?5for?5th@ 2013dfb4     LIBCMT:crt0msg.obj
 0002:00022fe0       ??_C@_0JG@LBKMGKLD@?$AN?6This?5application?5has?5requested@ 2013dfe0     LIBCMT:crt0msg.obj
 0002:00023078       ??_C@_0CM@FLCNIPKK@R6009?$AN?6?9?5not?5enough?5space?5for?5en@ 2013e078     LIBCMT:crt0msg.obj
 0002:000230a4       ??_C@_0CK@KMMJOAPP@R6008?$AN?6?9?5not?5enough?5space?5for?5ar@ 2013e0a4     LIBCMT:crt0msg.obj
 0002:000230d0       ??_C@_0CF@HOHMHDEK@R6002?$AN?6?9?5floating?5point?5not?5load@ 2013e0d0     LIBCMT:crt0msg.obj
 0002:000230f8       ??_C@_0CF@GOGNBNAK@Microsoft?5Visual?5C?$CL?$CL?5Runtime?5Lib@ 2013e0f8     LIBCMT:crt0msg.obj
 0002:00023120       ??_C@_02PHMGELLB@?6?6?$AA@ 2013e120     LIBCMT:crt0msg.obj
 0002:00023124       ??_C@_03KHICJKCI@?4?4?4?$AA@ 2013e124     LIBCMT:crt0msg.obj
 0002:00023128       ??_C@_0BH@DNAGHKFM@?$DMprogram?5name?5unknown?$DO?$AA@ 2013e128     LIBCMT:crt0msg.obj
 0002:00023140       ??_C@_0BK@OFGJDLJJ@Runtime?5Error?$CB?6?6Program?3?5?$AA@ 2013e140     LIBCMT:crt0msg.obj
 0002:0002315c       ??_C@_0CG@PKBDLMEO@InitializeCriticalSectionAndSpin@ 2013e15c     LIBCMT:initcrit.obj
 0002:00023184       ??_C@_0N@MDJJJHMB@kernel32?4dll?$AA@ 2013e184     LIBCMT:initcrit.obj
 0002:00023194       ??_C@_06IMKFLFPG@1?$CDQNAN?$AA@ 2013e194     LIBCMT:x10fout.obj
 0002:0002319c       ??_C@_05DNEBIAHO@1?$CDINF?$AA@ 2013e19c     LIBCMT:x10fout.obj
 0002:000231a4       ??_C@_05PHHOCPM@1?$CDIND?$AA@ 2013e1a4     LIBCMT:x10fout.obj
 0002:000231ac       ??_C@_06PGGFOGJG@1?$CDSNAN?$AA@ 2013e1ac     LIBCMT:x10fout.obj
 0002:000231bc       ___dnames                  2013e1bc     LIBCMT:timeset.obj
 0002:000231d4       ___mnames                  2013e1d4     LIBCMT:timeset.obj
 0002:000231fc       ??_C@_0BI@DFKBFLJE@GetProcessWindowStation?$AA@ 2013e1fc     LIBCMT:crtmbox.obj
 0002:00023214       ??_C@_0BK@CIDNPOGP@GetUserObjectInformationA?$AA@ 2013e214     LIBCMT:crtmbox.obj
 0002:00023230       ??_C@_0BD@HHGDFDBJ@GetLastActivePopup?$AA@ 2013e230     LIBCMT:crtmbox.obj
 0002:00023244       ??_C@_0BA@HNOPNCHB@GetActiveWindow?$AA@ 2013e244     LIBCMT:crtmbox.obj
 0002:00023254       ??_C@_0M@CHKKJDAI@MessageBoxA?$AA@ 2013e254     LIBCMT:crtmbox.obj
 0002:00023260       ??_C@_0L@NDEGIDAG@USER32?4DLL?$AA@ 2013e260     LIBCMT:crtmbox.obj
 0002:0002326c       ??_C@_07GPDNMNG@CONOUT$?$AA@ 2013e26c     LIBCMT:initcon.obj
 0002:00023278       __load_config_used         2013e278     LIBCMT:loadcfg.obj
 0002:000232c0       ___safe_se_handler_table   2013e2c0     <linker-defined>
 0002:000232cc       ___rtc_iaa                 2013e2cc     LIBCMT:initsect.obj
 0002:000232d0       ___rtc_izz                 2013e2d0     LIBCMT:initsect.obj
 0002:000232d4       ___rtc_taa                 2013e2d4     LIBCMT:initsect.obj
 0002:000232d8       ___rtc_tzz                 2013e2d8     LIBCMT:initsect.obj
 0002:000236ac       __IMPORT_DESCRIPTOR_KERNEL32 2013e6ac     kernel32:KERNEL32.dll
 0002:000236c0       __IMPORT_DESCRIPTOR_USER32 2013e6c0     user32:USER32.dll
 0002:000236d4       __NULL_IMPORT_DESCRIPTOR   2013e6d4     kernel32:KERNEL32.dll
 0003:00000000       _ctfStateNames             2013f000     ai_main.obj
 0003:0000001c       _ctfStateDescriptions      2013f01c     ai_main.obj
 0003:00000034       _siegeStateDescriptions    2013f034     ai_main.obj
 0003:00000040       _teamplayStateDescriptions 2013f040     ai_main.obj
 0003:00000050       _MinimumAttackDistance     2013f050     ai_tab.obj
 0003:000000a0       _MaximumAttackDistance     2013f0a0     ai_tab.obj
 0003:000000f0       _IdealAttackDistance       2013f0f0     ai_tab.obj
 0003:0000013c       _ForcePowerforJump         2013f13c     ai_tab.obj
 0003:0000014c       _OrderNames                2013f14c     ai_tab.obj
 0003:00000170       _gLastPrintedIndex         2013f170     ai_wpnav.obj
 0003:00000178       _botGlobalNavWeaponWeights 2013f178     ai_wpnav.obj
 0003:000001c8       _bgToggleableSurfaces      2013f1c8     bg_misc.obj
 0003:00000244       _bg_numItems               2013f244     bg_misc.obj
 0003:00000248       _bg_customSiegeSoundNames  2013f248     bg_misc.obj
 0003:000002c0       _forceMasteryLevels        2013f2c0     bg_misc.obj
 0003:000002e0       _forceMasteryPoints        2013f2e0     bg_misc.obj
 0003:00000300       _bgForcePowerCost          2013f300     bg_misc.obj
 0003:00000420       _forcePowerSorted          2013f420     bg_misc.obj
 0003:00000468       _forcePowerDarkLight       2013f468     bg_misc.obj
 0003:000004b0       _WeaponReadyAnim           2013f4b0     bg_misc.obj
 0003:00000500       _WeaponReadyLegsAnim       2013f500     bg_misc.obj
 0003:00000550       _WeaponAttackAnim          2013f550     bg_misc.obj
 0003:000005a0       _bg_itemlist               2013f5a0     bg_misc.obj
 0003:00001100       _eventnames                20140100     bg_misc.obj
 0003:000012d8       _animTable                 201402d8     bg_panimate.obj
 0003:00004318       _bgNumAllAnims             20143318     bg_panimate.obj
 0003:00004320       _pm_stopspeed              20143320     bg_pmove.obj
 0003:00004324       _pm_duckScale              20143324     bg_pmove.obj
 0003:00004328       _pm_swimScale              20143328     bg_pmove.obj
 0003:0000432c       _pm_wadeScale              2014332c     bg_pmove.obj
 0003:00004330       _pm_vehicleaccelerate      20143330     bg_pmove.obj
 0003:00004334       _pm_accelerate             20143334     bg_pmove.obj
 0003:00004338       _pm_airaccelerate          20143338     bg_pmove.obj
 0003:0000433c       _pm_wateraccelerate        2014333c     bg_pmove.obj
 0003:00004340       _pm_flyaccelerate          20143340     bg_pmove.obj
 0003:00004344       _pm_friction               20143344     bg_pmove.obj
 0003:00004348       _pm_waterfriction          20143348     bg_pmove.obj
 0003:0000434c       _pm_flightfriction         2014334c     bg_pmove.obj
 0003:00004350       _pm_spectatorfriction      20143350     bg_pmove.obj
 0003:00004354       _forceSpeedLevels          20143354     bg_pmove.obj
 0003:00004370       _forcePowerNeeded          20143370     bg_pmove.obj
 0003:00004490       _forceJumpHeight           20143490     bg_pmove.obj
 0003:000044a0       _forceJumpStrength         201434a0     bg_pmove.obj
 0003:000044b0       _forceJumpHeightMax        201434b0     bg_pmove.obj
 0003:000044f0       _saberMoveData             201434f0     bg_saber.obj
 0003:00005e40       _transitionMove            20144e40     bg_saber.obj
 0003:00005f40       _saberMoveTransitionAngle  20144f40     bg_saber.obj
 0003:00006040       _bg_parryDebounce          20145040     bg_saber.obj
 0003:00006050       _SaberTable                20145050     bg_saberLoad.obj
 0003:000060b8       _SaberMoveTable            201450b8     bg_saberLoad.obj
 0003:00006298       _bgSiegeClassFlagNames     20145298     bg_saga.obj
 0003:000062e0       _StanceTable               201452e0     bg_saga.obj
 0003:00006328       _WPTable                   20145328     bg_saga.obj
 0003:000063d8       _FPTable                   201453d8     bg_saga.obj
 0003:00006470       _HoldableTable             20145470     bg_saga.obj
 0003:000064d8       _PowerupTable              201454d8     bg_saga.obj
 0003:00006560       _classTitles               20145560     bg_saga.obj
 0003:00006578       _numVehicleWeapons         20145578     bg_vehicleLoad.obj
 0003:00006580       _vehWeaponFields           20145580     bg_vehicleLoad.obj
 0003:000066b0       _vehicleFields             201456b0     bg_vehicleLoad.obj
 0003:00006f74       _VehicleTable              20145f74     bg_vehicleLoad.obj
 0003:00006fb0       _WP_MuzzlePoint            20145fb0     bg_weapons.obj
 0003:00007098       _weaponData                20146098     bg_weapons.obj
 0003:00007558       _ammoData                  20146558     bg_weapons.obj
 0003:00007680       _AmmoTable                 20146680     bg_weaponsdat.obj
 0003:00007a40       _modNames                  20146a40     g_combat.obj
 0003:00007af4       _gPainHitLoc               20146af4     g_combat.obj
 0003:00007af8       _hitLocName                20146af8     g_combat.obj
 0003:00007b58       _setTable                  20146b58     g_ICARUScb.obj
 0003:000082a8       _DMSTable                  201472a8     g_ICARUScb.obj
 0003:000082e8       _weaponFromMOD             201472e8     g_log.obj
 0003:000083a0       _weaponNameFromIndex       201473a0     g_log.obj
 0003:000095cc       _BMS_MID                   201485cc     g_mover.obj
 0003:000095d0       _BMS_END                   201485d0     g_mover.obj
 0003:000095d4       _gSiegeBeginTime           201485d4     g_saga.obj
 0003:000095d8       _fields                    201485d8     g_spawn.obj
 0003:00009b38       _spawns                    20148b38     g_spawn.obj
 0003:0000a508       _NPCDEBUG_RED              20149508     NPC.obj
 0003:0000a514       _NPCDEBUG_GREEN            20149514     NPC.obj
 0003:0000a520       _NPCDEBUG_BLUE             20149520     NPC.obj
 0003:0000a52c       _NPCDEBUG_LIGHT_BLUE       2014952c     NPC.obj
 0003:0000a550       _TeamTable                 20149550     NPC_stats.obj
 0003:0000a578       _ClassTable                20149578     NPC_stats.obj
 0003:0000a780       _BSTable                   20149780     NPC_stats.obj
 0003:0000a7d8       _BSETTable                 201497d8     NPC_stats.obj
 0003:0000a870       _TeamNames                 20149870     NPC_stats.obj
 0003:0000a880       _ClassNames                20149880     NPC_stats.obj
 0003:0000a988       _axisDefault               20149988     q_math.obj
 0003:0000a9ac       _colorBlack                201499ac     q_math.obj
 0003:0000a9bc       _colorRed                  201499bc     q_math.obj
 0003:0000a9cc       _colorGreen                201499cc     q_math.obj
 0003:0000a9dc       _colorBlue                 201499dc     q_math.obj
 0003:0000a9ec       _colorYellow               201499ec     q_math.obj
 0003:0000a9fc       _colorMagenta              201499fc     q_math.obj
 0003:0000aa0c       _colorCyan                 20149a0c     q_math.obj
 0003:0000aa1c       _colorWhite                20149a1c     q_math.obj
 0003:0000aa2c       _colorLtGrey               20149a2c     q_math.obj
 0003:0000aa3c       _colorMdGrey               20149a3c     q_math.obj
 0003:0000aa4c       _colorDkGrey               20149a4c     q_math.obj
 0003:0000aa5c       _colorLtBlue               20149a5c     q_math.obj
 0003:0000aa6c       _colorDkBlue               20149a6c     q_math.obj
 0003:0000aa80       _g_color_table             20149a80     q_math.obj
 0003:0000ab00       _bytedirs                  20149b00     q_math.obj
 0003:0000b298       _forcePushPullRadius       2014a298     w_force.obj
 0003:0000b2b0       __fltused                  2014a2b0     LIBCMT:fpinit.obj
 0003:0000b2b4       __ldused                   2014a2b4     LIBCMT:fpinit.obj
 0003:0000b300       __OP_FMODjmptab            2014a300     LIBCMT:87fmod.obj
 0003:0000b350       __cfltcvt_tab              2014a350     LIBCMT:cmiscdat.obj
 0003:0000b380       __indefinite               2014a380     LIBCMT:87disp.obj
 0003:0000b38a       __piby2                    2014a38a     LIBCMT:87disp.obj
 0003:0000b3b0       ___flsindex                2014a3b0     LIBCMT:tidtable.obj
 0003:0000b3b4       ___getvalueindex           2014a3b4     LIBCMT:tidtable.obj
 0003:0000b3b8       ___initialmbcinfo          2014a3b8     LIBCMT:mbctype.obj
 0003:0000b5d8       __mbctype                  2014a5d8     LIBCMT:mbctype.obj
 0003:0000b6e0       __mbcasemap                2014a6e0     LIBCMT:mbctype.obj
 0003:0000b7e0       ___ptmbcinfo               2014a7e0     LIBCMT:mbctype.obj
 0003:0000b8dc       ___globallocalestatus      2014a8dc     LIBCMT:glstatus.obj
 0003:0000b8e0       ___clocalestr              2014a8e0     LIBCMT:nlsdata2.obj
 0003:0000b8e8       ___initiallocinfo          2014a8e8     LIBCMT:nlsdata2.obj
 0003:0000b9c0       ___ptlocinfo               2014a9c0     LIBCMT:nlsdata2.obj
 0003:0000b9c4       ___lc_clike                2014a9c4     LIBCMT:nlsdata2.obj
 0003:0000b9c8       ___initiallocalestructinfo 2014a9c8     LIBCMT:nlsdata2.obj
 0003:0000bb40       __OP_ATAN2jmptab           2014ab40     LIBCMT:87triga.obj
 0003:0000bb98       ___nullstring              2014ab98     LIBCMT:output.obj
 0003:0000bb9c       ___wnullstring             2014ab9c     LIBCMT:output.obj
 0003:0000bd00       __aexit_rtn                2014ad00     LIBCMT:crt0dat.obj
 0003:0000bd04       ___badioinfo               2014ad04     LIBCMT:ioinit.obj
 0003:0000bd2c       __amblksiz                 2014ad2c     LIBCMT:heapinit.obj
 0003:0000bd30       __XcptActTab               2014ad30     LIBCMT:winxfltr.obj
 0003:0000bda8       __First_FPE_Indx           2014ada8     LIBCMT:winxfltr.obj
 0003:0000bdac       __Num_FPE                  2014adac     LIBCMT:winxfltr.obj
 0003:0000bdb0       __XcptActTabSize           2014adb0     LIBCMT:winxfltr.obj
 0003:0000bdb4       __XcptActTabCount          2014adb4     LIBCMT:winxfltr.obj
 0003:0000bdb8       ___security_cookie         2014adb8     LIBCMT:gs_cookie.obj
 0003:0000bdbc       ___security_cookie_complement 2014adbc     LIBCMT:gs_cookie.obj
 0003:0000bee0       __pctype                   2014aee0     LIBCMT:ctype.obj
 0003:0000bee4       __pwctype                  2014aee4     LIBCMT:ctype.obj
 0003:0000bee8       ___lc_time_c               2014aee8     LIBCMT:strftime.obj
 0003:0000bfa0       ___lc_time_curr            2014afa0     LIBCMT:strftime.obj
 0003:0000bfa4       ___lconv_static_decimal    2014afa4     LIBCMT:lconv.obj
 0003:0000bfa8       ___lconv_c                 2014afa8     LIBCMT:lconv.obj
 0003:0000bfd8       ___lconv                   2014afd8     LIBCMT:lconv.obj
 0003:0000bfdc       ___mb_cur_max              2014afdc     LIBCMT:nlsdata1.obj
 0003:0000bfe0       ___decimal_point           2014afe0     LIBCMT:nlsdata1.obj
 0003:0000bfe4       ___decimal_point_length    2014afe4     LIBCMT:nlsdata1.obj
 0003:0000c020       __pow10pos                 2014b020     LIBCMT:constpow.obj
 0003:0000c180       __pow10neg                 2014b180     LIBCMT:constpow.obj
 0003:0000c2dc       __matherr_flag             2014b2dc     LIBCMT:matherr.obj
 0003:0000c3c8       __d_inf                    2014b3c8     LIBCMT:util.obj
 0003:0000c3d0       __d_ind                    2014b3d0     LIBCMT:util.obj
 0003:0000c3d8       __d_max                    2014b3d8     LIBCMT:util.obj
 0003:0000c3e0       __d_min                    2014b3e0     LIBCMT:util.obj
 0003:0000c3e8       __d_mzero                  2014b3e8     LIBCMT:util.obj
 0003:0000c410       __iob                      2014b410     LIBCMT:_file.obj
 0003:0000c748       __timezone                 2014b748     LIBCMT:timeset.obj
 0003:0000c74c       __daylight                 2014b74c     LIBCMT:timeset.obj
 0003:0000c750       __dstbias                  2014b750     LIBCMT:timeset.obj
 0003:0000c7d8       __tzname                   2014b7d8     LIBCMT:timeset.obj
 0003:0000c7f8       __lpdays                   2014b7f8     LIBCMT:days.obj
 0003:0000c82c       __days                     2014b82c     LIBCMT:days.obj
 0003:0000c860       __lookuptrailbytes         2014b860     LIBCMT:read.obj
 0003:0000c964       ___abort_behavior          2014b964     LIBCMT:abort.obj
 0003:0000c968       __NLG_Destination          2014b968     LIBCMT:exsup.obj
 0003:0000c980       __coninpfh                 2014b980     LIBCMT:initcon.obj
 0003:0000c984       __confh                    2014b984     LIBCMT:initcon.obj
 0003:0000c9b0       _gUpdateVars               2014b9b0     ai_main.obj
 0003:0000c9bc       _gWPRenderTime             2014b9bc     ai_wpnav.obj
 0003:0000c9c0       _gDeactivated              2014b9c0     ai_wpnav.obj
 0003:0000c9c4       _gBotEdit                  2014b9c4     ai_wpnav.obj
 0003:0000c9c8       _gWPRenderedFrame          2014b9c8     ai_wpnav.obj
 0003:0000c9cc       _gWPNum                    2014b9cc     ai_wpnav.obj
 0003:0000c9d0       _gLevelFlags               2014b9d0     ai_wpnav.obj
 0003:0000c9d4       _gSpawnPointNum            2014b9d4     ai_wpnav.obj
 0003:0000c9e0       _holocrons_loaded          2014b9e0     aotctc_holocron.obj
 0003:0000c9e4       _number_of_holocronpositions 2014b9e4     aotctc_holocron.obj
 0003:002e90bc       _BGPAFtextLoaded           204280bc     bg_panimate.obj
 0003:002e917c       _pm_entSelf                2042817c     bg_pmove.obj
 0003:002e9180       _pm_entVeh                 20428180     bg_pmove.obj
 0003:002e9184       _gPMDoSlowFall             20428184     bg_pmove.obj
 0003:002e9188       _pm_cancelOutZoom          20428188     bg_pmove.obj
 0003:002e918c       _c_pmove                   2042818c     bg_pmove.obj
 0003:003e91b0       _siege_valid               205281b0     bg_saga.obj
 0003:003e91b4       _team1Theme                205281b4     bg_saga.obj
 0003:003e91b8       _team2Theme                205281b8     bg_saga.obj
 0003:003e91bc       _bgNumSiegeClasses         205281bc     bg_saga.obj
 0003:003e91c0       _bgNumSiegeTeams           205281c0     bg_saga.obj
 0003:003e91cc       _numVehicles               205281cc     bg_vehicleLoad.obj
 0003:003eb268       _in_camera                 2052a268     g_camera.obj
 0003:003eb270       _client_camera             2052a270     g_camera.obj
 0003:003eb890       _gJMSaberEnt               2052a890     g_client.obj
 0003:003eb894       _g2SaberInstance           2052a894     g_client.obj
 0003:003eb898       _WinterGear                2052a898     g_client.obj
 0003:003ebca8       _g_dontPenalizeTeam        2052aca8     g_cmds.obj
 0003:003ebcac       _g_preventTeamBegin        2052acac     g_cmds.obj
 0003:003ebcbc       _gGAvoidDismember          2052acbc     g_combat.obj
 0003:003ebcc0       _gPainMOD                  2052acc0     g_combat.obj
 0003:003ebccc       _imagehlp                  2052accc     g_crash.obj
 0003:003ebcd0       _pfnSymInitialize          2052acd0     g_crash.obj
 0003:003ebcd4       _pfnSymCleanup             2052acd4     g_crash.obj
 0003:003ebcd8       _pfnSymGetModuleBase       2052acd8     g_crash.obj
 0003:003ebcdc       _pfnStackWalk              2052acdc     g_crash.obj
 0003:003ebce0       _pfnSymGetSymFromAddr      2052ace0     g_crash.obj
 0003:003ebce4       _pfnSymEnumerateModules    2052ace4     g_crash.obj
 0003:003ebce8       _pfnSymFunctionTableAccess 2052ace8     g_crash.obj
 0003:003ebcf8       _skippingCutscene          2052acf8     g_ICARUScb.obj
 0003:003ebcfc       _player_locked             2052acfc     g_ICARUScb.obj
 0003:003ebd00       _inGameCinematic           2052ad00     g_ICARUScb.obj
 0003:003ebd04       _numDeclaredVariables      2052ad04     g_ICARUScb.obj
 0003:003ebd08       _DeclaredVariables         2052ad08     g_ICARUScb.obj
 0003:0040c1b0       _eventClearTime            2054b1b0     g_main.obj
 0003:0040c1b8       _killPlayerTimer           2054b1b8     g_main.obj
 0003:0040c1bc       _gDuelExit                 2054b1bc     g_main.obj
 0003:0040c1c0       _g_duelAssigning           2054b1c0     g_main.obj
 0003:0040c1c4       _g_dontFrickinCheck        2054b1c4     g_main.obj
 0003:0040c1c8       _gQueueScoreMessage        2054b1c8     g_main.obj
 0003:0040c1cc       _gQueueScoreMessageTime    2054b1cc     g_main.obj
 0003:0040c1d0       _g_noPDuelCheck            2054b1d0     g_main.obj
 0003:0040c1d4       _gDidDuelStuff             2054b1d4     g_main.obj
 0003:0040c1d8       _g_endPDuel                2054b1d8     g_main.obj
 0003:0040c1dc       _g_duelPrintTimer          2054b1dc     g_main.obj
 0003:0040c1e0       _g_LastFrameTime           2054b1e0     g_main.obj
 0003:0040c1e4       _g_TimeSinceLastFrame      2054b1e4     g_main.obj
 0003:0040c1e8       _gDoSlowMoDuel             2054b1e8     g_main.obj
 0003:0040c1ec       _gSlowMoDuelTime           2054b1ec     g_main.obj
 0003:0040c1f0       _g_siegeRespawnCheck       2054b1f0     g_main.obj
 0003:0047f410       _gEscaping                 205be410     g_misc.obj
 0003:0047f414       _gEscapeTime               205be414     g_misc.obj
 0003:0047f41c       _GoodieKeys                205be41c     g_misc.obj
 0003:0047f430       _BMS_START                 205be430     g_mover.obj
 0003:004a7c40       _navCalculatePaths         205e6c40     g_nav.obj
 0003:004a7c44       _NAVDEBUG_showNodes        205e6c44     g_nav.obj
 0003:004a7c48       _NAVDEBUG_showRadius       205e6c48     g_nav.obj
 0003:004a7c4c       _NAVDEBUG_showEdges        205e6c4c     g_nav.obj
 0003:004a7c50       _NAVDEBUG_showTestPath     205e6c50     g_nav.obj
 0003:004a7c54       _NAVDEBUG_showEnemyPath    205e6c54     g_nav.obj
 0003:004a7c58       _NAVDEBUG_showCombatPoints 205e6c58     g_nav.obj
 0003:004a7c5c       _NAVDEBUG_showNavGoals     205e6c5c     g_nav.obj
 0003:004a7c60       _NAVDEBUG_showCollision    205e6c60     g_nav.obj
 0003:004a7c64       _NAVDEBUG_curGoal          205e6c64     g_nav.obj
 0003:004a7c74       _num_roffs                 205e6c74     g_roff.obj
 0003:004a7c78       _g_bCollidableRoffs        205e6c78     g_roff.obj
 0003:004ac088       _g_siegePersistant         205eb088     g_saga.obj
 0003:004ac094       _imperial_goals_required   205eb094     g_saga.obj
 0003:004ac098       _imperial_goals_completed  205eb098     g_saga.obj
 0003:004ac09c       _rebel_goals_required      205eb09c     g_saga.obj
 0003:004ac0a0       _rebel_goals_completed     205eb0a0     g_saga.obj
 0003:004ac0a4       _imperial_time_limit       205eb0a4     g_saga.obj
 0003:004ac0a8       _rebel_time_limit          205eb0a8     g_saga.obj
 0003:004ac0ac       _gImperialCountdown        205eb0ac     g_saga.obj
 0003:004ac0b0       _gRebelCountdown           205eb0b0     g_saga.obj
 0003:004ac0b4       _rebel_attackers           205eb0b4     g_saga.obj
 0003:004ac0b8       _imperial_attackers        205eb0b8     g_saga.obj
 0003:004ac0bc       _gSiegeRoundBegun          205eb0bc     g_saga.obj
 0003:004ac0c0       _gSiegeRoundEnded          205eb0c0     g_saga.obj
 0003:004ac0c4       _gSiegeRoundWinningTeam    205eb0c4     g_saga.obj
 0003:004ac0c8       _g_preroundState           205eb0c8     g_saga.obj
 0003:004ac0d4       _precachedKyle             205eb0d4     g_spawn.obj
 0003:004ae0f0       _numNewICARUSEnts          205ed0f0     g_target.obj
 0003:004cbea8       _remapCount                2060aea8     g_utils.obj
 0003:004cbeb0       _gG2KillNum                2060aeb0     g_utils.obj
 0003:004cd0dc       _enemyDist                 2060c0dc     NPC_AI_Wampa.obj
 0003:004cd0ec       _showBBoxes                2060c0ec     NPC_spawn.obj
 0003:004cd134       _vec3_origin               2060c134     q_math.obj
 0003:004cd140       _colorClear                2060c140     q_math.obj
 0003:004e3770       _speedLoopSound            20622770     w_force.obj
 0003:004e3774       _rageLoopSound             20622774     w_force.obj
 0003:004e3778       _protectLoopSound          20622778     w_force.obj
 0003:004e377c       _absorbLoopSound           2062277c     w_force.obj
 0003:004e3780       _seeLoopSound              20622780     w_force.obj
 0003:004e3784       _ysalamiriLoopSound        20622784     w_force.obj
 0003:004e3cec       _saberSpinSound            20622cec     w_saber.obj
 0003:004e3d18       ___fastflag                20622d18     LIBCMT:fpinit.obj
 0003:004e3d1c       __adjust_fdiv              20622d1c     LIBCMT:fpinit.obj
 0003:004e3d24       __aenvptr                  20622d24     LIBCMT:dllcrt0.obj
 0003:004e3d28       __wenvptr                  20622d28     LIBCMT:dllcrt0.obj
 0003:004e3d2c       ___error_mode              20622d2c     LIBCMT:dllcrt0.obj
 0003:004e3d30       ___app_type                20622d30     LIBCMT:dllcrt0.obj
 0003:004e3d34       _gpFlsAlloc                20622d34     LIBCMT:tidtable.obj
 0003:004e3d38       _gpFlsGetValue             20622d38     LIBCMT:tidtable.obj
 0003:004e3d3c       _gpFlsSetValue             20622d3c     LIBCMT:tidtable.obj
 0003:004e3d40       _gpFlsFree                 20622d40     LIBCMT:tidtable.obj
 0003:004e3d48       ___mbulinfo                20622d48     LIBCMT:mbctype.obj
 0003:004e3d54       ___mbcodepage              20622d54     LIBCMT:mbctype.obj
 0003:004e3d58       ___ismbcodepage            20622d58     LIBCMT:mbctype.obj
 0003:004e3d5c       ___mblcid                  20622d5c     LIBCMT:mbctype.obj
 0003:004e3d60       ___locale_changed          20622d60     LIBCMT:setlocal.obj
 0003:004e3d64       ___lc_handle               20622d64     LIBCMT:nlsdata2.obj
 0003:004e3d7c       ___lc_codepage             20622d7c     LIBCMT:nlsdata2.obj
 0003:004e3d80       ___lc_collate_cp           20622d80     LIBCMT:nlsdata2.obj
 0003:004e3d84       ___pInvalidArgHandler      20622d84     LIBCMT:invarg.obj
 0003:004e3d90       __umaskval                 20622d90     LIBCMT:crt0dat.obj
 0003:004e3d94       __osplatform               20622d94     LIBCMT:crt0dat.obj
 0003:004e3d98       __osver                    20622d98     LIBCMT:crt0dat.obj
 0003:004e3d9c       __winver                   20622d9c     LIBCMT:crt0dat.obj
 0003:004e3da0       __winmajor                 20622da0     LIBCMT:crt0dat.obj
 0003:004e3da4       __winminor                 20622da4     LIBCMT:crt0dat.obj
 0003:004e3da8       ___argc                    20622da8     LIBCMT:crt0dat.obj
 0003:004e3dac       ___argv                    20622dac     LIBCMT:crt0dat.obj
 0003:004e3db0       ___wargv                   20622db0     LIBCMT:crt0dat.obj
 0003:004e3db4       __environ                  20622db4     LIBCMT:crt0dat.obj
 0003:004e3db8       ___initenv                 20622db8     LIBCMT:crt0dat.obj
 0003:004e3dbc       __wenviron                 20622dbc     LIBCMT:crt0dat.obj
 0003:004e3dc0       ___winitenv                20622dc0     LIBCMT:crt0dat.obj
 0003:004e3dc4       __pgmptr                   20622dc4     LIBCMT:crt0dat.obj
 0003:004e3dc8       __wpgmptr                  20622dc8     LIBCMT:crt0dat.obj
 0003:004e3dcc       __exitflag                 20622dcc     LIBCMT:crt0dat.obj
 0003:004e3dd0       __C_Termination_Done       20622dd0     LIBCMT:crt0dat.obj
 0003:004e3dd4       __C_Exit_Done              20622dd4     LIBCMT:crt0dat.obj
 0003:004e3dd8       __maxwait                  20622dd8     LIBCMT:crtheap.obj
 0003:004e3eec       __crtheap                  20622eec     LIBCMT:heapinit.obj
 0003:004e3ef0       __outputformat             20622ef0     LIBCMT:outputformat.obj
 0003:004e404c       ___lconv_static_null       2062304c     LIBCMT:lconv.obj
 0003:004e4050       __cflush                   20623050     LIBCMT:_file.obj
 0003:004e436c       ?__pInconsistency@@3P6AXXZA 2062336c     LIBCMT:hooks.obj
 0003:004e4390       ___pPurecall               20623390     LIBCMT:inithelp.obj
 0003:004e4398       ?_pnhHeap@@3P6AHI@ZA       20623398     LIBCMT:handler.obj
 0003:004e439c       ___sbh_pHeaderDefer        2062339c     LIBCMT:sbheap.obj
 0003:004e4780       __newmode                  20623780     LIBCMT:_newmode.obj
 0003:004e4784       __stdbuf                   20623784     LIBCMT:_sftbuf.obj
 0003:004e47a0       _npcParseBuffer            206237a0     <common>
 0003:005047a0       _NPCFile                   206437a0     <common>
 0003:005047e0       _NPCParms                  206437e0     <common>
 0003:005247e0       _gNPCPtrs                  206637e0     <common>
 0003:005257e0       _mJumpTrace                206647e0     <common>
 0003:00525820       _frameNavInfo              20664820     <common>
 0003:00525880       _groupSpeechDebounceTime   20664880     <common>
 0003:00525890       __saved_client             20664890     <common>
 0003:00525894       _enemyVisibility           20664894     <common>
 0003:005258a0       _ucmd                      206648a0     <common>
 0003:005258bc       __saved_NPC                206648bc     <common>
 0003:005258c0       _NPCInfo                   206648c0     <common>
 0003:005258e0       __saved_ucmd               206648e0     <common>
 0003:005258fc       __saved_NPCInfo            206648fc     <common>
 0003:00525900       _client                    20664900     <common>
 0003:00525904       _NPC                       20664904     <common>
 0003:00525920       _gClPtrs                   20664920     <common>
 0003:00526920       _remappedShaders           20665920     <common>
 0003:0052ab20       _gG2KillIndex              20669b20     <common>
 0003:0052af20       _gTrigFallSound            20669f20     <common>
 0003:0052af40       _g_timers                  20669f40     <common>
 0003:0052bf40       _g_timerPool               2066af40     <common>
 0003:0055bf40       _g_timerFreeList           2069af40     <common>
 0003:0055bf60       _oldOverLayData            2069af60     <common>
 0003:0055c1e0       _teamgame                  2069b1e0     <common>
 0003:0055c1fc       _g_cullDistance            2069b1fc     <common>
 0003:0055c200       _gObjectiveCfgStr          2069b200     <common>
 0003:0055c600       _ObjectiveDependancy       2069b600     <common>
 0003:0055c6a0       _roffs                     2069b6a0     <common>
 0003:005dfe20       _pushed                    2071ee20     <common>
 0003:005e7e20       _pushed_p                  20726e20     <common>
 0003:005e7e30       _KeyPool                   20726e30     <common>
 0003:005e7e40       _refTagOwnerMap            20726e40     <common>
 0003:0062c080       _g_password                2076b080     <common>
 0003:0062c1a0       _g_minHumans               2076b1a0     <common>
 0003:0062c2c0       _g_debugSaberLocks         2076b2c0     <common>
 0003:0062c3e0       _ojp_spmodel               2076b3e0     <common>
 0003:0062c500       _g_smoothClients           2076b500     <common>
 0003:0062c620       _d_saberAlwaysBoxTrace     2076b620     <common>
 0003:0062c740       _d_saberBoxTraceSize       2076b740     <common>
 0003:0062c860       _g_friendlyFire            2076b860     <common>
 0003:0062c980       _g_saberLockRandomNess     2076b980     <common>
 0003:0062caa0       _g_forceDodge              2076baa0     <common>
 0003:0062cbc0       _g_playerDuelShield        2076bbc0     <common>
 0003:0062cce0       _g_podiumDist              2076bce0     <common>
 0003:0062ce00       _g_allowGametypeVote       2076be00     <common>
 0003:0062cf20       _g_forceBasedTeams         2076bf20     <common>
 0003:0062d040       _g_gravity                 2076c040     <common>
 0003:0062d160       _g_filterBan               2076c160     <common>
 0003:0062d280       _g_entities                2076c280     <common>
 0003:007b0280       _g_restarted               208ef280     <common>
 0003:007b03a0       _g_vehAutoAimLead          208ef3a0     <common>
 0003:007b04c0       _g_g2TraceLod              208ef4c0     <common>
 0003:007b05e0       _d_saberStanceDebug        208ef5e0     <common>
 0003:007b0700       _g_powerDuelEndHealth      208ef700     <common>
 0003:007b0820       _tier_storyinfo            208ef820     <common>
 0003:007b0940       _ojp_MOTD                  208ef940     <common>
 0003:007b0a60       _g_saberLocking            208efa60     <common>
 0003:007b0b80       _tiers_complete            208efb80     <common>
 0003:007b0ca0       _g_saberRestrictForce      208efca0     <common>
 0003:007b0dc0       _sv_privatepassword        208efdc0     <common>
 0003:007b0ee0       _g_allowBotLimit           208efee0     <common>
 0003:007b1000       _g_quadfactor              208f0000     <common>
 0003:007b1120       _g_powerDuelStartHealth    208f0120     <common>
 0003:007b1240       _g_multiDuel               208f0240     <common>
 0003:007b1360       _g_debugMove               208f0360     <common>
 0003:007b1480       _d_saberKickTweak          208f0480     <common>
 0003:007b15a0       _g_saberBladeFaces         208f05a0     <common>
 0003:007b16c0       _g_weaponTeamRespawn       208f06c0     <common>
 0003:007b17e0       _g_fraglimit               208f07e0     <common>
 0003:007b1900       _g_dismember               208f0900     <common>
 0003:007b1a20       _g_singlePlayer            208f0a20     <common>
 0003:007b1b40       _g_saberRealisticCombat    208f0b40     <common>
 0003:007b1c60       _ojp_skipcutscenes         208f0c60     <common>
 0003:007b1d80       _g_dmflags                 208f0d80     <common>
 0003:007b1ea0       _g_maxclients              208f0ea0     <common>
 0003:007b1fc0       _g_armBreakage             208f0fc0     <common>
 0003:007b20e0       _g_duelTimer               208f10e0     <common>
 0003:007b2200       _gSharedBuffer             208f1200     <common>
 0003:007b4200       _g_allowTeamVote           208f3200     <common>
 0003:007b4320       _d_saberInterpolate        208f3320     <common>
 0003:007b4440       _g_fraglimitVoteCorrection 208f3440     <common>
 0003:007b4560       _pmove_msec                208f3560     <common>
 0003:007b4680       _g_trueJedi                208f3680     <common>
 0003:007b47a0       _mapURL                    208f37a0     <common>
 0003:007b48c0       _g_RMG                     208f38c0     <common>
 0003:007b49e0       _g_saberDamageScale        208f39e0     <common>
 0003:007b4b00       _g_spskill                 208f3b00     <common>
 0003:007b4c20       _bg_fighterAltControl      208f3c20     <common>
 0003:007b4d40       _g_duelStats               208f3d40     <common>
 0003:007b4e60       _g_locationBasedDamage     208f3e60     <common>
 0003:007b4f80       _g_synchronousClients      208f3f80     <common>
 0003:007b50a0       _g_allowHighPingDuelist    208f40a0     <common>
 0003:007b51c0       _g_siegeTeam2              208f41c0     <common>
 0003:007b52e0       _g_knockback               208f42e0     <common>
 0003:007b5400       _g_autoMapCycle            208f4400     <common>
 0003:007b5520       _g_noSpecMove              208f4520     <common>
 0003:007b5640       _g_warmup                  208f4640     <common>
 0003:007b5760       _debugNPCAI                208f4760     <common>
 0003:007b5880       _g_saberWallDamageScale    208f4880     <common>
 0003:007b59a0       _g_weaponDisable           208f49a0     <common>
 0003:007b5ac0       _g_weaponRespawn           208f4ac0     <common>
 0003:007b5be0       _storyhead                 208f4be0     <common>
 0003:007b5d00       _g_allowVote               208f4d00     <common>
 0003:007b5e20       _g_debugAlloc              208f4e20     <common>
 0003:007b5f40       _g_logClientInfo           208f4f40     <common>
 0003:007b6060       _g_timeouttospec           208f5060     <common>
 0003:007b6180       _g_debugMelee              208f5180     <common>
 0003:007b62a0       _d_perPlayerGhoul2         208f52a0     <common>
 0003:007b63c0       _g_dedicated               208f53c0     <common>
 0003:007b64e0       _d_projectileGhoul2Collision 208f54e0     <common>
 0003:007b6600       _bot_cpu_usage             208f5600     <common>
 0003:007b6720       _g_saberDmgDelay_Wound     208f5720     <common>
 0003:007b6840       _debugBreak                208f5840     <common>
 0003:007b6960       _g_autoKickKillSpammers    208f5960     <common>
 0003:007b6a80       _ojp_chatProtectTime       208f5a80     <common>
 0003:007b6ba0       _g_corpseRemovalTime       208f5ba0     <common>
 0003:007b6cc0       _g_siegeTeamSwitch         208f5cc0     <common>
 0003:007b6de0       _g_duel_fraglimit          208f5de0     <common>
 0003:007b6f00       _g_stepSlideFix            208f5f00     <common>
 0003:007b7020       _d_asynchronousGroupAI     208f6020     <common>
 0003:007b7140       _g_logDuelStats            208f6140     <common>
 0003:007b7260       _g_saberLockFactor         208f6260     <common>
 0003:007b7380       _g_allowROQ                208f6380     <common>
 0003:007b74a0       _g_maxForceRank            208f64a0     <common>
 0003:007b75c0       _d_saberSPStyleDamage      208f65c0     <common>
 0003:007b76e0       _g_maxBots                 208f66e0     <common>
 0003:007b7800       _g_timelimit               208f6800     <common>
 0003:007b7920       _ojp_clientMOTD            208f6920     <common>
 0003:007b7a40       _g_enableBreath            208f6a40     <common>
 0003:007b7b60       _g_spawnInvulnerability    208f6b60     <common>
 0003:007b7c80       _g_MaxHolocronCarry        208f6c80     <common>
 0003:007b7da0       _d_altRoutes               208f6da0     <common>
 0003:007b7ec0       _debugNoRoam               208f6ec0     <common>
 0003:007b7fe0       _g_needpass                208f6fe0     <common>
 0003:007b8100       _g_autoBanTKSpammers       208f7100     <common>
 0003:007b8220       _g_forcePowerDisable       208f7220     <common>
 0003:007b8340       _g_blood                   208f7340     <common>
 0003:007b8460       _g_siegeRespawn            208f7460     <common>
 0003:007b8580       _g_ff_objectives           208f7580     <common>
 0003:007b86a0       _ojp_spmodelrgb            208f76a0     <common>
 0003:007b87c0       _g_listEntity              208f77c0     <common>
 0003:007b88e0       _g_inactivity              208f78e0     <common>
 0003:007b8a00       _g_siegeTeam1              208f7a00     <common>
 0003:007b8b20       _debugNPCFreeze            208f7b20     <common>
 0003:007b8c40       _g_useWhileThrowing        208f7c40     <common>
 0003:007b8d60       _d_JediAI                  208f7d60     <common>
 0003:007b8e80       _g_slowmoDuelEnd           208f7e80     <common>
 0003:007b8fa0       _d_saberCombat             208f7fa0     <common>
 0003:007b90c0       _g_cheats                  208f80c0     <common>
 0003:007b91e0       _g_statLog                 208f81e0     <common>
 0003:007b9300       _g_maxGameClients          208f8300     <common>
 0003:007b9420       _g_developer               208f8420     <common>
 0003:007b9540       _g_saberDmgDelay_Idle      208f8540     <common>
 0003:007b9660       _debugNPCAimingBeam        208f8660     <common>
 0003:007b9780       _d_saberGhoul2Collision    208f8780     <common>
 0003:007b98a0       _g_adaptRespawn            208f88a0     <common>
 0003:007b99c0       _g_AllowMapVote            208f89c0     <common>
 0003:007b9ae0       _g_autoBanKillSpammers     208f8ae0     <common>
 0003:007b9c00       _g_speed                   208f8c00     <common>
 0003:007b9d20       _g_log                     208f8d20     <common>
 0003:007b9e40       _g_optvehtrace             208f8e40     <common>
 0003:007b9f60       _d_siegeSeekerNPC          208f8f60     <common>
 0003:007ba080       _g_duelWeaponDisable       208f9080     <common>
 0003:007ba1a0       _d_patched                 208f91a0     <common>
 0003:007ba2c0       _g_teamForceBalance        208f92c0     <common>
 0003:007ba3e0       _g_debugServerSkel         208f93e0     <common>
 0003:007ba500       _g_AllowKickVote           208f9500     <common>
 0003:007ba620       _g_saberDmgVelocityScale   208f9620     <common>
 0003:007ba740       _d_noIntermissionWait      208f9740     <common>
 0003:007ba860       _g_friendlySaber           208f9860     <common>
 0003:007ba980       _g_austrian                208f9980     <common>
 0003:007baaa0       _g_saberTraceSaberFirst    208f9aa0     <common>
 0003:007babc0       _d_noGroupAI               208f9bc0     <common>
 0003:007bace0       _d_slowmodeath             208f9ce0     <common>
 0003:007bae00       _g_banIPs                  208f9e00     <common>
 0003:007baf20       _g_privateDuel             208f9f20     <common>
 0003:007bb040       _g_statLogFile             208fa040     <common>
 0003:007bb160       _g_allowNPC                208fa160     <common>
 0003:007bb280       _g_gametype                208fa280     <common>
 0003:007bb3a0       _g_capturelimit            208fa3a0     <common>
 0003:007bb4c0       _pmove_fixed               208fa4c0     <common>
 0003:007bb5e0       _g_doWarmup                208fa5e0     <common>
 0003:007bb700       _g_logSync                 208fa700     <common>
 0003:007bb820       _bot_thinklevel            208fa820     <common>
 0003:007bb940       _g_teamAutoJoin            208fa940     <common>
 0003:007bba60       _g_svfps                   208faa60     <common>
 0003:007bbb80       _g_podiumDrop              208fab80     <common>
 0003:007bbca0       _g_forceRegenTime          208faca0     <common>
 0003:007bbdc0       _g_autoKickTKSpammers      208fadc0     <common>
 0003:007bbee0       _g_allowDuelSuicide        208faee0     <common>
 0003:007bc000       _g_motd                    208fb000     <common>
 0003:007bc120       _d_powerDuelPrint          208fb120     <common>
 0003:007bc240       _g_showDuelHealths         208fb240     <common>
 0003:007bc360       _g_clients                 208fb360     <common>
 0003:007f5460       _g_forcerespawn            20934460     <common>
 0003:007f5580       _level                     20934580     <common>
 0003:008019a0       _G_WeaponLogDamage         209409a0     <common>
 0003:00803020       _G_WeaponLogItems          20942020     <common>
 0003:00803820       _G_WeaponLogPickups        20942820     <common>
 0003:008041a0       _G_WeaponLogFired          209431a0     <common>
 0003:00804b20       _G_WeaponLogPowerups       20943b20     <common>
 0003:00805120       _G_WeaponLogKills          20944120     <common>
 0003:008067a0       _G_WeaponLogDeaths         209457a0     <common>
 0003:00807120       _G_WeaponLogTime           20946120     <common>
 0003:00807aa0       _G_WeaponLogClientTouch    20946aa0     <common>
 0003:00807b20       _G_WeaponLogFrags          20946b20     <common>
 0003:00808b20       _G_WeaponLogLastTime       20947b20     <common>
 0003:00808ba0       _itemRegistered            20947ba0     <common>
 0003:00808fa0       _UseSpawnForcePowers       20947fa0     <common>
 0003:00808fa4       _SpawnWeapons              20947fa4     <common>
 0003:00808fc0       _cinematicSkipScript       20947fc0     <common>
 0003:008093c0       _UseSpawnWeapons           209483c0     <common>
 0003:008093e0       _SpawnForcePowerLevels     209483e0     <common>
 0003:00809440       _DMSData                   20948440     <common>
 0003:00809a20       _gPainPoint                20948a20     <common>
 0003:00809a40       _playerCamPos              20948a40     <common>
 0003:00809dc0       _camerapos                 20948dc0     <common>
 0003:00809dd0       _cameraang                 20948dd0     <common>
 0003:00809de0       _bot_minplayers            20948de0     <common>
 0003:00809ef0       _g_numArenas               20948ef0     <common>
 0003:00809ef4       _VehicleParms              20948ef4     <common>
 0003:00809f00       _VehWeaponParms            20948f00     <common>
 0003:00819f20       _g_vehicleInfo             20958f20     <common>
 0003:00827520       _g_vehWeaponInfo           20966520     <common>
 0003:00828e20       _bgSiegeClasses            20967e20     <common>
 0003:00859420       _bgSiegeTeams              20998420     <common>
 0003:0085b8a0       _siege_info                2099a8a0     <common>
 0003:0085f8a0       _nextcheck                 2099e8a0     <common>
 0003:0085f920       _pml                       2099e920     <common>
 0003:0085f9a4       _pm                        2099e9a4     <common>
 0003:0085f9c0       _bgAllAnims                2099e9c0     <common>
 0003:00860ac0       _bgHumanoidAnimations      2099fac0     <common>
 0003:00863500       _holocrons                 209a2500     <common>
 0003:008638e8       _nodenum                   209a28e8     <common>
 0003:00863900       _gWPArray                  209a2900     <common>
 0003:00867920       _nodetable                 209a6920     <common>
 0003:008d7920       _gSpawnPoints              20a16920     <common>
 0003:008d7a20       _gBotChatBuffer            20a16a20     <common>
 0003:00917a20       _OpenList                  20a56a20     <common>
 0003:0092ba60       _CloseList                 20a6aa60     <common>
 0003:0093fa60       _bot_camp                  20a7ea60     <common>
 0003:0093fb70       _droppedRedFlag            20a7eb70     <common>
 0003:0093fb80       _bot_fps                   20a7eb80     <common>
 0003:0093fc90       _eFlagRed                  20a7ec90     <common>
 0003:0093fca0       _bot_wp_clearweight        20a7eca0     <common>
 0003:0093fdc0       _bot_normgpath             20a7edc0     <common>
 0003:0093fed0       _flagBlue                  20a7eed0     <common>
 0003:0093fed4       _oFlagBlue                 20a7eed4     <common>
 0003:0093fed8       _floattime                 20a7eed8     <common>
 0003:0093fee0       _gBotEventTracker          20a7eee0     <common>
 0003:009400e0       _botstates                 20a7f0e0     <common>
 0003:00940160       _bot_wp_editornumber       20a7f160     <common>
 0003:00940280       _bot_wp_distconnect        20a7f280     <common>
 0003:00940390       _eFlagBlue                 20a7f390     <common>
 0003:00940394       _numbots                   20a7f394     <common>
 0003:009403a0       _bot_wp_info               20a7f3a0     <common>
 0003:009404c0       _bot_forcepowers           20a7f4c0     <common>
 0003:009405e0       _bot_honorableduelacceptance 20a7f5e0     <common>
 0003:00940700       _bot_wp_edit               20a7f700     <common>
 0003:00940820       _bot_wp_visconnect         20a7f820     <common>
 0003:00940930       _droppedBlueFlag           20a7f930     <common>
 0003:00940934       _oFlagRed                  20a7f934     <common>
 0003:00940940       _bot_forgimmick            20a7f940     <common>
 0003:00940a50       _flagRed                   20a7fa50     <common>
 0003:00940a60       _bot_pvstype               20a7fa60     <common>
 0003:00940b80       _bot_attachments           20a7fb80     <common>
 0003:00940ca0       _walktime                  20a7fca0     <common>
 0003:00940d20       _jumpPos                   20a7fd20     <common>
 0003:00940ea0       _next_point                20a7fea0     <common>
 0003:00940f20       _next_bot_fallcheck        20a7ff20     <common>
 0003:00940fa0       _next_bot_vischeck         20a7ffa0     <common>
 0003:00941020       _bot_will_fall             20a80020     <common>
 0003:009410a0       _last_checkfall            20a800a0     <common>
 0003:009420a0       _last_bot_wp_vischeck_result 20a810a0     <common>
 0003:00942120       ___sbh_cntHeaderList       20a81120     <common>
 0003:00942124       ___sbh_pHeaderList         20a81124     <common>
 0003:00942128       ___sbh_threshold           20a81128     <common>
 0003:0094212c       ___sbh_pHeaderScan         20a8112c     <common>
 0003:00942130       ___sbh_sizeHeaderList      20a81130     <common>
 0003:00942134       ___sbh_indGroupDefer       20a81134     <common>
 0003:00942138       ___piob                    20a81138     <common>
 0003:00942140       __bufin                    20a81140     <common>
 0003:00943140       __nstream                  20a82140     <common>
 0003:00943144       __debugger_hook_dummy      20a82144     <common>
 0003:00943148       __pDestructExceptionObject 20a82148     <common>
 0003:0094314c       ___active_heap             20a8214c     <common>
 0003:00943150       __nhandle                  20a82150     <common>
 0003:00943160       ___pioinfo                 20a82160     <common>
 0003:00943260       ___env_initialized         20a82260     <common>
 0003:00943264       ___onexitend               20a82264     <common>
 0003:00943268       ___onexitbegin             20a82268     <common>
 0003:0094326c       ___mbctype_initialized     20a8226c     <common>
 0003:00943270       ___dyn_tls_init_callback   20a82270     <common>
 0003:00943274       __pmatherr                 20a82274     <common>
 0003:00943278       ___use_sse2_mathfcns       20a82278     <common>
 0003:0094327c       ___sse2_available          20a8227c     <common>
 0003:00943280       __acmdln                   20a82280     <common>

 entry point at        0001:0010acbf

 Static symbols

 0001:00021570       _DeathUpdate               20022570 f   AnimalNPC.obj
 0001:000215b0       _Update                    200225b0 f   AnimalNPC.obj
 0001:000215c0       _ProcessMoveCommands       200225c0 f   AnimalNPC.obj
 0001:000217e0       _ProcessOrientCommands     200227e0 f   AnimalNPC.obj
 0001:00021910       _AnimateVehicle            20022910 f   AnimalNPC.obj
 0001:00021b30       _AnimateRiders             20022b30 f   AnimalNPC.obj
 0001:00022780       _SnapVector                20023780 f   bg_misc.obj
 0001:00025f50       _BG_StartLegsAnim          20026f50 f   bg_panimate.obj
 0001:00026f40       _PM_FallToDeath            20027f40 f   bg_pmove.obj
 0001:00026fe0       _PM_SetVehicleAngles       20027fe0 f   bg_pmove.obj
 0001:00027430       _PM_SetWaterLevelAtPoint   20028430 f   bg_pmove.obj
 0001:000276c0       _PM_Friction               200286c0 f   bg_pmove.obj
 0001:00027930       _PM_Accelerate             20028930 f   bg_pmove.obj
 0001:00027af0       _PM_CmdScale               20028af0 f   bg_pmove.obj
 0001:00027b80       _PM_SetMovementDir         20028b80 f   bg_pmove.obj
 0001:00027d50       _PM_JumpForDir             20028d50 f   bg_pmove.obj
 0001:00028af0       _PM_CheckJump              20029af0 f   bg_pmove.obj
 0001:0002a3c0       _PM_CheckWaterJump         2002b3c0 f   bg_pmove.obj
 0001:0002a500       _PM_WaterJumpMove          2002b500 f   bg_pmove.obj
 0001:0002a550       _PM_WaterMove              2002b550 f   bg_pmove.obj
 0001:0002a750       _PM_FlyVehicleMove         2002b750 f   bg_pmove.obj
 0001:0002a8f0       _PM_FlyMove                2002b8f0 f   bg_pmove.obj
 0001:0002aa30       _PM_AirMove                2002ba30 f   bg_pmove.obj
 0001:0002acf0       _PM_WalkMove               2002bcf0 f   bg_pmove.obj
 0001:0002b150       _PM_DeadMove               2002c150 f   bg_pmove.obj
 0001:0002b1f0       _PM_NoclipMove             2002c1f0 f   bg_pmove.obj
 0001:0002b420       _PM_DamageForDelta         2002c420 f   bg_pmove.obj
 0001:0002b4e0       _PM_CrashLandDamage        2002c4e0 f   bg_pmove.obj
 0001:0002b560       _PM_CrashLandDelta         2002c560 f   bg_pmove.obj
 0001:0002b5b0       _PM_TryRoll                2002c5b0 f   bg_pmove.obj
 0001:0002b8b0       _PM_CrashLandEffect        2002c8b0 f   bg_pmove.obj
 0001:0002b990       _PM_CrashLand              2002c990 f   bg_pmove.obj
 0001:0002bfd0       _PM_CorrectAllSolid        2002cfd0 f   bg_pmove.obj
 0001:0002c1b0       _PM_GroundTraceMissed      2002d1b0 f   bg_pmove.obj
 0001:0002c860       _PM_GroundTrace            2002d860 f   bg_pmove.obj
 0001:0002cc60       _PM_SetWaterLevel          2002dc60 f   bg_pmove.obj
 0001:0002d040       _PM_CheckDuck              2002e040 f   bg_pmove.obj
 0001:0002dd60       _PM_Footsteps              2002ed60 f   bg_pmove.obj
 0001:0002e8f0       _PM_WaterEvents            2002f8f0 f   bg_pmove.obj
 0001:0002f430       _PM_DoChargedWeapons       20030430 f   bg_pmove.obj
 0001:0002fc40       _PM_Weapon                 20030c40 f   bg_pmove.obj
 0001:000311e0       _PM_Animate                200321e0 f   bg_pmove.obj
 0001:00031280       _PM_DropTimers             20032280 f   bg_pmove.obj
 0001:00032570       _BG_G2ClientNeckAngles     20033570 f   bg_pmove.obj
 0001:00032910       _BG_G2ClientSpineAngles    20033910 f   bg_pmove.obj
 0001:00032da0       _BG_SwingAngles            20033da0 f   bg_pmove.obj
 0001:00033d50       _PM_CmdForSaberMoves       20034d50 f   bg_pmove.obj
 0001:000389b0       _PM_CanDoDualDoubleAttacks 200399b0 f   bg_saber.obj
 0001:00041e10       _BG_ParseVehWeaponParm     20042e10 f   bg_vehicleLoad.obj
 0001:00042480       _BG_ParseVehicleParm       20043480 f   bg_vehicleLoad.obj
 0001:00043550       _FindWeaponFuncValue       20044550 f   bg_weaponsdat.obj
 0001:00043ac0       _Update                    20044ac0 f   FighterNPC.obj
 0001:00043b10       _Eject                     20044b10 f   FighterNPC.obj
 0001:00043b30       _PredictedAngularDecrement 20044b30 f   FighterNPC.obj
 0001:00043dc0       _ProcessMoveCommands       20044dc0 f   FighterNPC.obj
 0001:000448f0       _FighterWingMalfunctionCheck 200458f0 f   FighterNPC.obj
 0001:00044a10       _FighterNoseMalfunctionCheck 20045a10 f   FighterNPC.obj
 0001:00044ab0       _FighterDamageRoutine      20045ab0 f   FighterNPC.obj
 0001:00044fc0       _ProcessOrientCommands     20045fc0 f   FighterNPC.obj
 0001:00045840       _AnimateVehicle            20046840 f   FighterNPC.obj
 0001:00047030       _G_UpdateForceSightBroadcasts 20048030 f   g_active.obj
 0001:00047150       _G_UpdateJediMasterBroadcasts 20048150 f   g_active.obj
 0001:00047af0       _NPC_GetWalkSpeed          20048af0 f   g_active.obj
 0001:00047b10       _NPC_GetRunSpeed           20048b10 f   g_active.obj
 0001:00048790       _ClientCinematicThink      20049790 f   g_active.obj
 0001:0004bf00       _G_LoadArenasFromFile      2004cf00 f   g_bot.obj
 0001:0004ce10       _AddBotToSpawnQueue        2004de10 f   g_bot.obj
 0001:0004d170       _G_LoadBotsFromFile        2004e170 f   g_bot.obj
 0001:0004d230       _G_LoadBots                2004e230 f   g_bot.obj
 0001:0004d3d0       _G_AddBot                  2004e3d0 f   g_bot.obj
 0001:00051090       _CopyToBodyQue             20052090 f   g_client.obj
 0001:00051680       _ClientCleanName           20052680 f   g_client.obj
 0001:00057fa0       _G_SayTo                   20058fa0 f   g_cmds.obj
 0001:00058650       _Cmd_Tell_f                20059650 f   g_cmds.obj
 0001:00058720       _Cmd_VoiceCommand_f        20059720 f   g_cmds.obj
 0001:0005a500       _G_ClientNumFromNetname    2005b500 f   g_cmds.obj
 0001:0005c1f0       _VectorCompare             2005d1f0 f   g_combat.obj
 0001:0005c1f0       _VectorCompare             2005d1f0 f   g_combat.obj
 0001:0005c1f0       _VectorCompare             2005d1f0 f   g_combat.obj
 0001:0005c1f0       _VectorCompare             2005d1f0 f   g_combat.obj
 0001:0005c1f0       _VectorCompare             2005d1f0 f   g_combat.obj
 0001:0005c1f0       _VectorCompare             2005d1f0 f   g_combat.obj
 0001:0005c1f0       _VectorCompare             2005d1f0 f   g_combat.obj
 0001:0005c1f0       _VectorCompare             2005d1f0 f   g_combat.obj
 0001:0005c1f0       _VectorCompare             2005d1f0 f   g_combat.obj
 0001:0005c1f0       _VectorCompare             2005d1f0 f   g_combat.obj
 0001:0005c1f0       _VectorCompare             2005d1f0 f   g_combat.obj
 0001:0005c1f0       _VectorCompare             2005d1f0 f   g_combat.obj
 0001:0005c1f0       _VectorCompare             2005d1f0 f   g_combat.obj
 0001:0005c1f0       _VectorCompare             2005d1f0 f   g_combat.obj
 0001:0005c1f0       _VectorCompare             2005d1f0 f   g_combat.obj
 0001:0005c1f0       _VectorCompare             2005d1f0 f   g_combat.obj
 0001:0005c1f0       _VectorCompare             2005d1f0 f   g_combat.obj
 0001:0005c1f0       _VectorCompare             2005d1f0 f   g_combat.obj
 0001:0005ce40       _G_CheckSpecialDeathAnim   2005de40 f   g_combat.obj
 0001:00066070       _Q3_GetAnimBoth            20067070 f   g_ICARUScb.obj
 0001:00066850       _Q3_RemoveEnt              20067850 f   g_ICARUScb.obj
 0001:00066a90       _Q3_SetTeleportDest        20067a90 f   g_ICARUScb.obj
 0001:00066b00       _Q3_SetOrigin              20067b00 f   g_ICARUScb.obj
 0001:00066bf0       _Q3_SetCopyOrigin          20067bf0 f   g_ICARUScb.obj
 0001:00066c50       _Q3_SetVelocity            20067c50 f   g_ICARUScb.obj
 0001:00066cb0       _Q3_SetAdjustAreaPortals   20067cb0 f   g_ICARUScb.obj
 0001:00066ce0       _Q3_SetNoGroups            20067ce0 f   g_ICARUScb.obj
 0001:00066d50       _Q3_SetEnemy               20067d50 f   g_ICARUScb.obj
 0001:00066f10       _Q3_SetLeader              20067f10 f   g_ICARUScb.obj
 0001:00066fd0       _Q3_SetNavGoal             20067fd0 f   g_ICARUScb.obj
 0001:000671b0       _SetLowerAnim              200681b0 f   g_ICARUScb.obj
 0001:00067210       _SetUpperAnim              20068210 f   g_ICARUScb.obj
 0001:00067270       _Q3_SetAnimUpper           20068270 f   g_ICARUScb.obj
 0001:000672b0       _Q3_SetAnimLower           200682b0 f   g_ICARUScb.obj
 0001:000672f0       _Q3_SetPlayerTeam          200682f0 f   g_ICARUScb.obj
 0001:00067330       _Q3_SetEnemyTeam           20068330 f   g_ICARUScb.obj
 0001:00067370       _Q3_SetHealth              20068370 f   g_ICARUScb.obj
 0001:00067420       _Q3_SetArmor               20068420 f   g_ICARUScb.obj
 0001:00067470       _Q3_SetBState              20068470 f   g_ICARUScb.obj
 0001:00067600       _Q3_SetTempBState          20068600 f   g_ICARUScb.obj
 0001:00067680       _Q3_SetDefaultBState       20068680 f   g_ICARUScb.obj
 0001:000676f0       _Q3_SetDPitch              200686f0 f   g_ICARUScb.obj
 0001:000677f0       _Q3_SetDYaw                200687f0 f   g_ICARUScb.obj
 0001:00067870       _Q3_SetWidth               20068870 f   g_ICARUScb.obj
 0001:00067960       _Q3_SetViewTarget          20068960 f   g_ICARUScb.obj
 0001:00067b00       _Q3_SetWatchTarget         20068b00 f   g_ICARUScb.obj
 0001:00067f50       _Q3_SetWeapon              20068f50 f   g_ICARUScb.obj
 0001:00068020       _Q3_SetWalkSpeed           20069020 f   g_ICARUScb.obj
 0001:000680b0       _Q3_SetRunSpeed            200690b0 f   g_ICARUScb.obj
 0001:00068140       _Q3_SetFriction            20069140 f   g_ICARUScb.obj
 0001:00068190       _Q3_SetGravity             20069190 f   g_ICARUScb.obj
 0001:00068200       _Q3_SetScale               20069200 f   g_ICARUScb.obj
 0001:00068290       _Q3_GameSideCheckStringCounterIncrement 20069290 f   g_ICARUScb.obj
 0001:000682e0       _Q3_SetCount               200692e0 f   g_ICARUScb.obj
 0001:00068350       _Q3_SetTargetName          20069350 f   g_ICARUScb.obj
 0001:000683a0       _Q3_SetTarget              200693a0 f   g_ICARUScb.obj
 0001:000683f0       _Q3_SetFullName            200693f0 f   g_ICARUScb.obj
 0001:00068440       _Q3_SetForcePowerLevel     20069440 f   g_ICARUScb.obj
 0001:00068640       _Q3_SetCaptureGoal         20069640 f   g_ICARUScb.obj
 0001:00068790       _Q3_SetIgnorePain          20069790 f   g_ICARUScb.obj
 0001:000687e0       _Q3_SetIgnoreEnemies       200697e0 f   g_ICARUScb.obj
 0001:00068840       _Q3_SetIgnoreAlerts        20069840 f   g_ICARUScb.obj
 0001:000688a0       _Q3_SetDontFire            200698a0 f   g_ICARUScb.obj
 0001:00068900       _Q3_SetFireWeapon          20069900 f   g_ICARUScb.obj
 0001:00068960       _Q3_SetSafeRemove          20069960 f   g_ICARUScb.obj
 0001:000689c0       _Q3_SetCinematicSkipScript 200699c0 f   g_ICARUScb.obj
 0001:00068a00       _Q3_SetWalking             20069a00 f   g_ICARUScb.obj
 0001:00068a60       _Q3_SetForcedMarch         20069a60 f   g_ICARUScb.obj
 0001:00068ab0       _Q3_SetNoAvoid             20069ab0 f   g_ICARUScb.obj
 0001:00068ba0       _Q3_SetSolid               20069ba0 f   g_ICARUScb.obj
 0001:00068c70       _Q3_SetForwardMove         20069c70 f   g_ICARUScb.obj
 0001:00068cc0       _Q3_SetRightMove           20069cc0 f   g_ICARUScb.obj
 0001:00068d10       _Q3_SetLockAngle           20069d10 f   g_ICARUScb.obj
 0001:00068e20       _Q3_LookTarget             20069e20 f   g_ICARUScb.obj
 0001:00068f40       _Q3_SetNoImpactDamage      20069f40 f   g_ICARUScb.obj
 0001:00068f90       _Q3_SetBehaviorSet         20069f90 f   g_ICARUScb.obj
 0001:000690b0       _Q3_SetStartFrame          2006a0b0 f   g_ICARUScb.obj
 0001:00069100       _Q3_SetEndFrame            2006a100 f   g_ICARUScb.obj
 0001:00069150       _Q3_SetAnimFrame           2006a150 f   g_ICARUScb.obj
 0001:000691c0       _Q3_SetSaberActive         2006a1c0 f   g_ICARUScb.obj
 0001:0006ae00       _Q3_SetAngles              2006be00 f   g_ICARUScb.obj
 0001:0006b060       _Q3_SetOriginOffset        2006c060 f   g_ICARUScb.obj
 0001:0006dfd0       _SnapVector                2006efd0 f   g_items.obj
 0001:0006ebf0       _pas_find_enemies          2006fbf0 f   g_items.obj
 0001:0006f200       _MedPackGive               20070200 f   g_items.obj
 0001:00076a10       _G_Animate                 20077a10 f   g_main.obj
 0001:000797c0       _misc_lightstyle_set       2007a7c0 f   g_misc.obj
 0001:0007b490       _InitShooter_Finish        2007c490 f   g_misc.obj
 0001:0007f6c0       _SnapVector                200806c0 f   g_missile.obj
 0001:00082c90       _Touch_DoorTriggerSpectator 20083c90 f   g_mover.obj
 0001:00084bf0       _InitBBrush                20085bf0 f   g_mover.obj
 0001:00085c60       _DistanceSquared           20086c60 f   g_nav.obj
 0001:00085c60       _DistanceSquared           20086c60 f   g_nav.obj
 0001:00085c60       _DistanceSquared           20086c60 f   g_nav.obj
 0001:00085c60       _DistanceSquared           20086c60 f   g_nav.obj
 0001:00085c60       _DistanceSquared           20086c60 f   g_nav.obj
 0001:00085c60       _DistanceSquared           20086c60 f   g_nav.obj
 0001:00085c60       _DistanceSquared           20086c60 f   g_nav.obj
 0001:00085c60       _DistanceSquared           20086c60 f   g_nav.obj
 0001:00085c60       _DistanceSquared           20086c60 f   g_nav.obj
 0001:00085c60       _DistanceSquared           20086c60 f   g_nav.obj
 0001:00085c60       _DistanceSquared           20086c60 f   g_nav.obj
 0001:00085c60       _DistanceSquared           20086c60 f   g_nav.obj
 0001:00085c60       _DistanceSquared           20086c60 f   g_nav.obj
 0001:00085c60       _DistanceSquared           20086c60 f   g_nav.obj
 0001:00085c60       _DistanceSquared           20086c60 f   g_nav.obj
 0001:00085c60       _DistanceSquared           20086c60 f   g_nav.obj
 0001:00085c60       _DistanceSquared           20086c60 f   g_nav.obj
 0001:00085c60       _DistanceSquared           20086c60 f   g_nav.obj
 0001:00085c60       _DistanceSquared           20086c60 f   g_nav.obj
 0001:00085c60       _DistanceSquared           20086c60 f   g_nav.obj
 0001:00085c60       _DistanceSquared           20086c60 f   g_nav.obj
 0001:00086630       _NAV_TestBypass            20087630 f   g_nav.obj
 0001:00089ad0       _G_InitRoff                2008aad0 f   g_roff.obj
 0001:0008c0c0       _SiegeItemRespawnEffect    2008d0c0 f   g_saga.obj
 0001:0008c130       _SiegeItemRespawnOnOriginalSpot 2008d130 f   g_saga.obj
 0001:0008dc10       _HandleEntityAdjustment    2008ec10 f   g_spawn.obj
 0001:0008e920       _StringToFilter            2008f920 f   g_svcmds.obj
 0001:0008e9d0       _UpdateIPBans              2008f9d0 f   g_svcmds.obj
 0001:000913f0       _target_location_linkup    200923f0 f   g_target.obj
 0001:000939d0       _SortClients               200949d0 f   g_team.obj
 0001:00093d10       _AnimateRiders             20094d10 f   g_team.obj
 0001:00096da0       _SnapVector                20097da0 f   g_turret.obj
 0001:00097120       _turret_fire               20098120 f   g_turret.obj
 0001:00097410       _turret_aim                20098410 f   g_turret.obj
 0001:00097830       _turret_turnoff            20098830 f   g_turret.obj
 0001:000978a0       _turret_find_enemies       200988a0 f   g_turret.obj
 0001:000982f0       _SnapVector                200992f0 f   g_turret_G2.obj
 0001:00098920       _turretG2_fire             20099920 f   g_turret_G2.obj
 0001:00098cd0       _turretG2_aim              20099cd0 f   g_turret_G2.obj
 0001:000990d0       _turretG2_turnoff          2009a0d0 f   g_turret_G2.obj
 0001:00099130       _turretG2_find_enemies     2009a130 f   g_turret_G2.obj
 0001:00099e30       _SnapVector                2009ae30 f   g_utils.obj
 0001:00099ff0       _G_FindConfigstringIndex   2009aff0 f   g_utils.obj
 0001:0009dd70       _StartDeathDelay           2009ed70 f   g_vehicles.obj
 0001:0009dde0       _DeathUpdate               2009ede0 f   g_vehicles.obj
 0001:0009e0d0       _UpdateRider               2009f0d0 f   g_vehicles.obj
 0001:0009e5d0       _AttachRiders              2009f5d0 f   g_vehicles.obj
 0001:0009e860       _Ghost                     2009f860 f   g_vehicles.obj
 0001:0009e8a0       _UnGhost                   2009f8a0 f   g_vehicles.obj
 0001:0009fa40       _Update                    200a0a40 f   g_vehicles.obj
 0001:000a0a50       _VEH_TurretFindEnemies     200a1a50 f   g_vehicleTurret.obj
 0001:000a1190       _SnapVector                200a2190 f   g_weapon.obj
 0001:000a11f0       _VectorLength              200a21f0 f   g_weapon.obj
 0001:000a11f0       _VectorLength              200a21f0 f   g_weapon.obj
 0001:000a11f0       _VectorLength              200a21f0 f   g_weapon.obj
 0001:000a11f0       _VectorLength              200a21f0 f   g_weapon.obj
 0001:000a11f0       _VectorLength              200a21f0 f   g_weapon.obj
 0001:000a11f0       _VectorLength              200a21f0 f   g_weapon.obj
 0001:000a11f0       _VectorLength              200a21f0 f   g_weapon.obj
 0001:000a11f0       _VectorLength              200a21f0 f   g_weapon.obj
 0001:000a11f0       _VectorLength              200a21f0 f   g_weapon.obj
 0001:000a11f0       _VectorLength              200a21f0 f   g_weapon.obj
 0001:000a11f0       _VectorLength              200a21f0 f   g_weapon.obj
 0001:000a11f0       _VectorLength              200a21f0 f   g_weapon.obj
 0001:000a11f0       _VectorLength              200a21f0 f   g_weapon.obj
 0001:000a11f0       _VectorLength              200a21f0 f   g_weapon.obj
 0001:000a11f0       _VectorLength              200a21f0 f   g_weapon.obj
 0001:000a11f0       _VectorLength              200a21f0 f   g_weapon.obj
 0001:000a1350       _WP_FireBryarPistol        200a2350 f   g_weapon.obj
 0001:000a17a0       _WP_FireBlaster            200a27a0 f   g_weapon.obj
 0001:000a1890       _WP_BowcasterAltFire       200a2890 f   g_weapon.obj
 0001:000a1940       _WP_BowcasterMainFire      200a2940 f   g_weapon.obj
 0001:000a1b60       _WP_FireBowcaster          200a2b60 f   g_weapon.obj
 0001:000a1b80       _WP_RepeaterMainFire       200a2b80 f   g_weapon.obj
 0001:000a1bf0       _WP_RepeaterAltFire        200a2bf0 f   g_weapon.obj
 0001:000a1cd0       _WP_FireRepeater           200a2cd0 f   g_weapon.obj
 0001:000a1d80       _WP_DEMP2_MainFire         200a2d80 f   g_weapon.obj
 0001:000a2310       _WP_DEMP2_AltFire          200a3310 f   g_weapon.obj
 0001:000a24d0       _WP_FireDEMP2              200a34d0 f   g_weapon.obj
 0001:000a24f0       _WP_FlechetteMainFire      200a34f0 f   g_weapon.obj
 0001:000a2650       _WP_TraceSetStart          200a3650 f   g_weapon.obj
 0001:000a3a70       _WP_FireConcussion         200a4a70 f   g_weapon.obj
 0001:000a4cd0       _WP_FireEmplaced           200a5cd0 f   g_weapon.obj
 0001:000a5910       _WP_DisruptorMainFire      200a6910 f   g_weapon.obj
 0001:000a6380       _WP_FireDisruptor          200a7380 f   g_weapon.obj
 0001:000a63e0       _WP_CreateFlechetteBouncyThing 200a73e0 f   g_weapon.obj
 0001:000a6540       _WP_FlechetteAltFire       200a7540 f   g_weapon.obj
 0001:000a6650       _WP_FireFlechette          200a7650 f   g_weapon.obj
 0001:000a6b10       _WP_FireRocket             200a7b10 f   g_weapon.obj
 0001:000a7970       _WP_FireConcussionAlt      200a8970 f   g_weapon.obj
 0001:000aa7c0       _DeadThink                 200ab7c0 f   NPC.obj
 0001:000ad250       _GM_HoldPosition           200ae250 f   NPC_AI_GalakMech.obj
 0001:000ad290       _GM_Move                   200ae290 f   NPC_AI_GalakMech.obj
 0001:000ad300       _GM_CheckMoveState         200ae300 f   NPC_AI_GalakMech.obj
 0001:000ad3d0       _GM_CheckFireState         200ae3d0 f   NPC_AI_GalakMech.obj
 0001:000aeaa0       _Grenadier_Move            200afaa0 f   NPC_AI_Grenadier.obj
 0001:000aee70       _Grenadier_CheckMoveState  200afe70 f   NPC_AI_Grenadier.obj
 0001:000af7e0       _NPC_Howler_Move           200b07e0 f   NPC_AI_Howler.obj
 0001:000af9d0       _Howler_Move               200b09d0 f   NPC_AI_Howler.obj
 0001:000afa10       _Howler_TryDamage          200b0a10 f   NPC_AI_Howler.obj
 0001:000afbd0       _Howler_Howl               200b0bd0 f   NPC_AI_Howler.obj
 0001:000aff00       _Howler_Attack             200b0f00 f   NPC_AI_Howler.obj
 0001:000b02c0       _Howler_Combat             200b12c0 f   NPC_AI_Howler.obj
 0001:000b0660       _Howler_Patrol             200b1660 f   NPC_AI_Howler.obj
 0001:000b4af0       _Jedi_Aggression           200b5af0 f   NPC_AI_Jedi.obj
 0001:000b4b60       _Jedi_AggressionErosion    200b5b60 f   NPC_AI_Jedi.obj
 0001:000b4d50       _Jedi_Rage                 200b5d50 f   NPC_AI_Jedi.obj
 0001:000b4e30       _Jedi_BattleTaunt          200b5e30 f   NPC_AI_Jedi.obj
 0001:000b4ff0       _Jedi_ClearPathToSpot      200b5ff0 f   NPC_AI_Jedi.obj
 0001:000b5520       _Jedi_Move                 200b6520 f   NPC_AI_Jedi.obj
 0001:000b55b0       _Jedi_Hunt                 200b65b0 f   NPC_AI_Jedi.obj
 0001:000b5620       _Jedi_StartBackOff         200b6620 f   NPC_AI_Jedi.obj
 0001:000b57d0       _Jedi_Retreat              200b67d0 f   NPC_AI_Jedi.obj
 0001:000b5800       _Jedi_Advance              200b6800 f   NPC_AI_Jedi.obj
 0001:000b5870       _Jedi_AdjustSaberAnimLevel 200b6870 f   NPC_AI_Jedi.obj
 0001:000b5a70       _Jedi_CheckDecreaseSaberAnimLevel 200b6a70 f   NPC_AI_Jedi.obj
 0001:000b5b10       _Jedi_DecideKick           200b6b10 f   NPC_AI_Jedi.obj
 0001:000b5e30       _Jedi_CombatDistance       200b6e30 f   NPC_AI_Jedi.obj
 0001:000b7550       _Jedi_Strafe               200b8550 f   NPC_AI_Jedi.obj
 0001:000b98a0       _Jedi_CheckEvadeSpecialAttacks 200ba8a0 f   NPC_AI_Jedi.obj
 0001:000ba060       _Jedi_SaberBlock           200bb060 f   NPC_AI_Jedi.obj
 0001:000ba990       _Jedi_EvasionSaber         200bb990 f   NPC_AI_Jedi.obj
 0001:000bb320       _Jedi_SetEnemyInfo         200bc320 f   NPC_AI_Jedi.obj
 0001:000bb710       _Jedi_FaceEnemy            200bc710 f   NPC_AI_Jedi.obj
 0001:000bb9f0       _Jedi_DebounceDirectionChanges 200bc9f0 f   NPC_AI_Jedi.obj
 0001:000bbf90       _Jedi_TimersApply          200bcf90 f   NPC_AI_Jedi.obj
 0001:000bc0f0       _Jedi_CombatTimersUpdate   200bd0f0 f   NPC_AI_Jedi.obj
 0001:000bc6d0       _Jedi_CombatIdle           200bd6d0 f   NPC_AI_Jedi.obj
 0001:000bc900       _Jedi_AttackDecide         200bd900 f   NPC_AI_Jedi.obj
 0001:000bcd20       _Jedi_Jump                 200bdd20 f   NPC_AI_Jedi.obj
 0001:000bd1d0       _Jedi_TryJump              200be1d0 f   NPC_AI_Jedi.obj
 0001:000bd630       _Jedi_CheckEnemyMovement   200be630 f   NPC_AI_Jedi.obj
 0001:000bdc90       _Jedi_CheckJumps           200bec90 f   NPC_AI_Jedi.obj
 0001:000bdfb0       _Jedi_Combat               200befb0 f   NPC_AI_Jedi.obj
 0001:000be7c0       _Jedi_Patrol               200bf7c0 f   NPC_AI_Jedi.obj
 0001:000befe0       _Jedi_Attack               200bffe0 f   NPC_AI_Jedi.obj
 0001:000c5a90       _SaberDroid_Move           200c6a90 f   NPC_AI_SaberDroid.obj
 0001:000c9a90       _Sniper_Move               200caa90 f   NPC_AI_Sniper.obj
 0001:000c9ec0       _Sniper_CheckMoveState     200caec0 f   NPC_AI_Sniper.obj
 0001:000ca120       _Sniper_ResolveBlockedShot 200cb120 f   NPC_AI_Sniper.obj
 0001:000ca280       _Sniper_CheckFireState     200cb280 f   NPC_AI_Sniper.obj
 0001:000cb2f0       _ST_Speech                 200cc2f0 f   NPC_AI_Stormtrooper.obj
 0001:000cb6b0       _ST_HoldPosition           200cc6b0 f   NPC_AI_Stormtrooper.obj
 0001:000cb810       _ST_Move                   200cc810 f   NPC_AI_Stormtrooper.obj
 0001:000cc820       _NPC_ST_InvestigateEvent   200cd820 f   NPC_AI_Stormtrooper.obj
 0001:000cd310       _ST_OffsetLook             200ce310 f   NPC_AI_Stormtrooper.obj
 0001:000cd3c0       _ST_LookAround             200ce3c0 f   NPC_AI_Stormtrooper.obj
 0001:000cdce0       _ST_CheckMoveState         200cece0 f   NPC_AI_Stormtrooper.obj
 0001:000ce070       _ST_CheckFireState         200cf070 f   NPC_AI_Stormtrooper.obj
 0001:000cfbc0       _NPC_ST_SleepShuffle       200d0bc0 f   NPC_AI_Stormtrooper.obj
 0001:000d52e0       _VectorLengthSquared       200d62e0 f   NPC_combat.obj
 0001:000d52e0       _VectorLengthSquared       200d62e0 f   NPC_combat.obj
 0001:000d7030       _NPC_CollectCombatPoints   200d8030 f   NPC_combat.obj
 0001:000d9080       _NPC_Jump                  200da080 f   NPC_move.obj
 0001:000d97f0       _NPC_TryJump_Final         200da7f0 f   NPC_move.obj
 0001:000da020       _NPC_LadderMove            200db020 f   NPC_move.obj
 0001:000dafa0       _NPC_CheckAttacker         200dbfa0 f   NPC_reactions.obj
 0001:000dcf60       _G_CheckSoundEvents        200ddf60 f   NPC_senses.obj
 0001:000dd0b0       _G_CheckSightEvents        200de0b0 f   NPC_senses.obj
 0001:000e2160       _TranslateRankName         200e3160 f   NPC_stats.obj
 0001:000e8350       _NPC_CheckPlayerDistance   200e9350 f   NPC_utils.obj
 0001:000eaa10       _ProcessMoveCommands       200eba10 f   SpeederNPC.obj
 0001:000f15a0       _RemoveTrickedEnt          200f25a0 f   w_force.obj
 0001:000f15f0       _WP_UpdateMindtrickEnts    200f25f0 f   w_force.obj
 0001:000f1820       _WP_ForcePowerRun          200f2820 f   w_force.obj
 0001:000f7520       _Distance                  200f8520 f   w_saber.obj
 0001:000f7520       _Distance                  200f8520 f   w_saber.obj
 0001:000f7520       _Distance                  200f8520 f   w_saber.obj
 0001:000f7520       _Distance                  200f8520 f   w_saber.obj
 0001:000f7520       _Distance                  200f8520 f   w_saber.obj
 0001:000f7520       _Distance                  200f8520 f   w_saber.obj
 0001:000f7520       _Distance                  200f8520 f   w_saber.obj
 0001:000f7520       _Distance                  200f8520 f   w_saber.obj
 0001:000f7520       _Distance                  200f8520 f   w_saber.obj
 0001:000f7520       _Distance                  200f8520 f   w_saber.obj
 0001:000f7520       _Distance                  200f8520 f   w_saber.obj
 0001:000f7520       _Distance                  200f8520 f   w_saber.obj
 0001:000f7520       _Distance                  200f8520 f   w_saber.obj
 0001:000f7520       _Distance                  200f8520 f   w_saber.obj
 0001:000f7630       _G_SaberAttackPower        200f8630 f   w_saber.obj
 0001:000f7a40       _SetSaberBoxSize           200f8a40 f   w_saber.obj
 0001:000f80b0       _G_CheckLookTarget         200f90b0 f   w_saber.obj
 0001:000f8310       _G_G2NPCAngles             200f9310 f   w_saber.obj
 0001:000f85f0       _G_G2PlayerAngles          200f95f0 f   w_saber.obj
 0001:000f8b20       _SaberAttacking            200f9b20 f   w_saber.obj
 0001:000f8c00       _WP_SabersCheckLock2       200f9c00 f   w_saber.obj
 0001:000fa7a0       _G_GetParryForBlock        200fb7a0 f   w_saber.obj
 0001:000fa820       _WP_GetSaberDeflectionAngle 200fb820 f   w_saber.obj
 0001:000faaf0       _G_GetAttackDamage         200fbaf0 f   w_saber.obj
 0001:000fac00       _G_GetAnimPoint            200fbc00 f   w_saber.obj
 0001:000facc0       _G_ClientIdleInWorld       200fbcc0 f   w_saber.obj
 0001:000fad10       _G_G2TraceCollide          200fbd10 f   w_saber.obj
 0001:000faf80       _G_BuildSaberFaces         200fbf80 f   w_saber.obj
 0001:000fb770       _G_SabCol_CalcPlaneEq      200fc770 f   w_saber.obj
 0001:000fb810       _G_SabCol_PointRelativeToPlane 200fc810 f   w_saber.obj
 0001:000fb860       _G_SaberFaceCollisionCheck 200fc860 f   w_saber.obj
 0001:000fc7c0       _G_PowerLevelForSaberAnim  200fd7c0 f   w_saber.obj
 0001:000fe6c0       _G_KickDownable            200ff6c0 f   w_saber.obj
 0001:000fe740       _G_TossTheMofo             200ff740 f   w_saber.obj
 0001:000fe820       _G_KickTrace               200ff820 f   w_saber.obj
 0001:000febd0       _G_KickSomeMofos           200ffbd0 f   w_saber.obj
 0001:000ff410       _G_PrettyCloseIGuess       20100410 f   w_saber.obj
 0001:000ff440       _G_GrabSomeMofos           20100440 f   w_saber.obj
 0001:00100070       _G_SaberCollide            20101070 f   w_saber.obj
 0001:00100d70       _CheckThrownSaberDamaged   20101d70 f   w_saber.obj
 0001:001014a0       _saberCheckRadiusDamage    201024a0 f   w_saber.obj
 0001:00101dc0       _saberMoveBack             20102dc0 f   w_saber.obj
 0001:00103210       _CheckSaberDamage          20104210 f   w_saber.obj
 0001:001083d0       _RegisterAssets            201093d0 f   WalkerNPC.obj
 0001:001083f0       _Board                     201093f0 f   WalkerNPC.obj
 0001:001083f0       _Board                     201093f0 f   WalkerNPC.obj
 0001:00108420       _ProcessMoveCommands       20109420 f   WalkerNPC.obj
 0001:001087e0       _ProcessOrientCommands     201097e0 f   WalkerNPC.obj
 0001:00108910       _AnimateVehicle            20109910 f   WalkerNPC.obj
 0001:0010924a       _vscan_fn                  2010a24a f   LIBCMT:sscanf.obj
 0001:00109e50       _swap                      2010ae50 f   LIBCMT:qsort.obj
 0001:00109e80       _shortsort                 2010ae80 f   LIBCMT:qsort.obj
 0001:0010abc9       ___DllMainCRTStartup       2010bbc9 f   LIBCMT:dllcrt0.obj
 0001:0010ae3e       __shift                    2010be3e f   LIBCMT:cvt.obj
 0001:0010ae77       __cftoe2_l                 2010be77 f   LIBCMT:cvt.obj
 0001:0010b441       __cftof2_l                 2010c441 f   LIBCMT:cvt.obj
 0001:0010c198       _fastzero_I                2010d198 f   LIBCMT:p4_memset.obj
 0001:0010c292       ?strtoxl@@YAKPAUlocaleinfo_struct@@PBDPAPBDHH@Z 2010d292 f   LIBCMT:strtol.obj
 0001:0010c4e6       ?CPtoLCID@@YAHH@Z          2010d4e6 f   LIBCMT:mbctype.obj
 0001:0010c515       ?setSBCS@@YAXPAUthreadmbcinfostruct@@@Z 2010d515 f   LIBCMT:mbctype.obj
 0001:0010c56a       ?setSBUpLow@@YAXPAUthreadmbcinfostruct@@@Z 2010d56a f   LIBCMT:mbctype.obj
 0001:0010c798       ?getSystemCP@@YAHH@Z       2010d798 f   LIBCMT:mbctype.obj
 0001:0010cdc7       __updatetlocinfoEx_nolock  2010ddc7 f   LIBCMT:setlocal.obj
 0001:0010d8ce       ___check_float_string      2010e8ce f   LIBCMT:input.obj
 0001:0010d922       __inc                      2010e922 f   LIBCMT:input.obj
 0001:0010d938       __whiteout                 2010e938 f   LIBCMT:input.obj
 0001:0010f0aa       _fastcopy_I                201100aa f   LIBCMT:p4_memcpy.obj
 0001:0010f22f       ?__crtLCMapStringA_stat@@YAHPAUlocaleinfo_struct@@KKPBDHPADHHH@Z 2011022f f   LIBCMT:a_map.obj
 0001:0010f7b8       _write_char                201107b8 f   LIBCMT:output.obj
 0001:0010f7eb       _write_multi_char          201107eb f   LIBCMT:output.obj
 0001:0010f80f       _write_string              2011080f f   LIBCMT:output.obj
 0001:0011155c       __initterm                 2011255c f   LIBCMT:crt0dat.obj
 0001:00111699       _doexit                    20112699 f   LIBCMT:crt0dat.obj
 0001:00111ceb       _parse_cmdline             20112ceb f   LIBCMT:stdargv.obj
 0001:00112f45       _has_osfxsr_set            20113f45 f   LIBCMT:cpu_disp.obj
 0001:001130e5       ?__crtGetStringTypeA_stat@@YAHPAUlocaleinfo_struct@@KPBDHPAGHHH@Z 201140e5 f   LIBCMT:a_str.obj
 0001:001161a0       __onexit_nolock            201171a0 f   LIBCMT:onexit.obj
 0001:00116411       _siglookup                 20117411 f   LIBCMT:winsig.obj
 0001:00116620       ___crtInitCritSecNoSpinCount@8 20117620 f   LIBCMT:initcrit.obj
 0001:001175a0       ?x_ismbbtype_l@@YAHPAUlocaleinfo_struct@@IHH@Z 201185a0 f   LIBCMT:ismbbyte.obj
 0001:00117694       __unwind_handler4          20118694 f   LIBCMT:exsup4.obj
 0001:00118123       __hw_cw                    20119123 f   LIBCMT:ieee87.obj
 0001:001181b1       ___hw_cw_sse2              201191b1 f   LIBCMT:ieee87.obj
 0001:001190e3       _flsall                    2011a0e3 f   LIBCMT:fflush.obj
 0001:00119560       __unwind_handler           2011a560 f   LIBCMT:exsup.obj
